
15_Karta_SD.elf:     file format elf32-avr

Sections:
Idx Name          Size      VMA       LMA       File off  Algn
  0 .text         00005794  00000000  00000000  00000094  2**1
                  CONTENTS, ALLOC, LOAD, READONLY, CODE
  1 .data         0000016e  00800060  00005794  00005828  2**0
                  CONTENTS, ALLOC, LOAD, DATA
  2 .bss          000004a2  008001ce  008001ce  00005996  2**0
                  ALLOC

Disassembly of section .text:

00000000 <__vectors>:
       0:	0c 94 40 00 	jmp	0x80	; 0x80 <__ctors_end>
       4:	0c 94 a3 00 	jmp	0x146	; 0x146 <__vector_1>
       8:	0c 94 5d 00 	jmp	0xba	; 0xba <__bad_interrupt>
       c:	0c 94 5d 00 	jmp	0xba	; 0xba <__bad_interrupt>
      10:	0c 94 b2 00 	jmp	0x164	; 0x164 <__vector_4>
      14:	0c 94 5d 00 	jmp	0xba	; 0xba <__bad_interrupt>
      18:	0c 94 f8 29 	jmp	0x53f0	; 0x53f0 <__vector_6>
      1c:	0c 94 5d 00 	jmp	0xba	; 0xba <__bad_interrupt>
      20:	0c 94 5d 00 	jmp	0xba	; 0xba <__bad_interrupt>
      24:	0c 94 5d 00 	jmp	0xba	; 0xba <__bad_interrupt>
      28:	0c 94 5d 00 	jmp	0xba	; 0xba <__bad_interrupt>
      2c:	0c 94 5d 00 	jmp	0xba	; 0xba <__bad_interrupt>
      30:	0c 94 5d 00 	jmp	0xba	; 0xba <__bad_interrupt>
      34:	0c 94 5d 00 	jmp	0xba	; 0xba <__bad_interrupt>
      38:	0c 94 5d 00 	jmp	0xba	; 0xba <__bad_interrupt>
      3c:	0c 94 5d 00 	jmp	0xba	; 0xba <__bad_interrupt>
      40:	0c 94 5d 00 	jmp	0xba	; 0xba <__bad_interrupt>
      44:	0c 94 5d 00 	jmp	0xba	; 0xba <__bad_interrupt>
      48:	0c 94 5d 00 	jmp	0xba	; 0xba <__bad_interrupt>
      4c:	0c 94 5d 00 	jmp	0xba	; 0xba <__bad_interrupt>
      50:	0c 94 5d 00 	jmp	0xba	; 0xba <__bad_interrupt>

00000054 <__c.2272>:
      54:	20 20 20 20 20 20 20 20 20 20 20 4d 69 72 65 6b                Mirek
	...

00000065 <__c.2270>:
      65:	4b 61 73 69 61 20 20 20 20 20 20 20 20 20 20 20     Kasia           
	...

00000076 <__c.2268>:
      76:	53 74 61 72 74 2e 2e 2e 00 00                       Start.....

00000080 <__ctors_end>:
      80:	11 24       	eor	r1, r1
      82:	1f be       	out	0x3f, r1	; 63
      84:	cf e5       	ldi	r28, 0x5F	; 95
      86:	d8 e0       	ldi	r29, 0x08	; 8
      88:	de bf       	out	0x3e, r29	; 62
      8a:	cd bf       	out	0x3d, r28	; 61

0000008c <__do_copy_data>:
      8c:	11 e0       	ldi	r17, 0x01	; 1
      8e:	a0 e6       	ldi	r26, 0x60	; 96
      90:	b0 e0       	ldi	r27, 0x00	; 0
      92:	e4 e9       	ldi	r30, 0x94	; 148
      94:	f7 e5       	ldi	r31, 0x57	; 87
      96:	02 c0       	rjmp	.+4      	; 0x9c <.do_copy_data_start>

00000098 <.do_copy_data_loop>:
      98:	05 90       	lpm	r0, Z+
      9a:	0d 92       	st	X+, r0

0000009c <.do_copy_data_start>:
      9c:	ae 3c       	cpi	r26, 0xCE	; 206
      9e:	b1 07       	cpc	r27, r17
      a0:	d9 f7       	brne	.-10     	; 0x98 <.do_copy_data_loop>

000000a2 <__do_clear_bss>:
      a2:	16 e0       	ldi	r17, 0x06	; 6
      a4:	ae ec       	ldi	r26, 0xCE	; 206
      a6:	b1 e0       	ldi	r27, 0x01	; 1
      a8:	01 c0       	rjmp	.+2      	; 0xac <.do_clear_bss_start>

000000aa <.do_clear_bss_loop>:
      aa:	1d 92       	st	X+, r1

000000ac <.do_clear_bss_start>:
      ac:	a0 37       	cpi	r26, 0x70	; 112
      ae:	b1 07       	cpc	r27, r17
      b0:	e1 f7       	brne	.-8      	; 0xaa <.do_clear_bss_loop>
      b2:	0e 94 eb 00 	call	0x1d6	; 0x1d6 <main>
      b6:	0c 94 c8 2b 	jmp	0x5790	; 0x5790 <_exit>

000000ba <__bad_interrupt>:
      ba:	0c 94 00 00 	jmp	0	; 0x0 <__vectors>

000000be <get_fattime>:
      be:	66 ea       	ldi	r22, 0xA6	; 166
      c0:	70 e5       	ldi	r23, 0x50	; 80
      c2:	84 e7       	ldi	r24, 0x74	; 116
      c4:	9c e3       	ldi	r25, 0x3C	; 60
      c6:	08 95       	ret

000000c8 <ledy>:
      c8:	50 e0       	ldi	r21, 0x00	; 0
      ca:	60 e0       	ldi	r22, 0x00	; 0
      cc:	78 ed       	ldi	r23, 0xD8	; 216
      ce:	0f c0       	rjmp	.+30     	; 0xee <ledy+0x26>
      d0:	84 2f       	mov	r24, r20
      d2:	80 95       	com	r24
      d4:	8b bb       	out	0x1b, r24	; 27
      d6:	cb 01       	movw	r24, r22
      d8:	01 97       	sbiw	r24, 0x01	; 1
      da:	f1 f7       	brne	.-4      	; 0xd8 <ledy+0x10>
      dc:	44 0f       	add	r20, r20
      de:	2f 5f       	subi	r18, 0xFF	; 255
      e0:	3f 4f       	sbci	r19, 0xFF	; 255
      e2:	28 30       	cpi	r18, 0x08	; 8
      e4:	31 05       	cpc	r19, r1
      e6:	a1 f7       	brne	.-24     	; 0xd0 <ledy+0x8>
      e8:	5f 5f       	subi	r21, 0xFF	; 255
      ea:	55 30       	cpi	r21, 0x05	; 5
      ec:	21 f0       	breq	.+8      	; 0xf6 <ledy+0x2e>
      ee:	41 e0       	ldi	r20, 0x01	; 1
      f0:	20 e0       	ldi	r18, 0x00	; 0
      f2:	30 e0       	ldi	r19, 0x00	; 0
      f4:	f4 cf       	rjmp	.-24     	; 0xde <ledy+0x16>
      f6:	08 95       	ret

000000f8 <beep>:
      f8:	ab 9a       	sbi	0x15, 3	; 21
      fa:	2c ec       	ldi	r18, 0xCC	; 204
      fc:	3a e0       	ldi	r19, 0x0A	; 10
      fe:	04 c0       	rjmp	.+8      	; 0x108 <beep+0x10>
     100:	f9 01       	movw	r30, r18
     102:	31 97       	sbiw	r30, 0x01	; 1
     104:	f1 f7       	brne	.-4      	; 0x102 <beep+0xa>
     106:	81 50       	subi	r24, 0x01	; 1
     108:	88 23       	and	r24, r24
     10a:	d1 f7       	brne	.-12     	; 0x100 <beep+0x8>
     10c:	ab 98       	cbi	0x15, 3	; 21
     10e:	08 95       	ret

00000110 <dec2bcd>:
     110:	48 2f       	mov	r20, r24
     112:	6a e0       	ldi	r22, 0x0A	; 10
     114:	0e 94 4d 2b 	call	0x569a	; 0x569a <__udivmodqi4>
     118:	28 2f       	mov	r18, r24
     11a:	30 e0       	ldi	r19, 0x00	; 0
     11c:	84 e0       	ldi	r24, 0x04	; 4
     11e:	22 0f       	add	r18, r18
     120:	33 1f       	adc	r19, r19
     122:	8a 95       	dec	r24
     124:	e1 f7       	brne	.-8      	; 0x11e <dec2bcd+0xe>
     126:	84 2f       	mov	r24, r20
     128:	0e 94 4d 2b 	call	0x569a	; 0x569a <__udivmodqi4>
     12c:	89 2f       	mov	r24, r25
     12e:	82 2b       	or	r24, r18
     130:	08 95       	ret

00000132 <bcd2dec>:
     132:	28 2f       	mov	r18, r24
     134:	22 95       	swap	r18
     136:	2f 70       	andi	r18, 0x0F	; 15
     138:	9a e0       	ldi	r25, 0x0A	; 10
     13a:	29 9f       	mul	r18, r25
     13c:	90 01       	movw	r18, r0
     13e:	11 24       	eor	r1, r1
     140:	8f 70       	andi	r24, 0x0F	; 15
     142:	82 0f       	add	r24, r18
     144:	08 95       	ret

00000146 <__vector_1>:
     146:	1f 92       	push	r1
     148:	0f 92       	push	r0
     14a:	0f b6       	in	r0, 0x3f	; 63
     14c:	0f 92       	push	r0
     14e:	11 24       	eor	r1, r1
     150:	8f 93       	push	r24
     152:	81 e0       	ldi	r24, 0x01	; 1
     154:	80 93 63 06 	sts	0x0663, r24
     158:	8f 91       	pop	r24
     15a:	0f 90       	pop	r0
     15c:	0f be       	out	0x3f, r0	; 63
     15e:	0f 90       	pop	r0
     160:	1f 90       	pop	r1
     162:	18 95       	reti

00000164 <__vector_4>:
     164:	1f 92       	push	r1
     166:	0f 92       	push	r0
     168:	0f b6       	in	r0, 0x3f	; 63
     16a:	0f 92       	push	r0
     16c:	11 24       	eor	r1, r1
     16e:	2f 93       	push	r18
     170:	3f 93       	push	r19
     172:	4f 93       	push	r20
     174:	5f 93       	push	r21
     176:	6f 93       	push	r22
     178:	7f 93       	push	r23
     17a:	8f 93       	push	r24
     17c:	9f 93       	push	r25
     17e:	af 93       	push	r26
     180:	bf 93       	push	r27
     182:	ef 93       	push	r30
     184:	ff 93       	push	r31
     186:	80 91 67 06 	lds	r24, 0x0667
     18a:	90 91 68 06 	lds	r25, 0x0668
     18e:	01 96       	adiw	r24, 0x01	; 1
     190:	90 93 68 06 	sts	0x0668, r25
     194:	80 93 67 06 	sts	0x0667, r24
     198:	0e 94 69 28 	call	0x50d2	; 0x50d2 <disk_timerproc>
     19c:	ff 91       	pop	r31
     19e:	ef 91       	pop	r30
     1a0:	bf 91       	pop	r27
     1a2:	af 91       	pop	r26
     1a4:	9f 91       	pop	r25
     1a6:	8f 91       	pop	r24
     1a8:	7f 91       	pop	r23
     1aa:	6f 91       	pop	r22
     1ac:	5f 91       	pop	r21
     1ae:	4f 91       	pop	r20
     1b0:	3f 91       	pop	r19
     1b2:	2f 91       	pop	r18
     1b4:	0f 90       	pop	r0
     1b6:	0f be       	out	0x3f, r0	; 63
     1b8:	0f 90       	pop	r0
     1ba:	1f 90       	pop	r1
     1bc:	18 95       	reti

000001be <fun>:
     1be:	fc 01       	movw	r30, r24
     1c0:	85 e0       	ldi	r24, 0x05	; 5
     1c2:	90 e0       	ldi	r25, 0x00	; 0
     1c4:	91 83       	std	Z+1, r25	; 0x01
     1c6:	80 83       	st	Z, r24
     1c8:	0e 94 5a 29 	call	0x52b4	; 0x52b4 <lcd_cls>
     1cc:	82 e3       	ldi	r24, 0x32	; 50
     1ce:	90 e0       	ldi	r25, 0x00	; 0
     1d0:	0e 94 cc 29 	call	0x5398	; 0x5398 <lcd_int>
     1d4:	ff cf       	rjmp	.-2      	; 0x1d4 <fun+0x16>

000001d6 <main>:
     1d6:	df 92       	push	r13
     1d8:	ef 92       	push	r14
     1da:	ff 92       	push	r15
     1dc:	0f 93       	push	r16
     1de:	1f 93       	push	r17
     1e0:	df 93       	push	r29
     1e2:	cf 93       	push	r28
     1e4:	00 d0       	rcall	.+0      	; 0x1e6 <main+0x10>
     1e6:	00 d0       	rcall	.+0      	; 0x1e8 <main+0x12>
     1e8:	0f 92       	push	r0
     1ea:	cd b7       	in	r28, 0x3d	; 61
     1ec:	de b7       	in	r29, 0x3e	; 62
     1ee:	d7 9a       	sbi	0x1a, 7	; 26
     1f0:	df 9a       	sbi	0x1b, 7	; 27
     1f2:	a3 9a       	sbi	0x14, 3	; 20
     1f4:	ab 98       	cbi	0x15, 3	; 21
     1f6:	bb 9a       	sbi	0x17, 3	; 23
     1f8:	8f ef       	ldi	r24, 0xFF	; 255
     1fa:	8a bb       	out	0x1a, r24	; 26
     1fc:	8b bb       	out	0x1b, r24	; 27
     1fe:	d8 9a       	sbi	0x1b, 0	; 27
     200:	aa 9a       	sbi	0x15, 2	; 21
     202:	85 b5       	in	r24, 0x25	; 37
     204:	88 60       	ori	r24, 0x08	; 8
     206:	85 bd       	out	0x25, r24	; 37
     208:	8e e4       	ldi	r24, 0x4E	; 78
     20a:	83 bd       	out	0x23, r24	; 35
     20c:	85 b5       	in	r24, 0x25	; 37
     20e:	87 60       	ori	r24, 0x07	; 7
     210:	85 bd       	out	0x25, r24	; 37
     212:	89 b7       	in	r24, 0x39	; 57
     214:	80 68       	ori	r24, 0x80	; 128
     216:	89 bf       	out	0x39, r24	; 57
     218:	85 b7       	in	r24, 0x35	; 53
     21a:	82 60       	ori	r24, 0x02	; 2
     21c:	85 bf       	out	0x35, r24	; 53
     21e:	8b b7       	in	r24, 0x3b	; 59
     220:	80 64       	ori	r24, 0x40	; 64
     222:	8b bf       	out	0x3b, r24	; 59
     224:	92 9a       	sbi	0x12, 2	; 18
     226:	a7 9a       	sbi	0x14, 7	; 20
     228:	af 9a       	sbi	0x15, 7	; 21
     22a:	87 b3       	in	r24, 0x17	; 23
     22c:	80 6b       	ori	r24, 0xB0	; 176
     22e:	87 bb       	out	0x17, r24	; 23
     230:	c4 9a       	sbi	0x18, 4	; 24
     232:	8d b1       	in	r24, 0x0d	; 13
     234:	80 65       	ori	r24, 0x50	; 80
     236:	8d b9       	out	0x0d, r24	; 13
     238:	85 b7       	in	r24, 0x35	; 53
     23a:	82 60       	ori	r24, 0x02	; 2
     23c:	85 bf       	out	0x35, r24	; 53
     23e:	8b b7       	in	r24, 0x3b	; 59
     240:	80 64       	ori	r24, 0x40	; 64
     242:	8b bf       	out	0x3b, r24	; 59
     244:	92 9a       	sbi	0x12, 2	; 18
     246:	0e 94 e8 29 	call	0x53d0	; 0x53d0 <ir_init>
     24a:	0e 94 5e 29 	call	0x52bc	; 0x52bc <lcd_init>
     24e:	80 e8       	ldi	r24, 0x80	; 128
     250:	6c ec       	ldi	r22, 0xCC	; 204
     252:	70 e0       	ldi	r23, 0x00	; 0
     254:	0e 94 1a 29 	call	0x5234	; 0x5234 <lcd_defchar>
     258:	81 e8       	ldi	r24, 0x81	; 129
     25a:	64 ed       	ldi	r22, 0xD4	; 212
     25c:	70 e0       	ldi	r23, 0x00	; 0
     25e:	0e 94 1a 29 	call	0x5234	; 0x5234 <lcd_defchar>
     262:	82 e8       	ldi	r24, 0x82	; 130
     264:	6c eb       	ldi	r22, 0xBC	; 188
     266:	70 e0       	ldi	r23, 0x00	; 0
     268:	0e 94 1a 29 	call	0x5234	; 0x5234 <lcd_defchar>
     26c:	83 e8       	ldi	r24, 0x83	; 131
     26e:	64 ec       	ldi	r22, 0xC4	; 196
     270:	70 e0       	ldi	r23, 0x00	; 0
     272:	0e 94 1a 29 	call	0x5234	; 0x5234 <lcd_defchar>
     276:	78 94       	sei
     278:	82 ea       	ldi	r24, 0xA2	; 162
     27a:	61 e0       	ldi	r22, 0x01	; 1
     27c:	44 e0       	ldi	r20, 0x04	; 4
     27e:	9e 01       	movw	r18, r28
     280:	2f 5f       	subi	r18, 0xFF	; 255
     282:	3f 4f       	sbci	r19, 0xFF	; 255
     284:	0e 94 f4 2a 	call	0x55e8	; 0x55e8 <TWI_read_buf>
     288:	2a 81       	ldd	r18, Y+2	; 0x02
     28a:	82 2f       	mov	r24, r18
     28c:	82 95       	swap	r24
     28e:	8f 70       	andi	r24, 0x0F	; 15
     290:	3a e0       	ldi	r19, 0x0A	; 10
     292:	83 9f       	mul	r24, r19
     294:	c0 01       	movw	r24, r0
     296:	11 24       	eor	r1, r1
     298:	2f 70       	andi	r18, 0x0F	; 15
     29a:	28 0f       	add	r18, r24
     29c:	20 93 64 06 	sts	0x0664, r18
     2a0:	2b 81       	ldd	r18, Y+3	; 0x03
     2a2:	82 2f       	mov	r24, r18
     2a4:	82 95       	swap	r24
     2a6:	8f 70       	andi	r24, 0x0F	; 15
     2a8:	83 9f       	mul	r24, r19
     2aa:	c0 01       	movw	r24, r0
     2ac:	11 24       	eor	r1, r1
     2ae:	2f 70       	andi	r18, 0x0F	; 15
     2b0:	28 0f       	add	r18, r24
     2b2:	20 93 6a 06 	sts	0x066A, r18
     2b6:	2c 81       	ldd	r18, Y+4	; 0x04
     2b8:	82 2f       	mov	r24, r18
     2ba:	82 95       	swap	r24
     2bc:	8f 70       	andi	r24, 0x0F	; 15
     2be:	83 9f       	mul	r24, r19
     2c0:	c0 01       	movw	r24, r0
     2c2:	11 24       	eor	r1, r1
     2c4:	2f 70       	andi	r18, 0x0F	; 15
     2c6:	28 0f       	add	r18, r24
     2c8:	20 93 62 06 	sts	0x0662, r18
     2cc:	c3 9a       	sbi	0x18, 3	; 24
     2ce:	88 e8       	ldi	r24, 0x88	; 136
     2d0:	93 e1       	ldi	r25, 0x13	; 19
     2d2:	24 e1       	ldi	r18, 0x14	; 20
     2d4:	31 e0       	ldi	r19, 0x01	; 1
     2d6:	f9 01       	movw	r30, r18
     2d8:	31 97       	sbiw	r30, 0x01	; 1
     2da:	f1 f7       	brne	.-4      	; 0x2d8 <main+0x102>
     2dc:	01 97       	sbiw	r24, 0x01	; 1
     2de:	d9 f7       	brne	.-10     	; 0x2d6 <main+0x100>
     2e0:	81 e0       	ldi	r24, 0x01	; 1
     2e2:	0e 94 fd 25 	call	0x4bfa	; 0x4bfa <disk_status>
     2e6:	9a 99       	sbic	0x13, 2	; 19
     2e8:	aa c0       	rjmp	.+340    	; 0x43e <main+0x268>
     2ea:	0e 94 5a 29 	call	0x52b4	; 0x52b4 <lcd_cls>
     2ee:	80 e0       	ldi	r24, 0x00	; 0
     2f0:	6d e0       	ldi	r22, 0x0D	; 13
     2f2:	0e 94 52 29 	call	0x52a4	; 0x52a4 <lcd_locate>
     2f6:	80 e6       	ldi	r24, 0x60	; 96
     2f8:	90 e0       	ldi	r25, 0x00	; 0
     2fa:	0e 94 f2 28 	call	0x51e4	; 0x51e4 <lcd_str>
     2fe:	81 e0       	ldi	r24, 0x01	; 1
     300:	60 e0       	ldi	r22, 0x00	; 0
     302:	0e 94 52 29 	call	0x52a4	; 0x52a4 <lcd_locate>
     306:	84 e6       	ldi	r24, 0x64	; 100
     308:	90 e0       	ldi	r25, 0x00	; 0
     30a:	0e 94 f2 28 	call	0x51e4	; 0x51e4 <lcd_str>
     30e:	80 e2       	ldi	r24, 0x20	; 32
     310:	9e e4       	ldi	r25, 0x4E	; 78
     312:	24 e1       	ldi	r18, 0x14	; 20
     314:	31 e0       	ldi	r19, 0x01	; 1
     316:	f9 01       	movw	r30, r18
     318:	31 97       	sbiw	r30, 0x01	; 1
     31a:	f1 f7       	brne	.-4      	; 0x318 <main+0x142>
     31c:	01 97       	sbiw	r24, 0x01	; 1
     31e:	d9 f7       	brne	.-10     	; 0x316 <main+0x140>
     320:	0e 94 5a 29 	call	0x52b4	; 0x52b4 <lcd_cls>
     324:	80 e0       	ldi	r24, 0x00	; 0
     326:	6d e0       	ldi	r22, 0x0D	; 13
     328:	0e 94 52 29 	call	0x52a4	; 0x52a4 <lcd_locate>
     32c:	80 e6       	ldi	r24, 0x60	; 96
     32e:	90 e0       	ldi	r25, 0x00	; 0
     330:	0e 94 f2 28 	call	0x51e4	; 0x51e4 <lcd_str>
     334:	80 e0       	ldi	r24, 0x00	; 0
     336:	0e 94 3b 25 	call	0x4a76	; 0x4a76 <disk_initialize>
     33a:	80 e0       	ldi	r24, 0x00	; 0
     33c:	6e ec       	ldi	r22, 0xCE	; 206
     33e:	71 e0       	ldi	r23, 0x01	; 1
     340:	0e 94 e4 03 	call	0x7c8	; 0x7c8 <f_mount>
     344:	84 e2       	ldi	r24, 0x24	; 36
     346:	94 e0       	ldi	r25, 0x04	; 4
     348:	64 e7       	ldi	r22, 0x74	; 116
     34a:	70 e0       	ldi	r23, 0x00	; 0
     34c:	42 e0       	ldi	r20, 0x02	; 2
     34e:	0e 94 9f 19 	call	0x333e	; 0x333e <f_open>
     352:	40 91 2e 04 	lds	r20, 0x042E
     356:	50 91 2f 04 	lds	r21, 0x042F
     35a:	60 91 30 04 	lds	r22, 0x0430
     35e:	70 91 31 04 	lds	r23, 0x0431
     362:	84 e2       	ldi	r24, 0x24	; 36
     364:	94 e0       	ldi	r25, 0x04	; 4
     366:	0e 94 bb 1b 	call	0x3776	; 0x3776 <f_lseek>
     36a:	8a e7       	ldi	r24, 0x7A	; 122
     36c:	90 e0       	ldi	r25, 0x00	; 0
     36e:	64 e2       	ldi	r22, 0x24	; 36
     370:	74 e0       	ldi	r23, 0x04	; 4
     372:	0e 94 39 20 	call	0x4072	; 0x4072 <f_puts>
     376:	84 e2       	ldi	r24, 0x24	; 36
     378:	94 e0       	ldi	r25, 0x04	; 4
     37a:	0e 94 e5 0c 	call	0x19ca	; 0x19ca <f_close>
     37e:	80 e0       	ldi	r24, 0x00	; 0
     380:	60 e0       	ldi	r22, 0x00	; 0
     382:	70 e0       	ldi	r23, 0x00	; 0
     384:	0e 94 e4 03 	call	0x7c8	; 0x7c8 <f_mount>
     388:	80 e0       	ldi	r24, 0x00	; 0
     38a:	0e 94 3b 25 	call	0x4a76	; 0x4a76 <disk_initialize>
     38e:	18 2f       	mov	r17, r24
     390:	88 23       	and	r24, r24
     392:	a9 f0       	breq	.+42     	; 0x3be <main+0x1e8>
     394:	0e 94 5a 29 	call	0x52b4	; 0x52b4 <lcd_cls>
     398:	8c e7       	ldi	r24, 0x7C	; 124
     39a:	90 e0       	ldi	r25, 0x00	; 0
     39c:	0e 94 f2 28 	call	0x51e4	; 0x51e4 <lcd_str>
     3a0:	81 2f       	mov	r24, r17
     3a2:	90 e0       	ldi	r25, 0x00	; 0
     3a4:	0e 94 cc 29 	call	0x5398	; 0x5398 <lcd_int>
     3a8:	80 e2       	ldi	r24, 0x20	; 32
     3aa:	9e e4       	ldi	r25, 0x4E	; 78
     3ac:	24 e1       	ldi	r18, 0x14	; 20
     3ae:	31 e0       	ldi	r19, 0x01	; 1
     3b0:	f9 01       	movw	r30, r18
     3b2:	31 97       	sbiw	r30, 0x01	; 1
     3b4:	f1 f7       	brne	.-4      	; 0x3b2 <main+0x1dc>
     3b6:	01 97       	sbiw	r24, 0x01	; 1
     3b8:	d9 f7       	brne	.-10     	; 0x3b0 <main+0x1da>
     3ba:	0e 94 5a 29 	call	0x52b4	; 0x52b4 <lcd_cls>
     3be:	80 e0       	ldi	r24, 0x00	; 0
     3c0:	6e ec       	ldi	r22, 0xCE	; 206
     3c2:	71 e0       	ldi	r23, 0x01	; 1
     3c4:	0e 94 e4 03 	call	0x7c8	; 0x7c8 <f_mount>
     3c8:	18 2f       	mov	r17, r24
     3ca:	88 23       	and	r24, r24
     3cc:	a9 f0       	breq	.+42     	; 0x3f8 <main+0x222>
     3ce:	0e 94 5a 29 	call	0x52b4	; 0x52b4 <lcd_cls>
     3d2:	8c e8       	ldi	r24, 0x8C	; 140
     3d4:	90 e0       	ldi	r25, 0x00	; 0
     3d6:	0e 94 f2 28 	call	0x51e4	; 0x51e4 <lcd_str>
     3da:	81 2f       	mov	r24, r17
     3dc:	90 e0       	ldi	r25, 0x00	; 0
     3de:	0e 94 cc 29 	call	0x5398	; 0x5398 <lcd_int>
     3e2:	80 e3       	ldi	r24, 0x30	; 48
     3e4:	95 e7       	ldi	r25, 0x75	; 117
     3e6:	24 e1       	ldi	r18, 0x14	; 20
     3e8:	31 e0       	ldi	r19, 0x01	; 1
     3ea:	f9 01       	movw	r30, r18
     3ec:	31 97       	sbiw	r30, 0x01	; 1
     3ee:	f1 f7       	brne	.-4      	; 0x3ec <main+0x216>
     3f0:	01 97       	sbiw	r24, 0x01	; 1
     3f2:	d9 f7       	brne	.-10     	; 0x3ea <main+0x214>
     3f4:	0e 94 5a 29 	call	0x52b4	; 0x52b4 <lcd_cls>
     3f8:	84 e2       	ldi	r24, 0x24	; 36
     3fa:	94 e0       	ldi	r25, 0x04	; 4
     3fc:	64 e7       	ldi	r22, 0x74	; 116
     3fe:	70 e0       	ldi	r23, 0x00	; 0
     400:	41 e0       	ldi	r20, 0x01	; 1
     402:	0e 94 9f 19 	call	0x333e	; 0x333e <f_open>
     406:	88 23       	and	r24, r24
     408:	91 f4       	brne	.+36     	; 0x42e <main+0x258>
     40a:	84 e4       	ldi	r24, 0x44	; 68
     40c:	96 e0       	ldi	r25, 0x06	; 6
     40e:	60 e1       	ldi	r22, 0x10	; 16
     410:	70 e0       	ldi	r23, 0x00	; 0
     412:	44 e2       	ldi	r20, 0x24	; 36
     414:	54 e0       	ldi	r21, 0x04	; 4
     416:	0e 94 e6 23 	call	0x47cc	; 0x47cc <f_gets>
     41a:	89 2b       	or	r24, r25
     41c:	19 f0       	breq	.+6      	; 0x424 <main+0x24e>
     41e:	81 e0       	ldi	r24, 0x01	; 1
     420:	0e 94 7c 00 	call	0xf8	; 0xf8 <beep>
     424:	84 e2       	ldi	r24, 0x24	; 36
     426:	94 e0       	ldi	r25, 0x04	; 4
     428:	0e 94 e5 0c 	call	0x19ca	; 0x19ca <f_close>
     42c:	03 c0       	rjmp	.+6      	; 0x434 <main+0x25e>
     42e:	82 e0       	ldi	r24, 0x02	; 2
     430:	0e 94 7c 00 	call	0xf8	; 0xf8 <beep>
     434:	80 e0       	ldi	r24, 0x00	; 0
     436:	60 e0       	ldi	r22, 0x00	; 0
     438:	70 e0       	ldi	r23, 0x00	; 0
     43a:	0e 94 e4 03 	call	0x7c8	; 0x7c8 <f_mount>
     43e:	86 e7       	ldi	r24, 0x76	; 118
     440:	90 e0       	ldi	r25, 0x00	; 0
     442:	0e 94 04 29 	call	0x5208	; 0x5208 <lcd_str_P>
     446:	9a 99       	sbic	0x13, 2	; 19
     448:	1b c0       	rjmp	.+54     	; 0x480 <main+0x2aa>
     44a:	81 e0       	ldi	r24, 0x01	; 1
     44c:	61 e0       	ldi	r22, 0x01	; 1
     44e:	0e 94 52 29 	call	0x52a4	; 0x52a4 <lcd_locate>
     452:	8d e9       	ldi	r24, 0x9D	; 157
     454:	90 e0       	ldi	r25, 0x00	; 0
     456:	0e 94 f2 28 	call	0x51e4	; 0x51e4 <lcd_str>
     45a:	84 e4       	ldi	r24, 0x44	; 68
     45c:	96 e0       	ldi	r25, 0x06	; 6
     45e:	0e 94 f2 28 	call	0x51e4	; 0x51e4 <lcd_str>
     462:	8f e9       	ldi	r24, 0x9F	; 159
     464:	90 e0       	ldi	r25, 0x00	; 0
     466:	0e 94 f2 28 	call	0x51e4	; 0x51e4 <lcd_str>
     46a:	80 e2       	ldi	r24, 0x20	; 32
     46c:	9e e4       	ldi	r25, 0x4E	; 78
     46e:	24 e1       	ldi	r18, 0x14	; 20
     470:	31 e0       	ldi	r19, 0x01	; 1
     472:	f9 01       	movw	r30, r18
     474:	31 97       	sbiw	r30, 0x01	; 1
     476:	f1 f7       	brne	.-4      	; 0x474 <main+0x29e>
     478:	01 97       	sbiw	r24, 0x01	; 1
     47a:	d9 f7       	brne	.-10     	; 0x472 <main+0x29c>
     47c:	0e 94 5a 29 	call	0x52b4	; 0x52b4 <lcd_cls>
     480:	1a e0       	ldi	r17, 0x0A	; 10
     482:	0f ef       	ldi	r16, 0xFF	; 255
     484:	24 e1       	ldi	r18, 0x14	; 20
     486:	e2 2e       	mov	r14, r18
     488:	21 e0       	ldi	r18, 0x01	; 1
     48a:	f2 2e       	mov	r15, r18
     48c:	98 e0       	ldi	r25, 0x08	; 8
     48e:	d9 2e       	mov	r13, r25
     490:	80 91 63 06 	lds	r24, 0x0663
     494:	88 23       	and	r24, r24
     496:	09 f4       	brne	.+2      	; 0x49a <main+0x2c4>
     498:	60 c0       	rjmp	.+192    	; 0x55a <main+0x384>
     49a:	82 ea       	ldi	r24, 0xA2	; 162
     49c:	61 e0       	ldi	r22, 0x01	; 1
     49e:	44 e0       	ldi	r20, 0x04	; 4
     4a0:	2c ef       	ldi	r18, 0xFC	; 252
     4a2:	33 e0       	ldi	r19, 0x03	; 3
     4a4:	0e 94 f4 2a 	call	0x55e8	; 0x55e8 <TWI_read_buf>
     4a8:	20 91 fd 03 	lds	r18, 0x03FD
     4ac:	82 2f       	mov	r24, r18
     4ae:	82 95       	swap	r24
     4b0:	8f 70       	andi	r24, 0x0F	; 15
     4b2:	81 9f       	mul	r24, r17
     4b4:	c0 01       	movw	r24, r0
     4b6:	11 24       	eor	r1, r1
     4b8:	2f 70       	andi	r18, 0x0F	; 15
     4ba:	28 0f       	add	r18, r24
     4bc:	20 93 64 06 	sts	0x0664, r18
     4c0:	20 91 fe 03 	lds	r18, 0x03FE
     4c4:	82 2f       	mov	r24, r18
     4c6:	82 95       	swap	r24
     4c8:	8f 70       	andi	r24, 0x0F	; 15
     4ca:	81 9f       	mul	r24, r17
     4cc:	c0 01       	movw	r24, r0
     4ce:	11 24       	eor	r1, r1
     4d0:	2f 70       	andi	r18, 0x0F	; 15
     4d2:	28 0f       	add	r18, r24
     4d4:	20 93 6a 06 	sts	0x066A, r18
     4d8:	20 91 ff 03 	lds	r18, 0x03FF
     4dc:	82 2f       	mov	r24, r18
     4de:	82 95       	swap	r24
     4e0:	8f 70       	andi	r24, 0x0F	; 15
     4e2:	81 9f       	mul	r24, r17
     4e4:	c0 01       	movw	r24, r0
     4e6:	11 24       	eor	r1, r1
     4e8:	2f 70       	andi	r18, 0x0F	; 15
     4ea:	28 0f       	add	r18, r24
     4ec:	20 93 62 06 	sts	0x0662, r18
     4f0:	81 e0       	ldi	r24, 0x01	; 1
     4f2:	60 e0       	ldi	r22, 0x00	; 0
     4f4:	0e 94 52 29 	call	0x52a4	; 0x52a4 <lcd_locate>
     4f8:	80 91 62 06 	lds	r24, 0x0662
     4fc:	8a 30       	cpi	r24, 0x0A	; 10
     4fe:	20 f4       	brcc	.+8      	; 0x508 <main+0x332>
     500:	81 ea       	ldi	r24, 0xA1	; 161
     502:	90 e0       	ldi	r25, 0x00	; 0
     504:	0e 94 f2 28 	call	0x51e4	; 0x51e4 <lcd_str>
     508:	80 91 62 06 	lds	r24, 0x0662
     50c:	90 e0       	ldi	r25, 0x00	; 0
     50e:	0e 94 cc 29 	call	0x5398	; 0x5398 <lcd_int>
     512:	83 ea       	ldi	r24, 0xA3	; 163
     514:	90 e0       	ldi	r25, 0x00	; 0
     516:	0e 94 f2 28 	call	0x51e4	; 0x51e4 <lcd_str>
     51a:	80 91 6a 06 	lds	r24, 0x066A
     51e:	8a 30       	cpi	r24, 0x0A	; 10
     520:	20 f4       	brcc	.+8      	; 0x52a <main+0x354>
     522:	81 ea       	ldi	r24, 0xA1	; 161
     524:	90 e0       	ldi	r25, 0x00	; 0
     526:	0e 94 f2 28 	call	0x51e4	; 0x51e4 <lcd_str>
     52a:	80 91 6a 06 	lds	r24, 0x066A
     52e:	90 e0       	ldi	r25, 0x00	; 0
     530:	0e 94 cc 29 	call	0x5398	; 0x5398 <lcd_int>
     534:	83 ea       	ldi	r24, 0xA3	; 163
     536:	90 e0       	ldi	r25, 0x00	; 0
     538:	0e 94 f2 28 	call	0x51e4	; 0x51e4 <lcd_str>
     53c:	80 91 64 06 	lds	r24, 0x0664
     540:	8a 30       	cpi	r24, 0x0A	; 10
     542:	20 f4       	brcc	.+8      	; 0x54c <main+0x376>
     544:	81 ea       	ldi	r24, 0xA1	; 161
     546:	90 e0       	ldi	r25, 0x00	; 0
     548:	0e 94 f2 28 	call	0x51e4	; 0x51e4 <lcd_str>
     54c:	80 91 64 06 	lds	r24, 0x0664
     550:	90 e0       	ldi	r25, 0x00	; 0
     552:	0e 94 cc 29 	call	0x5398	; 0x5398 <lcd_int>
     556:	10 92 63 06 	sts	0x0663, r1
     55a:	80 91 69 06 	lds	r24, 0x0669
     55e:	88 23       	and	r24, r24
     560:	61 f4       	brne	.+24     	; 0x57a <main+0x3a4>
     562:	9a 99       	sbic	0x13, 2	; 19
     564:	0a c0       	rjmp	.+20     	; 0x57a <main+0x3a4>
     566:	6d e0       	ldi	r22, 0x0D	; 13
     568:	0e 94 52 29 	call	0x52a4	; 0x52a4 <lcd_locate>
     56c:	80 e6       	ldi	r24, 0x60	; 96
     56e:	90 e0       	ldi	r25, 0x00	; 0
     570:	0e 94 f2 28 	call	0x51e4	; 0x51e4 <lcd_str>
     574:	81 e0       	ldi	r24, 0x01	; 1
     576:	80 93 69 06 	sts	0x0669, r24
     57a:	80 91 69 06 	lds	r24, 0x0669
     57e:	88 23       	and	r24, r24
     580:	61 f0       	breq	.+24     	; 0x59a <main+0x3c4>
     582:	9a 9b       	sbis	0x13, 2	; 19
     584:	0a c0       	rjmp	.+20     	; 0x59a <main+0x3c4>
     586:	80 e0       	ldi	r24, 0x00	; 0
     588:	6d e0       	ldi	r22, 0x0D	; 13
     58a:	0e 94 52 29 	call	0x52a4	; 0x52a4 <lcd_locate>
     58e:	85 ea       	ldi	r24, 0xA5	; 165
     590:	90 e0       	ldi	r25, 0x00	; 0
     592:	0e 94 f2 28 	call	0x51e4	; 0x51e4 <lcd_str>
     596:	10 92 69 06 	sts	0x0669, r1
     59a:	80 91 6f 06 	lds	r24, 0x066F
     59e:	88 23       	and	r24, r24
     5a0:	09 f4       	brne	.+2      	; 0x5a4 <main+0x3ce>
     5a2:	76 cf       	rjmp	.-276    	; 0x490 <main+0x2ba>
     5a4:	80 91 6d 06 	lds	r24, 0x066D
     5a8:	87 33       	cpi	r24, 0x37	; 55
     5aa:	59 f4       	brne	.+22     	; 0x5c2 <main+0x3ec>
     5ac:	81 e0       	ldi	r24, 0x01	; 1
     5ae:	61 e0       	ldi	r22, 0x01	; 1
     5b0:	0e 94 52 29 	call	0x52a4	; 0x52a4 <lcd_locate>
     5b4:	85 e6       	ldi	r24, 0x65	; 101
     5b6:	90 e0       	ldi	r25, 0x00	; 0
     5b8:	0e 94 04 29 	call	0x5208	; 0x5208 <lcd_str_P>
     5bc:	84 e1       	ldi	r24, 0x14	; 20
     5be:	0e 94 7c 00 	call	0xf8	; 0xf8 <beep>
     5c2:	80 91 6d 06 	lds	r24, 0x066D
     5c6:	86 33       	cpi	r24, 0x36	; 54
     5c8:	59 f4       	brne	.+22     	; 0x5e0 <main+0x40a>
     5ca:	81 e0       	ldi	r24, 0x01	; 1
     5cc:	61 e0       	ldi	r22, 0x01	; 1
     5ce:	0e 94 52 29 	call	0x52a4	; 0x52a4 <lcd_locate>
     5d2:	84 e5       	ldi	r24, 0x54	; 84
     5d4:	90 e0       	ldi	r25, 0x00	; 0
     5d6:	0e 94 04 29 	call	0x5208	; 0x5208 <lcd_str_P>
     5da:	8e e1       	ldi	r24, 0x1E	; 30
     5dc:	0e 94 7c 00 	call	0xf8	; 0xf8 <beep>
     5e0:	80 91 6d 06 	lds	r24, 0x066D
     5e4:	84 32       	cpi	r24, 0x24	; 36
     5e6:	51 f4       	brne	.+20     	; 0x5fc <main+0x426>
     5e8:	85 e0       	ldi	r24, 0x05	; 5
     5ea:	0e 94 7c 00 	call	0xf8	; 0xf8 <beep>
     5ee:	8b b3       	in	r24, 0x1b	; 27
     5f0:	91 e0       	ldi	r25, 0x01	; 1
     5f2:	89 27       	eor	r24, r25
     5f4:	8b bb       	out	0x1b, r24	; 27
     5f6:	88 b3       	in	r24, 0x18	; 24
     5f8:	8d 25       	eor	r24, r13
     5fa:	88 bb       	out	0x18, r24	; 24
     5fc:	80 91 6d 06 	lds	r24, 0x066D
     600:	81 30       	cpi	r24, 0x01	; 1
     602:	c9 f4       	brne	.+50     	; 0x636 <main+0x460>
     604:	0e 94 5a 29 	call	0x52b4	; 0x52b4 <lcd_cls>
     608:	89 ea       	ldi	r24, 0xA9	; 169
     60a:	90 e0       	ldi	r25, 0x00	; 0
     60c:	0e 94 f2 28 	call	0x51e4	; 0x51e4 <lcd_str>
     610:	82 e0       	ldi	r24, 0x02	; 2
     612:	61 e0       	ldi	r22, 0x01	; 1
     614:	0e 94 52 29 	call	0x52a4	; 0x52a4 <lcd_locate>
     618:	8d ea       	ldi	r24, 0xAD	; 173
     61a:	90 e0       	ldi	r25, 0x00	; 0
     61c:	0e 94 f2 28 	call	0x51e4	; 0x51e4 <lcd_str>
     620:	0e 94 64 00 	call	0xc8	; 0xc8 <ledy>
     624:	80 e2       	ldi	r24, 0x20	; 32
     626:	9e e4       	ldi	r25, 0x4E	; 78
     628:	f7 01       	movw	r30, r14
     62a:	31 97       	sbiw	r30, 0x01	; 1
     62c:	f1 f7       	brne	.-4      	; 0x62a <main+0x454>
     62e:	01 97       	sbiw	r24, 0x01	; 1
     630:	d9 f7       	brne	.-10     	; 0x628 <main+0x452>
     632:	0e 94 5a 29 	call	0x52b4	; 0x52b4 <lcd_cls>
     636:	00 93 6d 06 	sts	0x066D, r16
     63a:	00 93 6c 06 	sts	0x066C, r16
     63e:	10 92 6f 06 	sts	0x066F, r1
     642:	26 cf       	rjmp	.-436    	; 0x490 <main+0x2ba>

00000644 <mem_cpy>:
     644:	0f 93       	push	r16
     646:	1f 93       	push	r17
     648:	cf 93       	push	r28
     64a:	df 93       	push	r29
     64c:	8c 01       	movw	r16, r24
     64e:	eb 01       	movw	r28, r22
     650:	ba 01       	movw	r22, r20
     652:	20 e0       	ldi	r18, 0x00	; 0
     654:	30 e0       	ldi	r19, 0x00	; 0
     656:	0e c0       	rjmp	.+28     	; 0x674 <mem_cpy+0x30>
     658:	f8 01       	movw	r30, r16
     65a:	e2 0f       	add	r30, r18
     65c:	f3 1f       	adc	r31, r19
     65e:	de 01       	movw	r26, r28
     660:	a2 0f       	add	r26, r18
     662:	b3 1f       	adc	r27, r19
     664:	8d 91       	ld	r24, X+
     666:	9c 91       	ld	r25, X
     668:	91 83       	std	Z+1, r25	; 0x01
     66a:	80 83       	st	Z, r24
     66c:	42 50       	subi	r20, 0x02	; 2
     66e:	50 40       	sbci	r21, 0x00	; 0
     670:	2e 5f       	subi	r18, 0xFE	; 254
     672:	3f 4f       	sbci	r19, 0xFF	; 255
     674:	42 30       	cpi	r20, 0x02	; 2
     676:	51 05       	cpc	r21, r1
     678:	78 f7       	brcc	.-34     	; 0x658 <mem_cpy+0x14>
     67a:	cb 01       	movw	r24, r22
     67c:	8e 7f       	andi	r24, 0xFE	; 254
     67e:	de 01       	movw	r26, r28
     680:	a8 0f       	add	r26, r24
     682:	b9 1f       	adc	r27, r25
     684:	f8 01       	movw	r30, r16
     686:	e8 0f       	add	r30, r24
     688:	f9 1f       	adc	r31, r25
     68a:	60 ff       	sbrs	r22, 0
     68c:	02 c0       	rjmp	.+4      	; 0x692 <mem_cpy+0x4e>
     68e:	8c 91       	ld	r24, X
     690:	80 83       	st	Z, r24
     692:	df 91       	pop	r29
     694:	cf 91       	pop	r28
     696:	1f 91       	pop	r17
     698:	0f 91       	pop	r16
     69a:	08 95       	ret

0000069c <clust2sect>:
     69c:	ef 92       	push	r14
     69e:	ff 92       	push	r15
     6a0:	0f 93       	push	r16
     6a2:	1f 93       	push	r17
     6a4:	cf 93       	push	r28
     6a6:	df 93       	push	r29
     6a8:	ec 01       	movw	r28, r24
     6aa:	7a 01       	movw	r14, r20
     6ac:	8b 01       	movw	r16, r22
     6ae:	8e ef       	ldi	r24, 0xFE	; 254
     6b0:	9f ef       	ldi	r25, 0xFF	; 255
     6b2:	af ef       	ldi	r26, 0xFF	; 255
     6b4:	bf ef       	ldi	r27, 0xFF	; 255
     6b6:	e8 0e       	add	r14, r24
     6b8:	f9 1e       	adc	r15, r25
     6ba:	0a 1f       	adc	r16, r26
     6bc:	1b 1f       	adc	r17, r27
     6be:	8e 89       	ldd	r24, Y+22	; 0x16
     6c0:	9f 89       	ldd	r25, Y+23	; 0x17
     6c2:	a8 8d       	ldd	r26, Y+24	; 0x18
     6c4:	b9 8d       	ldd	r27, Y+25	; 0x19
     6c6:	02 97       	sbiw	r24, 0x02	; 2
     6c8:	a1 09       	sbc	r26, r1
     6ca:	b1 09       	sbc	r27, r1
     6cc:	e8 16       	cp	r14, r24
     6ce:	f9 06       	cpc	r15, r25
     6d0:	0a 07       	cpc	r16, r26
     6d2:	1b 07       	cpc	r17, r27
     6d4:	28 f0       	brcs	.+10     	; 0x6e0 <clust2sect+0x44>
     6d6:	20 e0       	ldi	r18, 0x00	; 0
     6d8:	30 e0       	ldi	r19, 0x00	; 0
     6da:	40 e0       	ldi	r20, 0x00	; 0
     6dc:	50 e0       	ldi	r21, 0x00	; 0
     6de:	12 c0       	rjmp	.+36     	; 0x704 <clust2sect+0x68>
     6e0:	2a 81       	ldd	r18, Y+2	; 0x02
     6e2:	30 e0       	ldi	r19, 0x00	; 0
     6e4:	40 e0       	ldi	r20, 0x00	; 0
     6e6:	50 e0       	ldi	r21, 0x00	; 0
     6e8:	c8 01       	movw	r24, r16
     6ea:	b7 01       	movw	r22, r14
     6ec:	0e 94 2e 2b 	call	0x565c	; 0x565c <__mulsi3>
     6f0:	9b 01       	movw	r18, r22
     6f2:	ac 01       	movw	r20, r24
     6f4:	8e a1       	ldd	r24, Y+38	; 0x26
     6f6:	9f a1       	ldd	r25, Y+39	; 0x27
     6f8:	a8 a5       	ldd	r26, Y+40	; 0x28
     6fa:	b9 a5       	ldd	r27, Y+41	; 0x29
     6fc:	28 0f       	add	r18, r24
     6fe:	39 1f       	adc	r19, r25
     700:	4a 1f       	adc	r20, r26
     702:	5b 1f       	adc	r21, r27
     704:	b9 01       	movw	r22, r18
     706:	ca 01       	movw	r24, r20
     708:	df 91       	pop	r29
     70a:	cf 91       	pop	r28
     70c:	1f 91       	pop	r17
     70e:	0f 91       	pop	r16
     710:	ff 90       	pop	r15
     712:	ef 90       	pop	r14
     714:	08 95       	ret

00000716 <get_fileinfo>:
     716:	cf 93       	push	r28
     718:	df 93       	push	r29
     71a:	fc 01       	movw	r30, r24
     71c:	ab 01       	movw	r20, r22
     71e:	eb 01       	movw	r28, r22
     720:	29 96       	adiw	r28, 0x09	; 9
     722:	86 85       	ldd	r24, Z+14	; 0x0e
     724:	97 85       	ldd	r25, Z+15	; 0x0f
     726:	a0 89       	ldd	r26, Z+16	; 0x10
     728:	b1 89       	ldd	r27, Z+17	; 0x11
     72a:	00 97       	sbiw	r24, 0x00	; 0
     72c:	a1 05       	cpc	r26, r1
     72e:	b1 05       	cpc	r27, r1
     730:	09 f4       	brne	.+2      	; 0x734 <get_fileinfo+0x1e>
     732:	46 c0       	rjmp	.+140    	; 0x7c0 <get_fileinfo+0xaa>
     734:	22 89       	ldd	r18, Z+18	; 0x12
     736:	33 89       	ldd	r19, Z+19	; 0x13
     738:	80 e0       	ldi	r24, 0x00	; 0
     73a:	90 e0       	ldi	r25, 0x00	; 0
     73c:	f9 01       	movw	r30, r18
     73e:	e8 0f       	add	r30, r24
     740:	f9 1f       	adc	r31, r25
     742:	e0 81       	ld	r30, Z
     744:	e0 32       	cpi	r30, 0x20	; 32
     746:	41 f0       	breq	.+16     	; 0x758 <get_fileinfo+0x42>
     748:	e5 30       	cpi	r30, 0x05	; 5
     74a:	09 f4       	brne	.+2      	; 0x74e <get_fileinfo+0x38>
     74c:	e5 ee       	ldi	r30, 0xE5	; 229
     74e:	e9 93       	st	Y+, r30
     750:	01 96       	adiw	r24, 0x01	; 1
     752:	88 30       	cpi	r24, 0x08	; 8
     754:	91 05       	cpc	r25, r1
     756:	91 f7       	brne	.-28     	; 0x73c <get_fileinfo+0x26>
     758:	d9 01       	movw	r26, r18
     75a:	18 96       	adiw	r26, 0x08	; 8
     75c:	8c 91       	ld	r24, X
     75e:	80 32       	cpi	r24, 0x20	; 32
     760:	11 f4       	brne	.+4      	; 0x766 <get_fileinfo+0x50>
     762:	fe 01       	movw	r30, r28
     764:	11 c0       	rjmp	.+34     	; 0x788 <get_fileinfo+0x72>
     766:	fe 01       	movw	r30, r28
     768:	8e e2       	ldi	r24, 0x2E	; 46
     76a:	81 93       	st	Z+, r24
     76c:	d9 01       	movw	r26, r18
     76e:	be 01       	movw	r22, r28
     770:	6c 5f       	subi	r22, 0xFC	; 252
     772:	7f 4f       	sbci	r23, 0xFF	; 255
     774:	18 96       	adiw	r26, 0x08	; 8
     776:	8c 91       	ld	r24, X
     778:	18 97       	sbiw	r26, 0x08	; 8
     77a:	80 32       	cpi	r24, 0x20	; 32
     77c:	29 f0       	breq	.+10     	; 0x788 <get_fileinfo+0x72>
     77e:	81 93       	st	Z+, r24
     780:	11 96       	adiw	r26, 0x01	; 1
     782:	e6 17       	cp	r30, r22
     784:	f7 07       	cpc	r31, r23
     786:	b1 f7       	brne	.-20     	; 0x774 <get_fileinfo+0x5e>
     788:	e9 01       	movw	r28, r18
     78a:	8b 85       	ldd	r24, Y+11	; 0x0b
     78c:	da 01       	movw	r26, r20
     78e:	18 96       	adiw	r26, 0x08	; 8
     790:	8c 93       	st	X, r24
     792:	8c 8d       	ldd	r24, Y+28	; 0x1c
     794:	9d 8d       	ldd	r25, Y+29	; 0x1d
     796:	ae 8d       	ldd	r26, Y+30	; 0x1e
     798:	bf 8d       	ldd	r27, Y+31	; 0x1f
     79a:	ea 01       	movw	r28, r20
     79c:	88 83       	st	Y, r24
     79e:	99 83       	std	Y+1, r25	; 0x01
     7a0:	aa 83       	std	Y+2, r26	; 0x02
     7a2:	bb 83       	std	Y+3, r27	; 0x03
     7a4:	d9 01       	movw	r26, r18
     7a6:	58 96       	adiw	r26, 0x18	; 24
     7a8:	8d 91       	ld	r24, X+
     7aa:	9c 91       	ld	r25, X
     7ac:	59 97       	sbiw	r26, 0x19	; 25
     7ae:	9d 83       	std	Y+5, r25	; 0x05
     7b0:	8c 83       	std	Y+4, r24	; 0x04
     7b2:	56 96       	adiw	r26, 0x16	; 22
     7b4:	8d 91       	ld	r24, X+
     7b6:	9c 91       	ld	r25, X
     7b8:	57 97       	sbiw	r26, 0x17	; 23
     7ba:	9f 83       	std	Y+7, r25	; 0x07
     7bc:	8e 83       	std	Y+6, r24	; 0x06
     7be:	ef 01       	movw	r28, r30
     7c0:	18 82       	st	Y, r1
     7c2:	df 91       	pop	r29
     7c4:	cf 91       	pop	r28
     7c6:	08 95       	ret

000007c8 <f_mount>:
     7c8:	db 01       	movw	r26, r22
     7ca:	88 23       	and	r24, r24
     7cc:	11 f0       	breq	.+4      	; 0x7d2 <f_mount+0xa>
     7ce:	8b e0       	ldi	r24, 0x0B	; 11
     7d0:	08 95       	ret
     7d2:	e0 91 54 06 	lds	r30, 0x0654
     7d6:	f0 91 55 06 	lds	r31, 0x0655
     7da:	30 97       	sbiw	r30, 0x00	; 0
     7dc:	09 f0       	breq	.+2      	; 0x7e0 <f_mount+0x18>
     7de:	10 82       	st	Z, r1
     7e0:	10 97       	sbiw	r26, 0x00	; 0
     7e2:	09 f0       	breq	.+2      	; 0x7e6 <f_mount+0x1e>
     7e4:	1c 92       	st	X, r1
     7e6:	b0 93 55 06 	sts	0x0655, r27
     7ea:	a0 93 54 06 	sts	0x0654, r26
     7ee:	80 e0       	ldi	r24, 0x00	; 0
     7f0:	08 95       	ret

000007f2 <f_mkfs>:
     7f2:	2f 92       	push	r2
     7f4:	3f 92       	push	r3
     7f6:	4f 92       	push	r4
     7f8:	5f 92       	push	r5
     7fa:	6f 92       	push	r6
     7fc:	7f 92       	push	r7
     7fe:	8f 92       	push	r8
     800:	9f 92       	push	r9
     802:	af 92       	push	r10
     804:	bf 92       	push	r11
     806:	cf 92       	push	r12
     808:	df 92       	push	r13
     80a:	ef 92       	push	r14
     80c:	ff 92       	push	r15
     80e:	0f 93       	push	r16
     810:	1f 93       	push	r17
     812:	df 93       	push	r29
     814:	cf 93       	push	r28
     816:	cd b7       	in	r28, 0x3d	; 61
     818:	de b7       	in	r29, 0x3e	; 62
     81a:	a8 97       	sbiw	r28, 0x28	; 40
     81c:	0f b6       	in	r0, 0x3f	; 63
     81e:	f8 94       	cli
     820:	de bf       	out	0x3e, r29	; 62
     822:	0f be       	out	0x3f, r0	; 63
     824:	cd bf       	out	0x3d, r28	; 61
     826:	6c a3       	std	Y+36, r22	; 0x24
     828:	8a 01       	movw	r16, r20
     82a:	88 23       	and	r24, r24
     82c:	11 f0       	breq	.+4      	; 0x832 <f_mkfs+0x40>
     82e:	8b e0       	ldi	r24, 0x0B	; 11
     830:	4d c4       	rjmp	.+2202   	; 0x10cc <__stack+0x86d>
     832:	60 90 54 06 	lds	r6, 0x0654
     836:	70 90 55 06 	lds	r7, 0x0655
     83a:	61 14       	cp	r6, r1
     83c:	71 04       	cpc	r7, r1
     83e:	11 f4       	brne	.+4      	; 0x844 <f_mkfs+0x52>
     840:	8c e0       	ldi	r24, 0x0C	; 12
     842:	44 c4       	rjmp	.+2184   	; 0x10cc <__stack+0x86d>
     844:	d3 01       	movw	r26, r6
     846:	1c 92       	st	X, r1
     848:	80 e0       	ldi	r24, 0x00	; 0
     84a:	0e 94 3b 25 	call	0x4a76	; 0x4a76 <disk_initialize>
     84e:	80 ff       	sbrs	r24, 0
     850:	02 c0       	rjmp	.+4      	; 0x856 <f_mkfs+0x64>
     852:	83 e0       	ldi	r24, 0x03	; 3
     854:	3b c4       	rjmp	.+2166   	; 0x10cc <__stack+0x86d>
     856:	82 ff       	sbrs	r24, 2
     858:	02 c0       	rjmp	.+4      	; 0x85e <f_mkfs+0x6c>
     85a:	8a e0       	ldi	r24, 0x0A	; 10
     85c:	37 c4       	rjmp	.+2158   	; 0x10cc <__stack+0x86d>
     85e:	80 e0       	ldi	r24, 0x00	; 0
     860:	61 e0       	ldi	r22, 0x01	; 1
     862:	ae 01       	movw	r20, r28
     864:	4b 5f       	subi	r20, 0xFB	; 251
     866:	5f 4f       	sbci	r21, 0xFF	; 255
     868:	0e 94 cc 26 	call	0x4d98	; 0x4d98 <disk_ioctl>
     86c:	88 23       	and	r24, r24
     86e:	09 f0       	breq	.+2      	; 0x872 <__stack+0x13>
     870:	2a c4       	rjmp	.+2132   	; 0x10c6 <__stack+0x867>
     872:	6d 81       	ldd	r22, Y+5	; 0x05
     874:	7e 81       	ldd	r23, Y+6	; 0x06
     876:	8f 81       	ldd	r24, Y+7	; 0x07
     878:	98 85       	ldd	r25, Y+8	; 0x08
     87a:	60 38       	cpi	r22, 0x80	; 128
     87c:	71 05       	cpc	r23, r1
     87e:	81 05       	cpc	r24, r1
     880:	91 05       	cpc	r25, r1
     882:	08 f4       	brcc	.+2      	; 0x886 <__stack+0x27>
     884:	20 c4       	rjmp	.+2112   	; 0x10c6 <__stack+0x867>
     886:	bc a1       	ldd	r27, Y+36	; 0x24
     888:	bb 23       	and	r27, r27
     88a:	51 f4       	brne	.+20     	; 0x8a0 <__stack+0x41>
     88c:	2f e3       	ldi	r18, 0x3F	; 63
     88e:	c2 2e       	mov	r12, r18
     890:	d1 2c       	mov	r13, r1
     892:	e1 2c       	mov	r14, r1
     894:	f1 2c       	mov	r15, r1
     896:	cd 8a       	std	Y+21, r12	; 0x15
     898:	de 8a       	std	Y+22, r13	; 0x16
     89a:	ef 8a       	std	Y+23, r14	; 0x17
     89c:	f8 8e       	std	Y+24, r15	; 0x18
     89e:	04 c0       	rjmp	.+8      	; 0x8a8 <__stack+0x49>
     8a0:	1d 8a       	std	Y+21, r1	; 0x15
     8a2:	1e 8a       	std	Y+22, r1	; 0x16
     8a4:	1f 8a       	std	Y+23, r1	; 0x17
     8a6:	18 8e       	std	Y+24, r1	; 0x18
     8a8:	9b 01       	movw	r18, r22
     8aa:	ac 01       	movw	r20, r24
     8ac:	cd 88       	ldd	r12, Y+21	; 0x15
     8ae:	de 88       	ldd	r13, Y+22	; 0x16
     8b0:	ef 88       	ldd	r14, Y+23	; 0x17
     8b2:	f8 8c       	ldd	r15, Y+24	; 0x18
     8b4:	2c 19       	sub	r18, r12
     8b6:	3d 09       	sbc	r19, r13
     8b8:	4e 09       	sbc	r20, r14
     8ba:	5f 09       	sbc	r21, r15
     8bc:	28 a3       	std	Y+32, r18	; 0x20
     8be:	39 a3       	std	Y+33, r19	; 0x21
     8c0:	4a a3       	std	Y+34, r20	; 0x22
     8c2:	5b a3       	std	Y+35, r21	; 0x23
     8c4:	c8 01       	movw	r24, r16
     8c6:	01 97       	sbiw	r24, 0x01	; 1
     8c8:	80 23       	and	r24, r16
     8ca:	91 23       	and	r25, r17
     8cc:	89 2b       	or	r24, r25
     8ce:	19 f4       	brne	.+6      	; 0x8d6 <__stack+0x77>
     8d0:	01 15       	cp	r16, r1
     8d2:	11 05       	cpc	r17, r1
     8d4:	19 f5       	brne	.+70     	; 0x91c <__stack+0xbd>
     8d6:	68 a1       	ldd	r22, Y+32	; 0x20
     8d8:	79 a1       	ldd	r23, Y+33	; 0x21
     8da:	8a a1       	ldd	r24, Y+34	; 0x22
     8dc:	9b a1       	ldd	r25, Y+35	; 0x23
     8de:	20 ed       	ldi	r18, 0xD0	; 208
     8e0:	37 e0       	ldi	r19, 0x07	; 7
     8e2:	40 e0       	ldi	r20, 0x00	; 0
     8e4:	50 e0       	ldi	r21, 0x00	; 0
     8e6:	0e 94 59 2b 	call	0x56b2	; 0x56b2 <__udivmodsi4>
     8ea:	79 01       	movw	r14, r18
     8ec:	8a 01       	movw	r16, r20
     8ee:	27 e3       	ldi	r18, 0x37	; 55
     8f0:	31 e0       	ldi	r19, 0x01	; 1
     8f2:	e0 e0       	ldi	r30, 0x00	; 0
     8f4:	f0 e0       	ldi	r31, 0x00	; 0
     8f6:	01 c0       	rjmp	.+2      	; 0x8fa <__stack+0x9b>
     8f8:	31 96       	adiw	r30, 0x01	; 1
     8fa:	d9 01       	movw	r26, r18
     8fc:	8d 91       	ld	r24, X+
     8fe:	9d 91       	ld	r25, X+
     900:	9d 01       	movw	r18, r26
     902:	a0 e0       	ldi	r26, 0x00	; 0
     904:	b0 e0       	ldi	r27, 0x00	; 0
     906:	e8 16       	cp	r14, r24
     908:	f9 06       	cpc	r15, r25
     90a:	0a 07       	cpc	r16, r26
     90c:	1b 07       	cpc	r17, r27
     90e:	a0 f3       	brcs	.-24     	; 0x8f8 <__stack+0x99>
     910:	ee 0f       	add	r30, r30
     912:	ff 1f       	adc	r31, r31
     914:	ef 5d       	subi	r30, 0xDF	; 223
     916:	fe 4f       	sbci	r31, 0xFE	; 254
     918:	00 81       	ld	r16, Z
     91a:	11 81       	ldd	r17, Z+1	; 0x01
     91c:	48 01       	movw	r8, r16
     91e:	89 2c       	mov	r8, r9
     920:	99 24       	eor	r9, r9
     922:	86 94       	lsr	r8
     924:	81 14       	cp	r8, r1
     926:	91 04       	cpc	r9, r1
     928:	19 f4       	brne	.+6      	; 0x930 <__stack+0xd1>
     92a:	f1 e0       	ldi	r31, 0x01	; 1
     92c:	8f 2e       	mov	r8, r31
     92e:	91 2c       	mov	r9, r1
     930:	64 01       	movw	r12, r8
     932:	ee 24       	eor	r14, r14
     934:	ff 24       	eor	r15, r15
     936:	cc 8e       	std	Y+28, r12	; 0x1c
     938:	dd 8e       	std	Y+29, r13	; 0x1d
     93a:	ee 8e       	std	Y+30, r14	; 0x1e
     93c:	ff 8e       	std	Y+31, r15	; 0x1f
     93e:	68 a1       	ldd	r22, Y+32	; 0x20
     940:	79 a1       	ldd	r23, Y+33	; 0x21
     942:	8a a1       	ldd	r24, Y+34	; 0x22
     944:	9b a1       	ldd	r25, Y+35	; 0x23
     946:	a7 01       	movw	r20, r14
     948:	96 01       	movw	r18, r12
     94a:	0e 94 59 2b 	call	0x56b2	; 0x56b2 <__udivmodsi4>
     94e:	c9 01       	movw	r24, r18
     950:	da 01       	movw	r26, r20
     952:	86 3f       	cpi	r24, 0xF6	; 246
     954:	2f e0       	ldi	r18, 0x0F	; 15
     956:	92 07       	cpc	r25, r18
     958:	20 e0       	ldi	r18, 0x00	; 0
     95a:	a2 07       	cpc	r26, r18
     95c:	20 e0       	ldi	r18, 0x00	; 0
     95e:	b2 07       	cpc	r27, r18
     960:	50 f0       	brcs	.+20     	; 0x976 <__stack+0x117>
     962:	86 3f       	cpi	r24, 0xF6	; 246
     964:	3f ef       	ldi	r19, 0xFF	; 255
     966:	93 07       	cpc	r25, r19
     968:	30 e0       	ldi	r19, 0x00	; 0
     96a:	a3 07       	cpc	r26, r19
     96c:	30 e0       	ldi	r19, 0x00	; 0
     96e:	b3 07       	cpc	r27, r19
     970:	08 f0       	brcs	.+2      	; 0x974 <__stack+0x115>
     972:	c5 c3       	rjmp	.+1930   	; 0x10fe <__stack+0x89f>
     974:	ed c3       	rjmp	.+2010   	; 0x1150 <__stack+0x8f1>
     976:	9c 01       	movw	r18, r24
     978:	ad 01       	movw	r20, r26
     97a:	22 0f       	add	r18, r18
     97c:	33 1f       	adc	r19, r19
     97e:	44 1f       	adc	r20, r20
     980:	55 1f       	adc	r21, r21
     982:	28 0f       	add	r18, r24
     984:	39 1f       	adc	r19, r25
     986:	4a 1f       	adc	r20, r26
     988:	5b 1f       	adc	r21, r27
     98a:	2f 5f       	subi	r18, 0xFF	; 255
     98c:	3f 4f       	sbci	r19, 0xFF	; 255
     98e:	4f 4f       	sbci	r20, 0xFF	; 255
     990:	5f 4f       	sbci	r21, 0xFF	; 255
     992:	56 95       	lsr	r21
     994:	47 95       	ror	r20
     996:	37 95       	ror	r19
     998:	27 95       	ror	r18
     99a:	2d 5f       	subi	r18, 0xFD	; 253
     99c:	3f 4f       	sbci	r19, 0xFF	; 255
     99e:	4f 4f       	sbci	r20, 0xFF	; 255
     9a0:	5f 4f       	sbci	r21, 0xFF	; 255
     9a2:	81 e0       	ldi	r24, 0x01	; 1
     9a4:	89 8f       	std	Y+25, r24	; 0x19
     9a6:	6f ef       	ldi	r22, 0xFF	; 255
     9a8:	26 2e       	mov	r2, r22
     9aa:	61 e0       	ldi	r22, 0x01	; 1
     9ac:	36 2e       	mov	r3, r22
     9ae:	41 2c       	mov	r4, r1
     9b0:	51 2c       	mov	r5, r1
     9b2:	22 0e       	add	r2, r18
     9b4:	33 1e       	adc	r3, r19
     9b6:	44 1e       	adc	r4, r20
     9b8:	55 1e       	adc	r5, r21
     9ba:	59 e0       	ldi	r21, 0x09	; 9
     9bc:	56 94       	lsr	r5
     9be:	47 94       	ror	r4
     9c0:	37 94       	ror	r3
     9c2:	27 94       	ror	r2
     9c4:	5a 95       	dec	r21
     9c6:	d1 f7       	brne	.-12     	; 0x9bc <__stack+0x15d>
     9c8:	41 e0       	ldi	r20, 0x01	; 1
     9ca:	c4 2e       	mov	r12, r20
     9cc:	d1 2c       	mov	r13, r1
     9ce:	e1 2c       	mov	r14, r1
     9d0:	f1 2c       	mov	r15, r1
     9d2:	cd 86       	std	Y+13, r12	; 0x0d
     9d4:	de 86       	std	Y+14, r13	; 0x0e
     9d6:	ef 86       	std	Y+15, r14	; 0x0f
     9d8:	f8 8a       	std	Y+16, r15	; 0x10
     9da:	20 e2       	ldi	r18, 0x20	; 32
     9dc:	30 e0       	ldi	r19, 0x00	; 0
     9de:	40 e0       	ldi	r20, 0x00	; 0
     9e0:	50 e0       	ldi	r21, 0x00	; 0
     9e2:	29 87       	std	Y+9, r18	; 0x09
     9e4:	3a 87       	std	Y+10, r19	; 0x0a
     9e6:	4b 87       	std	Y+11, r20	; 0x0b
     9e8:	5c 87       	std	Y+12, r21	; 0x0c
     9ea:	8d 85       	ldd	r24, Y+13	; 0x0d
     9ec:	9e 85       	ldd	r25, Y+14	; 0x0e
     9ee:	af 85       	ldd	r26, Y+15	; 0x0f
     9f0:	b8 89       	ldd	r27, Y+16	; 0x10
     9f2:	cd 88       	ldd	r12, Y+21	; 0x15
     9f4:	de 88       	ldd	r13, Y+22	; 0x16
     9f6:	ef 88       	ldd	r14, Y+23	; 0x17
     9f8:	f8 8c       	ldd	r15, Y+24	; 0x18
     9fa:	8c 0d       	add	r24, r12
     9fc:	9d 1d       	adc	r25, r13
     9fe:	ae 1d       	adc	r26, r14
     a00:	bf 1d       	adc	r27, r15
     a02:	89 8b       	std	Y+17, r24	; 0x11
     a04:	9a 8b       	std	Y+18, r25	; 0x12
     a06:	ab 8b       	std	Y+19, r26	; 0x13
     a08:	bc 8b       	std	Y+20, r27	; 0x14
     a0a:	a9 84       	ldd	r10, Y+9	; 0x09
     a0c:	ba 84       	ldd	r11, Y+10	; 0x0a
     a0e:	cb 84       	ldd	r12, Y+11	; 0x0b
     a10:	dc 84       	ldd	r13, Y+12	; 0x0c
     a12:	a2 0c       	add	r10, r2
     a14:	b3 1c       	adc	r11, r3
     a16:	c4 1c       	adc	r12, r4
     a18:	d5 1c       	adc	r13, r5
     a1a:	a8 0e       	add	r10, r24
     a1c:	b9 1e       	adc	r11, r25
     a1e:	ca 1e       	adc	r12, r26
     a20:	db 1e       	adc	r13, r27
     a22:	8c 8d       	ldd	r24, Y+28	; 0x1c
     a24:	9d 8d       	ldd	r25, Y+29	; 0x1d
     a26:	ae 8d       	ldd	r26, Y+30	; 0x1e
     a28:	bf 8d       	ldd	r27, Y+31	; 0x1f
     a2a:	8a 0d       	add	r24, r10
     a2c:	9b 1d       	adc	r25, r11
     a2e:	ac 1d       	adc	r26, r12
     a30:	bd 1d       	adc	r27, r13
     a32:	28 a1       	ldd	r18, Y+32	; 0x20
     a34:	39 a1       	ldd	r19, Y+33	; 0x21
     a36:	4a a1       	ldd	r20, Y+34	; 0x22
     a38:	5b a1       	ldd	r21, Y+35	; 0x23
     a3a:	28 17       	cp	r18, r24
     a3c:	39 07       	cpc	r19, r25
     a3e:	4a 07       	cpc	r20, r26
     a40:	5b 07       	cpc	r21, r27
     a42:	08 f4       	brcc	.+2      	; 0xa46 <__stack+0x1e7>
     a44:	42 c3       	rjmp	.+1668   	; 0x10ca <__stack+0x86b>
     a46:	2d 83       	std	Y+5, r18	; 0x05
     a48:	3e 83       	std	Y+6, r19	; 0x06
     a4a:	4f 83       	std	Y+7, r20	; 0x07
     a4c:	58 87       	std	Y+8, r21	; 0x08
     a4e:	80 e0       	ldi	r24, 0x00	; 0
     a50:	63 e0       	ldi	r22, 0x03	; 3
     a52:	ae 01       	movw	r20, r28
     a54:	4f 5f       	subi	r20, 0xFF	; 255
     a56:	5f 4f       	sbci	r21, 0xFF	; 255
     a58:	0e 94 cc 26 	call	0x4d98	; 0x4d98 <disk_ioctl>
     a5c:	88 23       	and	r24, r24
     a5e:	69 f4       	brne	.+26     	; 0xa7a <__stack+0x21b>
     a60:	89 81       	ldd	r24, Y+1	; 0x01
     a62:	9a 81       	ldd	r25, Y+2	; 0x02
     a64:	ab 81       	ldd	r26, Y+3	; 0x03
     a66:	bc 81       	ldd	r27, Y+4	; 0x04
     a68:	00 97       	sbiw	r24, 0x00	; 0
     a6a:	a1 05       	cpc	r26, r1
     a6c:	b1 05       	cpc	r27, r1
     a6e:	29 f0       	breq	.+10     	; 0xa7a <__stack+0x21b>
     a70:	81 50       	subi	r24, 0x01	; 1
     a72:	90 48       	sbci	r25, 0x80	; 128
     a74:	a0 40       	sbci	r26, 0x00	; 0
     a76:	b0 40       	sbci	r27, 0x00	; 0
     a78:	40 f0       	brcs	.+16     	; 0xa8a <__stack+0x22b>
     a7a:	81 e0       	ldi	r24, 0x01	; 1
     a7c:	90 e0       	ldi	r25, 0x00	; 0
     a7e:	a0 e0       	ldi	r26, 0x00	; 0
     a80:	b0 e0       	ldi	r27, 0x00	; 0
     a82:	89 83       	std	Y+1, r24	; 0x01
     a84:	9a 83       	std	Y+2, r25	; 0x02
     a86:	ab 83       	std	Y+3, r26	; 0x03
     a88:	bc 83       	std	Y+4, r27	; 0x04
     a8a:	89 81       	ldd	r24, Y+1	; 0x01
     a8c:	9a 81       	ldd	r25, Y+2	; 0x02
     a8e:	ab 81       	ldd	r26, Y+3	; 0x03
     a90:	bc 81       	ldd	r27, Y+4	; 0x04
     a92:	7c 01       	movw	r14, r24
     a94:	8d 01       	movw	r16, r26
     a96:	08 94       	sec
     a98:	e1 08       	sbc	r14, r1
     a9a:	f1 08       	sbc	r15, r1
     a9c:	01 09       	sbc	r16, r1
     a9e:	11 09       	sbc	r17, r1
     aa0:	ea 0c       	add	r14, r10
     aa2:	fb 1c       	adc	r15, r11
     aa4:	0c 1d       	adc	r16, r12
     aa6:	1d 1d       	adc	r17, r13
     aa8:	b0 95       	com	r27
     aaa:	a0 95       	com	r26
     aac:	90 95       	com	r25
     aae:	81 95       	neg	r24
     ab0:	9f 4f       	sbci	r25, 0xFF	; 255
     ab2:	af 4f       	sbci	r26, 0xFF	; 255
     ab4:	bf 4f       	sbci	r27, 0xFF	; 255
     ab6:	e8 22       	and	r14, r24
     ab8:	f9 22       	and	r15, r25
     aba:	0a 23       	and	r16, r26
     abc:	1b 23       	and	r17, r27
     abe:	ea 18       	sub	r14, r10
     ac0:	fb 08       	sbc	r15, r11
     ac2:	0c 09       	sbc	r16, r12
     ac4:	1d 09       	sbc	r17, r13
     ac6:	49 8d       	ldd	r20, Y+25	; 0x19
     ac8:	43 30       	cpi	r20, 0x03	; 3
     aca:	c9 f4       	brne	.+50     	; 0xafe <__stack+0x29f>
     acc:	8d 85       	ldd	r24, Y+13	; 0x0d
     ace:	9e 85       	ldd	r25, Y+14	; 0x0e
     ad0:	af 85       	ldd	r26, Y+15	; 0x0f
     ad2:	b8 89       	ldd	r27, Y+16	; 0x10
     ad4:	8e 0d       	add	r24, r14
     ad6:	9f 1d       	adc	r25, r15
     ad8:	a0 1f       	adc	r26, r16
     ada:	b1 1f       	adc	r27, r17
     adc:	8d 87       	std	Y+13, r24	; 0x0d
     ade:	9e 87       	std	Y+14, r25	; 0x0e
     ae0:	af 87       	std	Y+15, r26	; 0x0f
     ae2:	b8 8b       	std	Y+16, r27	; 0x10
     ae4:	29 89       	ldd	r18, Y+17	; 0x11
     ae6:	3a 89       	ldd	r19, Y+18	; 0x12
     ae8:	4b 89       	ldd	r20, Y+19	; 0x13
     aea:	5c 89       	ldd	r21, Y+20	; 0x14
     aec:	2e 0d       	add	r18, r14
     aee:	3f 1d       	adc	r19, r15
     af0:	40 1f       	adc	r20, r16
     af2:	51 1f       	adc	r21, r17
     af4:	29 8b       	std	Y+17, r18	; 0x11
     af6:	3a 8b       	std	Y+18, r19	; 0x12
     af8:	4b 8b       	std	Y+19, r20	; 0x13
     afa:	5c 8b       	std	Y+20, r21	; 0x14
     afc:	04 c0       	rjmp	.+8      	; 0xb06 <__stack+0x2a7>
     afe:	2e 0c       	add	r2, r14
     b00:	3f 1c       	adc	r3, r15
     b02:	40 1e       	adc	r4, r16
     b04:	51 1e       	adc	r5, r17
     b06:	ad 80       	ldd	r10, Y+5	; 0x05
     b08:	be 80       	ldd	r11, Y+6	; 0x06
     b0a:	cf 80       	ldd	r12, Y+7	; 0x07
     b0c:	d8 84       	ldd	r13, Y+8	; 0x08
     b0e:	c6 01       	movw	r24, r12
     b10:	b5 01       	movw	r22, r10
     b12:	2d 85       	ldd	r18, Y+13	; 0x0d
     b14:	3e 85       	ldd	r19, Y+14	; 0x0e
     b16:	4f 85       	ldd	r20, Y+15	; 0x0f
     b18:	58 89       	ldd	r21, Y+16	; 0x10
     b1a:	62 1b       	sub	r22, r18
     b1c:	73 0b       	sbc	r23, r19
     b1e:	84 0b       	sbc	r24, r20
     b20:	95 0b       	sbc	r25, r21
     b22:	62 19       	sub	r22, r2
     b24:	73 09       	sbc	r23, r3
     b26:	84 09       	sbc	r24, r4
     b28:	95 09       	sbc	r25, r5
     b2a:	29 85       	ldd	r18, Y+9	; 0x09
     b2c:	3a 85       	ldd	r19, Y+10	; 0x0a
     b2e:	4b 85       	ldd	r20, Y+11	; 0x0b
     b30:	5c 85       	ldd	r21, Y+12	; 0x0c
     b32:	62 1b       	sub	r22, r18
     b34:	73 0b       	sbc	r23, r19
     b36:	84 0b       	sbc	r24, r20
     b38:	95 0b       	sbc	r25, r21
     b3a:	2c 8d       	ldd	r18, Y+28	; 0x1c
     b3c:	3d 8d       	ldd	r19, Y+29	; 0x1d
     b3e:	4e 8d       	ldd	r20, Y+30	; 0x1e
     b40:	5f 8d       	ldd	r21, Y+31	; 0x1f
     b42:	0e 94 59 2b 	call	0x56b2	; 0x56b2 <__udivmodsi4>
     b46:	2d a3       	std	Y+37, r18	; 0x25
     b48:	3e a3       	std	Y+38, r19	; 0x26
     b4a:	4f a3       	std	Y+39, r20	; 0x27
     b4c:	58 a7       	std	Y+40, r21	; 0x28
     b4e:	39 8d       	ldd	r19, Y+25	; 0x19
     b50:	32 30       	cpi	r19, 0x02	; 2
     b52:	51 f4       	brne	.+20     	; 0xb68 <__stack+0x309>
     b54:	8d a1       	ldd	r24, Y+37	; 0x25
     b56:	9e a1       	ldd	r25, Y+38	; 0x26
     b58:	af a1       	ldd	r26, Y+39	; 0x27
     b5a:	b8 a5       	ldd	r27, Y+40	; 0x28
     b5c:	86 5f       	subi	r24, 0xF6	; 246
     b5e:	9f 40       	sbci	r25, 0x0F	; 15
     b60:	a0 40       	sbci	r26, 0x00	; 0
     b62:	b0 40       	sbci	r27, 0x00	; 0
     b64:	70 f4       	brcc	.+28     	; 0xb82 <__stack+0x323>
     b66:	b1 c2       	rjmp	.+1378   	; 0x10ca <__stack+0x86b>
     b68:	f9 8d       	ldd	r31, Y+25	; 0x19
     b6a:	f3 30       	cpi	r31, 0x03	; 3
     b6c:	51 f4       	brne	.+20     	; 0xb82 <__stack+0x323>
     b6e:	2d a1       	ldd	r18, Y+37	; 0x25
     b70:	3e a1       	ldd	r19, Y+38	; 0x26
     b72:	4f a1       	ldd	r20, Y+39	; 0x27
     b74:	58 a5       	ldd	r21, Y+40	; 0x28
     b76:	26 5f       	subi	r18, 0xF6	; 246
     b78:	3f 4f       	sbci	r19, 0xFF	; 255
     b7a:	40 40       	sbci	r20, 0x00	; 0
     b7c:	50 40       	sbci	r21, 0x00	; 0
     b7e:	08 f4       	brcc	.+2      	; 0xb82 <__stack+0x323>
     b80:	a4 c2       	rjmp	.+1352   	; 0x10ca <__stack+0x86b>
     b82:	e9 82       	std	Y+1, r14	; 0x01
     b84:	fa 82       	std	Y+2, r15	; 0x02
     b86:	0b 83       	std	Y+3, r16	; 0x03
     b88:	1c 83       	std	Y+4, r17	; 0x04
     b8a:	9c a1       	ldd	r25, Y+36	; 0x24
     b8c:	99 23       	and	r25, r25
     b8e:	11 f0       	breq	.+4      	; 0xb94 <__stack+0x335>
     b90:	10 ef       	ldi	r17, 0xF0	; 240
     b92:	85 c0       	rjmp	.+266    	; 0xc9e <__stack+0x43f>
     b94:	4d 89       	ldd	r20, Y+21	; 0x15
     b96:	5e 89       	ldd	r21, Y+22	; 0x16
     b98:	6f 89       	ldd	r22, Y+23	; 0x17
     b9a:	78 8d       	ldd	r23, Y+24	; 0x18
     b9c:	4a 0d       	add	r20, r10
     b9e:	5b 1d       	adc	r21, r11
     ba0:	6c 1d       	adc	r22, r12
     ba2:	7d 1d       	adc	r23, r13
     ba4:	3e e2       	ldi	r19, 0x2E	; 46
     ba6:	e3 2e       	mov	r14, r19
     ba8:	f1 2c       	mov	r15, r1
     baa:	e6 0c       	add	r14, r6
     bac:	f7 1c       	adc	r15, r7
     bae:	f7 01       	movw	r30, r14
     bb0:	20 e0       	ldi	r18, 0x00	; 0
     bb2:	32 e0       	ldi	r19, 0x02	; 2
     bb4:	01 c0       	rjmp	.+2      	; 0xbb8 <__stack+0x359>
     bb6:	11 92       	st	Z+, r1
     bb8:	21 50       	subi	r18, 0x01	; 1
     bba:	30 40       	sbci	r19, 0x00	; 0
     bbc:	af ef       	ldi	r26, 0xFF	; 255
     bbe:	2f 3f       	cpi	r18, 0xFF	; 255
     bc0:	3a 07       	cpc	r19, r26
     bc2:	c9 f7       	brne	.-14     	; 0xbb6 <__stack+0x357>
     bc4:	83 01       	movw	r16, r6
     bc6:	04 51       	subi	r16, 0x14	; 20
     bc8:	1e 4f       	sbci	r17, 0xFE	; 254
     bca:	80 e8       	ldi	r24, 0x80	; 128
     bcc:	91 e0       	ldi	r25, 0x01	; 1
     bce:	a1 e0       	ldi	r26, 0x01	; 1
     bd0:	b0 e0       	ldi	r27, 0x00	; 0
     bd2:	f8 01       	movw	r30, r16
     bd4:	80 83       	st	Z, r24
     bd6:	91 83       	std	Z+1, r25	; 0x01
     bd8:	a2 83       	std	Z+2, r26	; 0x02
     bda:	b3 83       	std	Z+3, r27	; 0x03
     bdc:	40 30       	cpi	r20, 0x00	; 0
     bde:	f4 e0       	ldi	r31, 0x04	; 4
     be0:	5f 07       	cpc	r21, r31
     be2:	fb ef       	ldi	r31, 0xFB	; 251
     be4:	6f 07       	cpc	r22, r31
     be6:	f0 e0       	ldi	r31, 0x00	; 0
     be8:	7f 07       	cpc	r23, r31
     bea:	b0 f4       	brcc	.+44     	; 0xc18 <__stack+0x3b9>
     bec:	cb 01       	movw	r24, r22
     bee:	ba 01       	movw	r22, r20
     bf0:	21 ec       	ldi	r18, 0xC1	; 193
     bf2:	3e e3       	ldi	r19, 0x3E	; 62
     bf4:	40 e0       	ldi	r20, 0x00	; 0
     bf6:	50 e0       	ldi	r21, 0x00	; 0
     bf8:	0e 94 59 2b 	call	0x56b2	; 0x56b2 <__udivmodsi4>
     bfc:	c9 01       	movw	r24, r18
     bfe:	da 01       	movw	r26, r20
     c00:	f8 01       	movw	r30, r16
     c02:	27 83       	std	Z+7, r18	; 0x07
     c04:	22 e0       	ldi	r18, 0x02	; 2
     c06:	b6 95       	lsr	r27
     c08:	a7 95       	ror	r26
     c0a:	97 95       	ror	r25
     c0c:	87 95       	ror	r24
     c0e:	2a 95       	dec	r18
     c10:	d1 f7       	brne	.-12     	; 0xc06 <__stack+0x3a7>
     c12:	8f 63       	ori	r24, 0x3F	; 63
     c14:	86 83       	std	Z+6, r24	; 0x06
     c16:	05 c0       	rjmp	.+10     	; 0xc22 <__stack+0x3c3>
     c18:	d8 01       	movw	r26, r16
     c1a:	17 96       	adiw	r26, 0x07	; 7
     c1c:	3c 93       	st	X, r19
     c1e:	2e 93       	st	-X, r18
     c20:	16 97       	sbiw	r26, 0x06	; 6
     c22:	8e ef       	ldi	r24, 0xFE	; 254
     c24:	f8 01       	movw	r30, r16
     c26:	85 83       	std	Z+5, r24	; 0x05
     c28:	f9 8d       	ldd	r31, Y+25	; 0x19
     c2a:	f3 30       	cpi	r31, 0x03	; 3
     c2c:	81 f0       	breq	.+32     	; 0xc4e <__stack+0x3ef>
     c2e:	8d 81       	ldd	r24, Y+5	; 0x05
     c30:	9e 81       	ldd	r25, Y+6	; 0x06
     c32:	af 81       	ldd	r26, Y+7	; 0x07
     c34:	b8 85       	ldd	r27, Y+8	; 0x08
     c36:	80 50       	subi	r24, 0x00	; 0
     c38:	90 40       	sbci	r25, 0x00	; 0
     c3a:	a1 40       	sbci	r26, 0x01	; 1
     c3c:	b0 40       	sbci	r27, 0x00	; 0
     c3e:	10 f0       	brcs	.+4      	; 0xc44 <__stack+0x3e5>
     c40:	86 e0       	ldi	r24, 0x06	; 6
     c42:	01 c0       	rjmp	.+2      	; 0xc46 <__stack+0x3e7>
     c44:	84 e0       	ldi	r24, 0x04	; 4
     c46:	d8 01       	movw	r26, r16
     c48:	14 96       	adiw	r26, 0x04	; 4
     c4a:	8c 93       	st	X, r24
     c4c:	03 c0       	rjmp	.+6      	; 0xc54 <__stack+0x3f5>
     c4e:	8c e0       	ldi	r24, 0x0C	; 12
     c50:	f8 01       	movw	r30, r16
     c52:	84 83       	std	Z+4, r24	; 0x04
     c54:	8f e3       	ldi	r24, 0x3F	; 63
     c56:	90 e0       	ldi	r25, 0x00	; 0
     c58:	a0 e0       	ldi	r26, 0x00	; 0
     c5a:	b0 e0       	ldi	r27, 0x00	; 0
     c5c:	f8 01       	movw	r30, r16
     c5e:	80 87       	std	Z+8, r24	; 0x08
     c60:	91 87       	std	Z+9, r25	; 0x09
     c62:	a2 87       	std	Z+10, r26	; 0x0a
     c64:	b3 87       	std	Z+11, r27	; 0x0b
     c66:	8d 81       	ldd	r24, Y+5	; 0x05
     c68:	9e 81       	ldd	r25, Y+6	; 0x06
     c6a:	af 81       	ldd	r26, Y+7	; 0x07
     c6c:	b8 85       	ldd	r27, Y+8	; 0x08
     c6e:	84 87       	std	Z+12, r24	; 0x0c
     c70:	95 87       	std	Z+13, r25	; 0x0d
     c72:	a6 87       	std	Z+14, r26	; 0x0e
     c74:	b7 87       	std	Z+15, r27	; 0x0f
     c76:	00 5c       	subi	r16, 0xC0	; 192
     c78:	1f 4f       	sbci	r17, 0xFF	; 255
     c7a:	85 e5       	ldi	r24, 0x55	; 85
     c7c:	9a ea       	ldi	r25, 0xAA	; 170
     c7e:	d8 01       	movw	r26, r16
     c80:	8d 93       	st	X+, r24
     c82:	9c 93       	st	X, r25
     c84:	80 e0       	ldi	r24, 0x00	; 0
     c86:	b7 01       	movw	r22, r14
     c88:	20 e0       	ldi	r18, 0x00	; 0
     c8a:	30 e0       	ldi	r19, 0x00	; 0
     c8c:	40 e0       	ldi	r20, 0x00	; 0
     c8e:	50 e0       	ldi	r21, 0x00	; 0
     c90:	01 e0       	ldi	r16, 0x01	; 1
     c92:	0e 94 5c 26 	call	0x4cb8	; 0x4cb8 <disk_write>
     c96:	88 23       	and	r24, r24
     c98:	09 f0       	breq	.+2      	; 0xc9c <__stack+0x43d>
     c9a:	15 c2       	rjmp	.+1066   	; 0x10c6 <__stack+0x867>
     c9c:	18 ef       	ldi	r17, 0xF8	; 248
     c9e:	fe e2       	ldi	r31, 0x2E	; 46
     ca0:	ef 2e       	mov	r14, r31
     ca2:	f1 2c       	mov	r15, r1
     ca4:	e6 0c       	add	r14, r6
     ca6:	f7 1c       	adc	r15, r7
     ca8:	f7 01       	movw	r30, r14
     caa:	80 e0       	ldi	r24, 0x00	; 0
     cac:	92 e0       	ldi	r25, 0x02	; 2
     cae:	01 c0       	rjmp	.+2      	; 0xcb2 <__stack+0x453>
     cb0:	11 92       	st	Z+, r1
     cb2:	01 97       	sbiw	r24, 0x01	; 1
     cb4:	bf ef       	ldi	r27, 0xFF	; 255
     cb6:	8f 3f       	cpi	r24, 0xFF	; 255
     cb8:	9b 07       	cpc	r25, r27
     cba:	d1 f7       	brne	.-12     	; 0xcb0 <__stack+0x451>
     cbc:	c7 01       	movw	r24, r14
     cbe:	6e ed       	ldi	r22, 0xDE	; 222
     cc0:	70 e0       	ldi	r23, 0x00	; 0
     cc2:	4b e0       	ldi	r20, 0x0B	; 11
     cc4:	50 e0       	ldi	r21, 0x00	; 0
     cc6:	0e 94 22 03 	call	0x644	; 0x644 <mem_cpy>
     cca:	80 e0       	ldi	r24, 0x00	; 0
     ccc:	92 e0       	ldi	r25, 0x02	; 2
     cce:	f7 01       	movw	r30, r14
     cd0:	94 87       	std	Z+12, r25	; 0x0c
     cd2:	83 87       	std	Z+11, r24	; 0x0b
     cd4:	d3 01       	movw	r26, r6
     cd6:	db 96       	adiw	r26, 0x3b	; 59
     cd8:	8c 92       	st	X, r8
     cda:	db 97       	sbiw	r26, 0x3b	; 59
     cdc:	cd 84       	ldd	r12, Y+13	; 0x0d
     cde:	de 84       	ldd	r13, Y+14	; 0x0e
     ce0:	d7 86       	std	Z+15, r13	; 0x0f
     ce2:	c6 86       	std	Z+14, r12	; 0x0e
     ce4:	81 e0       	ldi	r24, 0x01	; 1
     ce6:	de 96       	adiw	r26, 0x3e	; 62
     ce8:	8c 93       	st	X, r24
     cea:	29 8d       	ldd	r18, Y+25	; 0x19
     cec:	23 30       	cpi	r18, 0x03	; 3
     cee:	19 f0       	breq	.+6      	; 0xcf6 <__stack+0x497>
     cf0:	80 e0       	ldi	r24, 0x00	; 0
     cf2:	92 e0       	ldi	r25, 0x02	; 2
     cf4:	02 c0       	rjmp	.+4      	; 0xcfa <__stack+0x49b>
     cf6:	80 e0       	ldi	r24, 0x00	; 0
     cf8:	90 e0       	ldi	r25, 0x00	; 0
     cfa:	d7 01       	movw	r26, r14
     cfc:	52 96       	adiw	r26, 0x12	; 18
     cfe:	9c 93       	st	X, r25
     d00:	8e 93       	st	-X, r24
     d02:	51 97       	sbiw	r26, 0x11	; 17
     d04:	8d 81       	ldd	r24, Y+5	; 0x05
     d06:	9e 81       	ldd	r25, Y+6	; 0x06
     d08:	af 81       	ldd	r26, Y+7	; 0x07
     d0a:	b8 85       	ldd	r27, Y+8	; 0x08
     d0c:	80 30       	cpi	r24, 0x00	; 0
     d0e:	e0 e0       	ldi	r30, 0x00	; 0
     d10:	9e 07       	cpc	r25, r30
     d12:	e1 e0       	ldi	r30, 0x01	; 1
     d14:	ae 07       	cpc	r26, r30
     d16:	e0 e0       	ldi	r30, 0x00	; 0
     d18:	be 07       	cpc	r27, r30
     d1a:	20 f4       	brcc	.+8      	; 0xd24 <__stack+0x4c5>
     d1c:	f7 01       	movw	r30, r14
     d1e:	94 8b       	std	Z+20, r25	; 0x14
     d20:	83 8b       	std	Z+19, r24	; 0x13
     d22:	05 c0       	rjmp	.+10     	; 0xd2e <__stack+0x4cf>
     d24:	f7 01       	movw	r30, r14
     d26:	80 a3       	std	Z+32, r24	; 0x20
     d28:	91 a3       	std	Z+33, r25	; 0x21
     d2a:	a2 a3       	std	Z+34, r26	; 0x22
     d2c:	b3 a3       	std	Z+35, r27	; 0x23
     d2e:	e3 e4       	ldi	r30, 0x43	; 67
     d30:	ce 2e       	mov	r12, r30
     d32:	d1 2c       	mov	r13, r1
     d34:	6c 0c       	add	r6, r12
     d36:	7d 1c       	adc	r7, r13
     d38:	d3 01       	movw	r26, r6
     d3a:	1c 93       	st	X, r17
     d3c:	ed eb       	ldi	r30, 0xBD	; 189
     d3e:	ff ef       	ldi	r31, 0xFF	; 255
     d40:	6e 0e       	add	r6, r30
     d42:	7f 1e       	adc	r7, r31
     d44:	8f e3       	ldi	r24, 0x3F	; 63
     d46:	90 e0       	ldi	r25, 0x00	; 0
     d48:	d7 01       	movw	r26, r14
     d4a:	59 96       	adiw	r26, 0x19	; 25
     d4c:	9c 93       	st	X, r25
     d4e:	8e 93       	st	-X, r24
     d50:	58 97       	sbiw	r26, 0x18	; 24
     d52:	8f ef       	ldi	r24, 0xFF	; 255
     d54:	90 e0       	ldi	r25, 0x00	; 0
     d56:	5b 96       	adiw	r26, 0x1b	; 27
     d58:	9c 93       	st	X, r25
     d5a:	8e 93       	st	-X, r24
     d5c:	5a 97       	sbiw	r26, 0x1a	; 26
     d5e:	2d 89       	ldd	r18, Y+21	; 0x15
     d60:	3e 89       	ldd	r19, Y+22	; 0x16
     d62:	4f 89       	ldd	r20, Y+23	; 0x17
     d64:	58 8d       	ldd	r21, Y+24	; 0x18
     d66:	5c 96       	adiw	r26, 0x1c	; 28
     d68:	2d 93       	st	X+, r18
     d6a:	3d 93       	st	X+, r19
     d6c:	4d 93       	st	X+, r20
     d6e:	5c 93       	st	X, r21
     d70:	5f 97       	sbiw	r26, 0x1f	; 31
     d72:	0e 94 5f 00 	call	0xbe	; 0xbe <get_fattime>
     d76:	69 83       	std	Y+1, r22	; 0x01
     d78:	7a 83       	std	Y+2, r23	; 0x02
     d7a:	8b 83       	std	Y+3, r24	; 0x03
     d7c:	9c 83       	std	Y+4, r25	; 0x04
     d7e:	b9 8d       	ldd	r27, Y+25	; 0x19
     d80:	b3 30       	cpi	r27, 0x03	; 3
     d82:	f1 f5       	brne	.+124    	; 0xe00 <__stack+0x5a1>
     d84:	ec 0c       	add	r14, r12
     d86:	fd 1c       	adc	r15, r13
     d88:	f7 01       	movw	r30, r14
     d8a:	60 83       	st	Z, r22
     d8c:	71 83       	std	Z+1, r23	; 0x01
     d8e:	82 83       	std	Z+2, r24	; 0x02
     d90:	93 83       	std	Z+3, r25	; 0x03
     d92:	7d eb       	ldi	r23, 0xBD	; 189
     d94:	c7 2e       	mov	r12, r23
     d96:	7f ef       	ldi	r23, 0xFF	; 255
     d98:	d7 2e       	mov	r13, r23
     d9a:	ec 0c       	add	r14, r12
     d9c:	fd 1c       	adc	r15, r13
     d9e:	d7 01       	movw	r26, r14
     da0:	94 96       	adiw	r26, 0x24	; 36
     da2:	2d 92       	st	X+, r2
     da4:	3d 92       	st	X+, r3
     da6:	4d 92       	st	X+, r4
     da8:	5c 92       	st	X, r5
     daa:	97 97       	sbiw	r26, 0x27	; 39
     dac:	82 e0       	ldi	r24, 0x02	; 2
     dae:	90 e0       	ldi	r25, 0x00	; 0
     db0:	a0 e0       	ldi	r26, 0x00	; 0
     db2:	b0 e0       	ldi	r27, 0x00	; 0
     db4:	f7 01       	movw	r30, r14
     db6:	84 a7       	std	Z+44, r24	; 0x2c
     db8:	95 a7       	std	Z+45, r25	; 0x2d
     dba:	a6 a7       	std	Z+46, r26	; 0x2e
     dbc:	b7 a7       	std	Z+47, r27	; 0x2f
     dbe:	81 e0       	ldi	r24, 0x01	; 1
     dc0:	90 e0       	ldi	r25, 0x00	; 0
     dc2:	91 ab       	std	Z+49, r25	; 0x31
     dc4:	80 ab       	std	Z+48, r24	; 0x30
     dc6:	86 e0       	ldi	r24, 0x06	; 6
     dc8:	90 e0       	ldi	r25, 0x00	; 0
     dca:	93 ab       	std	Z+51, r25	; 0x33
     dcc:	82 ab       	std	Z+50, r24	; 0x32
     dce:	6e e6       	ldi	r22, 0x6E	; 110
     dd0:	c6 2e       	mov	r12, r22
     dd2:	d1 2c       	mov	r13, r1
     dd4:	6c 0c       	add	r6, r12
     dd6:	7d 1c       	adc	r7, r13
     dd8:	80 e8       	ldi	r24, 0x80	; 128
     dda:	d3 01       	movw	r26, r6
     ddc:	8c 93       	st	X, r24
     dde:	e2 e0       	ldi	r30, 0x02	; 2
     de0:	f0 e0       	ldi	r31, 0x00	; 0
     de2:	6e 0e       	add	r6, r30
     de4:	7f 1e       	adc	r7, r31
     de6:	89 e2       	ldi	r24, 0x29	; 41
     de8:	d3 01       	movw	r26, r6
     dea:	8c 93       	st	X, r24
     dec:	e0 e9       	ldi	r30, 0x90	; 144
     dee:	ff ef       	ldi	r31, 0xFF	; 255
     df0:	6e 0e       	add	r6, r30
     df2:	7f 1e       	adc	r7, r31
     df4:	c7 01       	movw	r24, r14
     df6:	89 5b       	subi	r24, 0xB9	; 185
     df8:	9f 4f       	sbci	r25, 0xFF	; 255
     dfa:	6a ee       	ldi	r22, 0xEA	; 234
     dfc:	70 e0       	ldi	r23, 0x00	; 0
     dfe:	21 c0       	rjmp	.+66     	; 0xe42 <__stack+0x5e3>
     e00:	d7 01       	movw	r26, r14
     e02:	97 96       	adiw	r26, 0x27	; 39
     e04:	6d 93       	st	X+, r22
     e06:	7d 93       	st	X+, r23
     e08:	8d 93       	st	X+, r24
     e0a:	9c 93       	st	X, r25
     e0c:	9a 97       	sbiw	r26, 0x2a	; 42
     e0e:	57 96       	adiw	r26, 0x17	; 23
     e10:	3c 92       	st	X, r3
     e12:	2e 92       	st	-X, r2
     e14:	56 97       	sbiw	r26, 0x16	; 22
     e16:	e2 e5       	ldi	r30, 0x52	; 82
     e18:	f0 e0       	ldi	r31, 0x00	; 0
     e1a:	6e 0e       	add	r6, r30
     e1c:	7f 1e       	adc	r7, r31
     e1e:	80 e8       	ldi	r24, 0x80	; 128
     e20:	d3 01       	movw	r26, r6
     e22:	8c 93       	st	X, r24
     e24:	e2 e0       	ldi	r30, 0x02	; 2
     e26:	f0 e0       	ldi	r31, 0x00	; 0
     e28:	6e 0e       	add	r6, r30
     e2a:	7f 1e       	adc	r7, r31
     e2c:	89 e2       	ldi	r24, 0x29	; 41
     e2e:	d3 01       	movw	r26, r6
     e30:	8c 93       	st	X, r24
     e32:	ec ea       	ldi	r30, 0xAC	; 172
     e34:	ff ef       	ldi	r31, 0xFF	; 255
     e36:	6e 0e       	add	r6, r30
     e38:	7f 1e       	adc	r7, r31
     e3a:	c7 01       	movw	r24, r14
     e3c:	8b 96       	adiw	r24, 0x2b	; 43
     e3e:	6e ef       	ldi	r22, 0xFE	; 254
     e40:	70 e0       	ldi	r23, 0x00	; 0
     e42:	43 e1       	ldi	r20, 0x13	; 19
     e44:	50 e0       	ldi	r21, 0x00	; 0
     e46:	0e 94 22 03 	call	0x644	; 0x644 <mem_cpy>
     e4a:	97 01       	movw	r18, r14
     e4c:	22 50       	subi	r18, 0x02	; 2
     e4e:	3e 4f       	sbci	r19, 0xFE	; 254
     e50:	3b 8f       	std	Y+27, r19	; 0x1b
     e52:	2a 8f       	std	Y+26, r18	; 0x1a
     e54:	85 e5       	ldi	r24, 0x55	; 85
     e56:	9a ea       	ldi	r25, 0xAA	; 170
     e58:	d9 01       	movw	r26, r18
     e5a:	8d 93       	st	X+, r24
     e5c:	9c 93       	st	X, r25
     e5e:	80 e0       	ldi	r24, 0x00	; 0
     e60:	b7 01       	movw	r22, r14
     e62:	2d 89       	ldd	r18, Y+21	; 0x15
     e64:	3e 89       	ldd	r19, Y+22	; 0x16
     e66:	4f 89       	ldd	r20, Y+23	; 0x17
     e68:	58 8d       	ldd	r21, Y+24	; 0x18
     e6a:	01 e0       	ldi	r16, 0x01	; 1
     e6c:	0e 94 5c 26 	call	0x4cb8	; 0x4cb8 <disk_write>
     e70:	88 23       	and	r24, r24
     e72:	09 f0       	breq	.+2      	; 0xe76 <__stack+0x617>
     e74:	28 c1       	rjmp	.+592    	; 0x10c6 <__stack+0x867>
     e76:	b9 8d       	ldd	r27, Y+25	; 0x19
     e78:	b3 30       	cpi	r27, 0x03	; 3
     e7a:	59 f4       	brne	.+22     	; 0xe92 <__stack+0x633>
     e7c:	2d 89       	ldd	r18, Y+21	; 0x15
     e7e:	3e 89       	ldd	r19, Y+22	; 0x16
     e80:	4f 89       	ldd	r20, Y+23	; 0x17
     e82:	58 8d       	ldd	r21, Y+24	; 0x18
     e84:	2a 5f       	subi	r18, 0xFA	; 250
     e86:	3f 4f       	sbci	r19, 0xFF	; 255
     e88:	4f 4f       	sbci	r20, 0xFF	; 255
     e8a:	5f 4f       	sbci	r21, 0xFF	; 255
     e8c:	b7 01       	movw	r22, r14
     e8e:	0e 94 5c 26 	call	0x4cb8	; 0x4cb8 <disk_write>
     e92:	f7 01       	movw	r30, r14
     e94:	80 e0       	ldi	r24, 0x00	; 0
     e96:	92 e0       	ldi	r25, 0x02	; 2
     e98:	01 c0       	rjmp	.+2      	; 0xe9c <__stack+0x63d>
     e9a:	11 92       	st	Z+, r1
     e9c:	01 97       	sbiw	r24, 0x01	; 1
     e9e:	2f ef       	ldi	r18, 0xFF	; 255
     ea0:	8f 3f       	cpi	r24, 0xFF	; 255
     ea2:	92 07       	cpc	r25, r18
     ea4:	d1 f7       	brne	.-12     	; 0xe9a <__stack+0x63b>
     ea6:	21 2f       	mov	r18, r17
     ea8:	30 e0       	ldi	r19, 0x00	; 0
     eaa:	40 e0       	ldi	r20, 0x00	; 0
     eac:	50 e0       	ldi	r21, 0x00	; 0
     eae:	89 8d       	ldd	r24, Y+25	; 0x19
     eb0:	83 30       	cpi	r24, 0x03	; 3
     eb2:	c9 f0       	breq	.+50     	; 0xee6 <__stack+0x687>
     eb4:	81 30       	cpi	r24, 0x01	; 1
     eb6:	29 f0       	breq	.+10     	; 0xec2 <__stack+0x663>
     eb8:	80 e0       	ldi	r24, 0x00	; 0
     eba:	9f ef       	ldi	r25, 0xFF	; 255
     ebc:	af ef       	ldi	r26, 0xFF	; 255
     ebe:	bf ef       	ldi	r27, 0xFF	; 255
     ec0:	04 c0       	rjmp	.+8      	; 0xeca <__stack+0x66b>
     ec2:	80 e0       	ldi	r24, 0x00	; 0
     ec4:	9f ef       	ldi	r25, 0xFF	; 255
     ec6:	af ef       	ldi	r26, 0xFF	; 255
     ec8:	b0 e0       	ldi	r27, 0x00	; 0
     eca:	82 2b       	or	r24, r18
     ecc:	93 2b       	or	r25, r19
     ece:	a4 2b       	or	r26, r20
     ed0:	b5 2b       	or	r27, r21
     ed2:	89 83       	std	Y+1, r24	; 0x01
     ed4:	9a 83       	std	Y+2, r25	; 0x02
     ed6:	ab 83       	std	Y+3, r26	; 0x03
     ed8:	bc 83       	std	Y+4, r27	; 0x04
     eda:	f3 01       	movw	r30, r6
     edc:	86 a7       	std	Z+46, r24	; 0x2e
     ede:	97 a7       	std	Z+47, r25	; 0x2f
     ee0:	a0 ab       	std	Z+48, r26	; 0x30
     ee2:	b1 ab       	std	Z+49, r27	; 0x31
     ee4:	1f c0       	rjmp	.+62     	; 0xf24 <__stack+0x6c5>
     ee6:	da 01       	movw	r26, r20
     ee8:	c9 01       	movw	r24, r18
     eea:	9f 6f       	ori	r25, 0xFF	; 255
     eec:	af 6f       	ori	r26, 0xFF	; 255
     eee:	bf 6f       	ori	r27, 0xFF	; 255
     ef0:	89 83       	std	Y+1, r24	; 0x01
     ef2:	9a 83       	std	Y+2, r25	; 0x02
     ef4:	ab 83       	std	Y+3, r26	; 0x03
     ef6:	bc 83       	std	Y+4, r27	; 0x04
     ef8:	f3 01       	movw	r30, r6
     efa:	86 a7       	std	Z+46, r24	; 0x2e
     efc:	97 a7       	std	Z+47, r25	; 0x2f
     efe:	a0 ab       	std	Z+48, r26	; 0x30
     f00:	b1 ab       	std	Z+49, r27	; 0x31
     f02:	8f ef       	ldi	r24, 0xFF	; 255
     f04:	9f ef       	ldi	r25, 0xFF	; 255
     f06:	af ef       	ldi	r26, 0xFF	; 255
     f08:	bf ef       	ldi	r27, 0xFF	; 255
     f0a:	f7 01       	movw	r30, r14
     f0c:	84 83       	std	Z+4, r24	; 0x04
     f0e:	95 83       	std	Z+5, r25	; 0x05
     f10:	a6 83       	std	Z+6, r26	; 0x06
     f12:	b7 83       	std	Z+7, r27	; 0x07
     f14:	8f ef       	ldi	r24, 0xFF	; 255
     f16:	9f ef       	ldi	r25, 0xFF	; 255
     f18:	af ef       	ldi	r26, 0xFF	; 255
     f1a:	bf e0       	ldi	r27, 0x0F	; 15
     f1c:	80 87       	std	Z+8, r24	; 0x08
     f1e:	91 87       	std	Z+9, r25	; 0x09
     f20:	a2 87       	std	Z+10, r26	; 0x0a
     f22:	b3 87       	std	Z+11, r27	; 0x0b
     f24:	80 e0       	ldi	r24, 0x00	; 0
     f26:	b7 01       	movw	r22, r14
     f28:	29 89       	ldd	r18, Y+17	; 0x11
     f2a:	3a 89       	ldd	r19, Y+18	; 0x12
     f2c:	4b 89       	ldd	r20, Y+19	; 0x13
     f2e:	5c 89       	ldd	r21, Y+20	; 0x14
     f30:	01 e0       	ldi	r16, 0x01	; 1
     f32:	0e 94 5c 26 	call	0x4cb8	; 0x4cb8 <disk_write>
     f36:	88 23       	and	r24, r24
     f38:	09 f0       	breq	.+2      	; 0xf3c <__stack+0x6dd>
     f3a:	c5 c0       	rjmp	.+394    	; 0x10c6 <__stack+0x867>
     f3c:	f7 01       	movw	r30, r14
     f3e:	80 e0       	ldi	r24, 0x00	; 0
     f40:	92 e0       	ldi	r25, 0x02	; 2
     f42:	01 c0       	rjmp	.+2      	; 0xf46 <__stack+0x6e7>
     f44:	11 92       	st	Z+, r1
     f46:	01 97       	sbiw	r24, 0x01	; 1
     f48:	2f ef       	ldi	r18, 0xFF	; 255
     f4a:	8f 3f       	cpi	r24, 0xFF	; 255
     f4c:	92 07       	cpc	r25, r18
     f4e:	d1 f7       	brne	.-12     	; 0xf44 <__stack+0x6e5>
     f50:	a9 88       	ldd	r10, Y+17	; 0x11
     f52:	ba 88       	ldd	r11, Y+18	; 0x12
     f54:	cb 88       	ldd	r12, Y+19	; 0x13
     f56:	dc 88       	ldd	r13, Y+20	; 0x14
     f58:	08 94       	sec
     f5a:	a1 1c       	adc	r10, r1
     f5c:	b1 1c       	adc	r11, r1
     f5e:	c1 1c       	adc	r12, r1
     f60:	d1 1c       	adc	r13, r1
     f62:	81 e0       	ldi	r24, 0x01	; 1
     f64:	90 e0       	ldi	r25, 0x00	; 0
     f66:	a0 e0       	ldi	r26, 0x00	; 0
     f68:	b0 e0       	ldi	r27, 0x00	; 0
     f6a:	16 c0       	rjmp	.+44     	; 0xf98 <__stack+0x739>
     f6c:	80 e0       	ldi	r24, 0x00	; 0
     f6e:	b7 01       	movw	r22, r14
     f70:	a6 01       	movw	r20, r12
     f72:	95 01       	movw	r18, r10
     f74:	01 e0       	ldi	r16, 0x01	; 1
     f76:	0e 94 5c 26 	call	0x4cb8	; 0x4cb8 <disk_write>
     f7a:	88 23       	and	r24, r24
     f7c:	09 f0       	breq	.+2      	; 0xf80 <__stack+0x721>
     f7e:	a3 c0       	rjmp	.+326    	; 0x10c6 <__stack+0x867>
     f80:	08 94       	sec
     f82:	a1 1c       	adc	r10, r1
     f84:	b1 1c       	adc	r11, r1
     f86:	c1 1c       	adc	r12, r1
     f88:	d1 1c       	adc	r13, r1
     f8a:	89 81       	ldd	r24, Y+1	; 0x01
     f8c:	9a 81       	ldd	r25, Y+2	; 0x02
     f8e:	ab 81       	ldd	r26, Y+3	; 0x03
     f90:	bc 81       	ldd	r27, Y+4	; 0x04
     f92:	01 96       	adiw	r24, 0x01	; 1
     f94:	a1 1d       	adc	r26, r1
     f96:	b1 1d       	adc	r27, r1
     f98:	89 83       	std	Y+1, r24	; 0x01
     f9a:	9a 83       	std	Y+2, r25	; 0x02
     f9c:	ab 83       	std	Y+3, r26	; 0x03
     f9e:	bc 83       	std	Y+4, r27	; 0x04
     fa0:	89 81       	ldd	r24, Y+1	; 0x01
     fa2:	9a 81       	ldd	r25, Y+2	; 0x02
     fa4:	ab 81       	ldd	r26, Y+3	; 0x03
     fa6:	bc 81       	ldd	r27, Y+4	; 0x04
     fa8:	82 15       	cp	r24, r2
     faa:	93 05       	cpc	r25, r3
     fac:	a4 05       	cpc	r26, r4
     fae:	b5 05       	cpc	r27, r5
     fb0:	e8 f2       	brcs	.-70     	; 0xf6c <__stack+0x70d>
     fb2:	39 8d       	ldd	r19, Y+25	; 0x19
     fb4:	33 30       	cpi	r19, 0x03	; 3
     fb6:	11 f0       	breq	.+4      	; 0xfbc <__stack+0x75d>
     fb8:	89 84       	ldd	r8, Y+9	; 0x09
     fba:	9a 84       	ldd	r9, Y+10	; 0x0a
     fbc:	15 01       	movw	r2, r10
     fbe:	26 01       	movw	r4, r12
     fc0:	08 94       	sec
     fc2:	21 1c       	adc	r2, r1
     fc4:	31 1c       	adc	r3, r1
     fc6:	41 1c       	adc	r4, r1
     fc8:	51 1c       	adc	r5, r1
     fca:	80 e0       	ldi	r24, 0x00	; 0
     fcc:	b7 01       	movw	r22, r14
     fce:	a6 01       	movw	r20, r12
     fd0:	95 01       	movw	r18, r10
     fd2:	01 e0       	ldi	r16, 0x01	; 1
     fd4:	0e 94 5c 26 	call	0x4cb8	; 0x4cb8 <disk_write>
     fd8:	88 23       	and	r24, r24
     fda:	09 f0       	breq	.+2      	; 0xfde <__stack+0x77f>
     fdc:	74 c0       	rjmp	.+232    	; 0x10c6 <__stack+0x867>
     fde:	08 94       	sec
     fe0:	81 08       	sbc	r8, r1
     fe2:	91 08       	sbc	r9, r1
     fe4:	81 14       	cp	r8, r1
     fe6:	91 04       	cpc	r9, r1
     fe8:	19 f0       	breq	.+6      	; 0xff0 <__stack+0x791>
     fea:	62 01       	movw	r12, r4
     fec:	51 01       	movw	r10, r2
     fee:	e6 cf       	rjmp	.-52     	; 0xfbc <__stack+0x75d>
     ff0:	49 8d       	ldd	r20, Y+25	; 0x19
     ff2:	43 30       	cpi	r20, 0x03	; 3
     ff4:	09 f0       	breq	.+2      	; 0xff8 <__stack+0x799>
     ff6:	5f c0       	rjmp	.+190    	; 0x10b6 <__stack+0x857>
     ff8:	85 e5       	ldi	r24, 0x55	; 85
     ffa:	9a ea       	ldi	r25, 0xAA	; 170
     ffc:	aa 8d       	ldd	r26, Y+26	; 0x1a
     ffe:	bb 8d       	ldd	r27, Y+27	; 0x1b
    1000:	8d 93       	st	X+, r24
    1002:	9c 93       	st	X, r25
    1004:	82 e5       	ldi	r24, 0x52	; 82
    1006:	92 e5       	ldi	r25, 0x52	; 82
    1008:	a1 e6       	ldi	r26, 0x61	; 97
    100a:	b1 e4       	ldi	r27, 0x41	; 65
    100c:	f3 01       	movw	r30, r6
    100e:	86 a7       	std	Z+46, r24	; 0x2e
    1010:	97 a7       	std	Z+47, r25	; 0x2f
    1012:	a0 ab       	std	Z+48, r26	; 0x30
    1014:	b1 ab       	std	Z+49, r27	; 0x31
    1016:	54 ee       	ldi	r21, 0xE4	; 228
    1018:	c5 2e       	mov	r12, r21
    101a:	51 e0       	ldi	r21, 0x01	; 1
    101c:	d5 2e       	mov	r13, r21
    101e:	ec 0c       	add	r14, r12
    1020:	fd 1c       	adc	r15, r13
    1022:	82 e7       	ldi	r24, 0x72	; 114
    1024:	92 e7       	ldi	r25, 0x72	; 114
    1026:	a1 e4       	ldi	r26, 0x41	; 65
    1028:	b1 e6       	ldi	r27, 0x61	; 97
    102a:	f7 01       	movw	r30, r14
    102c:	81 93       	st	Z+, r24
    102e:	91 93       	st	Z+, r25
    1030:	a1 93       	st	Z+, r26
    1032:	b1 93       	st	Z+, r27
    1034:	2d a1       	ldd	r18, Y+37	; 0x25
    1036:	3e a1       	ldd	r19, Y+38	; 0x26
    1038:	4f a1       	ldd	r20, Y+39	; 0x27
    103a:	58 a5       	ldd	r21, Y+40	; 0x28
    103c:	21 50       	subi	r18, 0x01	; 1
    103e:	30 40       	sbci	r19, 0x00	; 0
    1040:	40 40       	sbci	r20, 0x00	; 0
    1042:	50 40       	sbci	r21, 0x00	; 0
    1044:	df 01       	movw	r26, r30
    1046:	2d 93       	st	X+, r18
    1048:	3d 93       	st	X+, r19
    104a:	4d 93       	st	X+, r20
    104c:	5d 93       	st	X+, r21
    104e:	7d 01       	movw	r14, r26
    1050:	8f ef       	ldi	r24, 0xFF	; 255
    1052:	9f ef       	ldi	r25, 0xFF	; 255
    1054:	af ef       	ldi	r26, 0xFF	; 255
    1056:	bf ef       	ldi	r27, 0xFF	; 255
    1058:	f7 01       	movw	r30, r14
    105a:	80 83       	st	Z, r24
    105c:	91 83       	std	Z+1, r25	; 0x01
    105e:	a2 83       	std	Z+2, r26	; 0x02
    1060:	b3 83       	std	Z+3, r27	; 0x03
    1062:	44 e1       	ldi	r20, 0x14	; 20
    1064:	c4 2e       	mov	r12, r20
    1066:	4e ef       	ldi	r20, 0xFE	; 254
    1068:	d4 2e       	mov	r13, r20
    106a:	ec 0c       	add	r14, r12
    106c:	fd 1c       	adc	r15, r13
    106e:	2d 89       	ldd	r18, Y+21	; 0x15
    1070:	3e 89       	ldd	r19, Y+22	; 0x16
    1072:	4f 89       	ldd	r20, Y+23	; 0x17
    1074:	58 8d       	ldd	r21, Y+24	; 0x18
    1076:	2f 5f       	subi	r18, 0xFF	; 255
    1078:	3f 4f       	sbci	r19, 0xFF	; 255
    107a:	4f 4f       	sbci	r20, 0xFF	; 255
    107c:	5f 4f       	sbci	r21, 0xFF	; 255
    107e:	2d 8b       	std	Y+21, r18	; 0x15
    1080:	3e 8b       	std	Y+22, r19	; 0x16
    1082:	4f 8b       	std	Y+23, r20	; 0x17
    1084:	58 8f       	std	Y+24, r21	; 0x18
    1086:	80 e0       	ldi	r24, 0x00	; 0
    1088:	b7 01       	movw	r22, r14
    108a:	01 e0       	ldi	r16, 0x01	; 1
    108c:	0e 94 5c 26 	call	0x4cb8	; 0x4cb8 <disk_write>
    1090:	8d 89       	ldd	r24, Y+21	; 0x15
    1092:	9e 89       	ldd	r25, Y+22	; 0x16
    1094:	af 89       	ldd	r26, Y+23	; 0x17
    1096:	b8 8d       	ldd	r27, Y+24	; 0x18
    1098:	06 96       	adiw	r24, 0x06	; 6
    109a:	a1 1d       	adc	r26, r1
    109c:	b1 1d       	adc	r27, r1
    109e:	8d 8b       	std	Y+21, r24	; 0x15
    10a0:	9e 8b       	std	Y+22, r25	; 0x16
    10a2:	af 8b       	std	Y+23, r26	; 0x17
    10a4:	b8 8f       	std	Y+24, r27	; 0x18
    10a6:	80 e0       	ldi	r24, 0x00	; 0
    10a8:	b7 01       	movw	r22, r14
    10aa:	2d 89       	ldd	r18, Y+21	; 0x15
    10ac:	3e 89       	ldd	r19, Y+22	; 0x16
    10ae:	4f 89       	ldd	r20, Y+23	; 0x17
    10b0:	58 8d       	ldd	r21, Y+24	; 0x18
    10b2:	0e 94 5c 26 	call	0x4cb8	; 0x4cb8 <disk_write>
    10b6:	80 e0       	ldi	r24, 0x00	; 0
    10b8:	60 e0       	ldi	r22, 0x00	; 0
    10ba:	40 e0       	ldi	r20, 0x00	; 0
    10bc:	50 e0       	ldi	r21, 0x00	; 0
    10be:	0e 94 cc 26 	call	0x4d98	; 0x4d98 <disk_ioctl>
    10c2:	88 23       	and	r24, r24
    10c4:	19 f0       	breq	.+6      	; 0x10cc <__stack+0x86d>
    10c6:	81 e0       	ldi	r24, 0x01	; 1
    10c8:	01 c0       	rjmp	.+2      	; 0x10cc <__stack+0x86d>
    10ca:	8e e0       	ldi	r24, 0x0E	; 14
    10cc:	a8 96       	adiw	r28, 0x28	; 40
    10ce:	0f b6       	in	r0, 0x3f	; 63
    10d0:	f8 94       	cli
    10d2:	de bf       	out	0x3e, r29	; 62
    10d4:	0f be       	out	0x3f, r0	; 63
    10d6:	cd bf       	out	0x3d, r28	; 61
    10d8:	cf 91       	pop	r28
    10da:	df 91       	pop	r29
    10dc:	1f 91       	pop	r17
    10de:	0f 91       	pop	r16
    10e0:	ff 90       	pop	r15
    10e2:	ef 90       	pop	r14
    10e4:	df 90       	pop	r13
    10e6:	cf 90       	pop	r12
    10e8:	bf 90       	pop	r11
    10ea:	af 90       	pop	r10
    10ec:	9f 90       	pop	r9
    10ee:	8f 90       	pop	r8
    10f0:	7f 90       	pop	r7
    10f2:	6f 90       	pop	r6
    10f4:	5f 90       	pop	r5
    10f6:	4f 90       	pop	r4
    10f8:	3f 90       	pop	r3
    10fa:	2f 90       	pop	r2
    10fc:	08 95       	ret
    10fe:	1c 01       	movw	r2, r24
    1100:	2d 01       	movw	r4, r26
    1102:	32 e0       	ldi	r19, 0x02	; 2
    1104:	22 0c       	add	r2, r2
    1106:	33 1c       	adc	r3, r3
    1108:	44 1c       	adc	r4, r4
    110a:	55 1c       	adc	r5, r5
    110c:	3a 95       	dec	r19
    110e:	d1 f7       	brne	.-12     	; 0x1104 <__stack+0x8a5>
    1110:	27 e0       	ldi	r18, 0x07	; 7
    1112:	c2 2e       	mov	r12, r18
    1114:	22 e0       	ldi	r18, 0x02	; 2
    1116:	d2 2e       	mov	r13, r18
    1118:	e1 2c       	mov	r14, r1
    111a:	f1 2c       	mov	r15, r1
    111c:	2c 0c       	add	r2, r12
    111e:	3d 1c       	adc	r3, r13
    1120:	4e 1c       	adc	r4, r14
    1122:	5f 1c       	adc	r5, r15
    1124:	99 e0       	ldi	r25, 0x09	; 9
    1126:	56 94       	lsr	r5
    1128:	47 94       	ror	r4
    112a:	37 94       	ror	r3
    112c:	27 94       	ror	r2
    112e:	9a 95       	dec	r25
    1130:	d1 f7       	brne	.-12     	; 0x1126 <__stack+0x8c7>
    1132:	20 e2       	ldi	r18, 0x20	; 32
    1134:	30 e0       	ldi	r19, 0x00	; 0
    1136:	40 e0       	ldi	r20, 0x00	; 0
    1138:	50 e0       	ldi	r21, 0x00	; 0
    113a:	2d 87       	std	Y+13, r18	; 0x0d
    113c:	3e 87       	std	Y+14, r19	; 0x0e
    113e:	4f 87       	std	Y+15, r20	; 0x0f
    1140:	58 8b       	std	Y+16, r21	; 0x10
    1142:	19 86       	std	Y+9, r1	; 0x09
    1144:	1a 86       	std	Y+10, r1	; 0x0a
    1146:	1b 86       	std	Y+11, r1	; 0x0b
    1148:	1c 86       	std	Y+12, r1	; 0x0c
    114a:	33 e0       	ldi	r19, 0x03	; 3
    114c:	39 8f       	std	Y+25, r19	; 0x19
    114e:	4d cc       	rjmp	.-1894   	; 0x9ea <__stack+0x18b>
    1150:	9c 01       	movw	r18, r24
    1152:	ad 01       	movw	r20, r26
    1154:	2e 5f       	subi	r18, 0xFE	; 254
    1156:	3f 4f       	sbci	r19, 0xFF	; 255
    1158:	4f 4f       	sbci	r20, 0xFF	; 255
    115a:	5f 4f       	sbci	r21, 0xFF	; 255
    115c:	22 0f       	add	r18, r18
    115e:	33 1f       	adc	r19, r19
    1160:	44 1f       	adc	r20, r20
    1162:	55 1f       	adc	r21, r21
    1164:	82 e0       	ldi	r24, 0x02	; 2
    1166:	1e cc       	rjmp	.-1988   	; 0x9a4 <__stack+0x145>

00001168 <validate>:
    1168:	fc 01       	movw	r30, r24
    116a:	00 97       	sbiw	r24, 0x00	; 0
    116c:	89 f0       	breq	.+34     	; 0x1190 <validate+0x28>
    116e:	80 81       	ld	r24, Z
    1170:	88 23       	and	r24, r24
    1172:	71 f0       	breq	.+28     	; 0x1190 <validate+0x28>
    1174:	86 81       	ldd	r24, Z+6	; 0x06
    1176:	97 81       	ldd	r25, Z+7	; 0x07
    1178:	86 17       	cp	r24, r22
    117a:	97 07       	cpc	r25, r23
    117c:	49 f4       	brne	.+18     	; 0x1190 <validate+0x28>
    117e:	81 81       	ldd	r24, Z+1	; 0x01
    1180:	0e 94 fd 25 	call	0x4bfa	; 0x4bfa <disk_status>
    1184:	80 fd       	sbrc	r24, 0
    1186:	02 c0       	rjmp	.+4      	; 0x118c <validate+0x24>
    1188:	80 e0       	ldi	r24, 0x00	; 0
    118a:	08 95       	ret
    118c:	83 e0       	ldi	r24, 0x03	; 3
    118e:	08 95       	ret
    1190:	89 e0       	ldi	r24, 0x09	; 9
    1192:	08 95       	ret

00001194 <check_fs>:
    1194:	0f 93       	push	r16
    1196:	cf 93       	push	r28
    1198:	df 93       	push	r29
    119a:	ec 01       	movw	r28, r24
    119c:	9a 01       	movw	r18, r20
    119e:	ab 01       	movw	r20, r22
    11a0:	bc 01       	movw	r22, r24
    11a2:	62 5d       	subi	r22, 0xD2	; 210
    11a4:	7f 4f       	sbci	r23, 0xFF	; 255
    11a6:	89 81       	ldd	r24, Y+1	; 0x01
    11a8:	01 e0       	ldi	r16, 0x01	; 1
    11aa:	0e 94 04 26 	call	0x4c08	; 0x4c08 <disk_read>
    11ae:	88 23       	and	r24, r24
    11b0:	11 f0       	breq	.+4      	; 0x11b6 <check_fs+0x22>
    11b2:	23 e0       	ldi	r18, 0x03	; 3
    11b4:	29 c0       	rjmp	.+82     	; 0x1208 <check_fs+0x74>
    11b6:	c4 5d       	subi	r28, 0xD4	; 212
    11b8:	dd 4f       	sbci	r29, 0xFD	; 253
    11ba:	88 81       	ld	r24, Y
    11bc:	99 81       	ldd	r25, Y+1	; 0x01
    11be:	cc 52       	subi	r28, 0x2C	; 44
    11c0:	d2 40       	sbci	r29, 0x02	; 2
    11c2:	85 55       	subi	r24, 0x55	; 85
    11c4:	9a 4a       	sbci	r25, 0xAA	; 170
    11c6:	11 f0       	breq	.+4      	; 0x11cc <check_fs+0x38>
    11c8:	22 e0       	ldi	r18, 0x02	; 2
    11ca:	1e c0       	rjmp	.+60     	; 0x1208 <check_fs+0x74>
    11cc:	cc 59       	subi	r28, 0x9C	; 156
    11ce:	df 4f       	sbci	r29, 0xFF	; 255
    11d0:	88 81       	ld	r24, Y
    11d2:	99 81       	ldd	r25, Y+1	; 0x01
    11d4:	aa 81       	ldd	r26, Y+2	; 0x02
    11d6:	bb 81       	ldd	r27, Y+3	; 0x03
    11d8:	c4 56       	subi	r28, 0x64	; 100
    11da:	d0 40       	sbci	r29, 0x00	; 0
    11dc:	b0 70       	andi	r27, 0x00	; 0
    11de:	86 54       	subi	r24, 0x46	; 70
    11e0:	91 44       	sbci	r25, 0x41	; 65
    11e2:	a4 45       	sbci	r26, 0x54	; 84
    11e4:	b0 40       	sbci	r27, 0x00	; 0
    11e6:	11 f4       	brne	.+4      	; 0x11ec <check_fs+0x58>
    11e8:	20 e0       	ldi	r18, 0x00	; 0
    11ea:	0e c0       	rjmp	.+28     	; 0x1208 <check_fs+0x74>
    11ec:	20 e0       	ldi	r18, 0x00	; 0
    11ee:	c0 58       	subi	r28, 0x80	; 128
    11f0:	df 4f       	sbci	r29, 0xFF	; 255
    11f2:	88 81       	ld	r24, Y
    11f4:	99 81       	ldd	r25, Y+1	; 0x01
    11f6:	aa 81       	ldd	r26, Y+2	; 0x02
    11f8:	bb 81       	ldd	r27, Y+3	; 0x03
    11fa:	b0 70       	andi	r27, 0x00	; 0
    11fc:	86 54       	subi	r24, 0x46	; 70
    11fe:	91 44       	sbci	r25, 0x41	; 65
    1200:	a4 45       	sbci	r26, 0x54	; 84
    1202:	b0 40       	sbci	r27, 0x00	; 0
    1204:	09 f0       	breq	.+2      	; 0x1208 <check_fs+0x74>
    1206:	21 e0       	ldi	r18, 0x01	; 1
    1208:	82 2f       	mov	r24, r18
    120a:	df 91       	pop	r29
    120c:	cf 91       	pop	r28
    120e:	0f 91       	pop	r16
    1210:	08 95       	ret

00001212 <chk_mounted>:
    1212:	2f 92       	push	r2
    1214:	3f 92       	push	r3
    1216:	4f 92       	push	r4
    1218:	5f 92       	push	r5
    121a:	6f 92       	push	r6
    121c:	7f 92       	push	r7
    121e:	8f 92       	push	r8
    1220:	9f 92       	push	r9
    1222:	af 92       	push	r10
    1224:	bf 92       	push	r11
    1226:	cf 92       	push	r12
    1228:	df 92       	push	r13
    122a:	ef 92       	push	r14
    122c:	ff 92       	push	r15
    122e:	0f 93       	push	r16
    1230:	1f 93       	push	r17
    1232:	df 93       	push	r29
    1234:	cf 93       	push	r28
    1236:	cd b7       	in	r28, 0x3d	; 61
    1238:	de b7       	in	r29, 0x3e	; 62
    123a:	2a 97       	sbiw	r28, 0x0a	; 10
    123c:	0f b6       	in	r0, 0x3f	; 63
    123e:	f8 94       	cli
    1240:	de bf       	out	0x3e, r29	; 62
    1242:	0f be       	out	0x3f, r0	; 63
    1244:	cd bf       	out	0x3d, r28	; 61
    1246:	dc 01       	movw	r26, r24
    1248:	14 2f       	mov	r17, r20
    124a:	ed 91       	ld	r30, X+
    124c:	fc 91       	ld	r31, X
    124e:	11 97       	sbiw	r26, 0x01	; 1
    1250:	80 81       	ld	r24, Z
    1252:	28 2f       	mov	r18, r24
    1254:	30 e0       	ldi	r19, 0x00	; 0
    1256:	20 53       	subi	r18, 0x30	; 48
    1258:	30 40       	sbci	r19, 0x00	; 0
    125a:	2a 30       	cpi	r18, 0x0A	; 10
    125c:	31 05       	cpc	r19, r1
    125e:	50 f4       	brcc	.+20     	; 0x1274 <chk_mounted+0x62>
    1260:	81 81       	ldd	r24, Z+1	; 0x01
    1262:	8a 33       	cpi	r24, 0x3A	; 58
    1264:	39 f4       	brne	.+14     	; 0x1274 <chk_mounted+0x62>
    1266:	32 96       	adiw	r30, 0x02	; 2
    1268:	ed 93       	st	X+, r30
    126a:	fc 93       	st	X, r31
    126c:	23 2b       	or	r18, r19
    126e:	11 f0       	breq	.+4      	; 0x1274 <chk_mounted+0x62>
    1270:	8b e0       	ldi	r24, 0x0B	; 11
    1272:	43 c2       	rjmp	.+1158   	; 0x16fa <chk_mounted+0x4e8>
    1274:	20 91 54 06 	lds	r18, 0x0654
    1278:	30 91 55 06 	lds	r19, 0x0655
    127c:	3a 87       	std	Y+10, r19	; 0x0a
    127e:	29 87       	std	Y+9, r18	; 0x09
    1280:	db 01       	movw	r26, r22
    1282:	2d 93       	st	X+, r18
    1284:	3c 93       	st	X, r19
    1286:	23 2b       	or	r18, r19
    1288:	11 f4       	brne	.+4      	; 0x128e <chk_mounted+0x7c>
    128a:	8c e0       	ldi	r24, 0x0C	; 12
    128c:	36 c2       	rjmp	.+1132   	; 0x16fa <chk_mounted+0x4e8>
    128e:	e9 85       	ldd	r30, Y+9	; 0x09
    1290:	fa 85       	ldd	r31, Y+10	; 0x0a
    1292:	80 81       	ld	r24, Z
    1294:	88 23       	and	r24, r24
    1296:	59 f0       	breq	.+22     	; 0x12ae <chk_mounted+0x9c>
    1298:	81 81       	ldd	r24, Z+1	; 0x01
    129a:	0e 94 fd 25 	call	0x4bfa	; 0x4bfa <disk_status>
    129e:	80 fd       	sbrc	r24, 0
    12a0:	06 c0       	rjmp	.+12     	; 0x12ae <chk_mounted+0x9c>
    12a2:	11 23       	and	r17, r17
    12a4:	09 f4       	brne	.+2      	; 0x12a8 <chk_mounted+0x96>
    12a6:	26 c2       	rjmp	.+1100   	; 0x16f4 <chk_mounted+0x4e2>
    12a8:	82 fd       	sbrc	r24, 2
    12aa:	22 c2       	rjmp	.+1092   	; 0x16f0 <chk_mounted+0x4de>
    12ac:	23 c2       	rjmp	.+1094   	; 0x16f4 <chk_mounted+0x4e2>
    12ae:	a9 85       	ldd	r26, Y+9	; 0x09
    12b0:	ba 85       	ldd	r27, Y+10	; 0x0a
    12b2:	1c 92       	st	X, r1
    12b4:	11 96       	adiw	r26, 0x01	; 1
    12b6:	1c 92       	st	X, r1
    12b8:	80 e0       	ldi	r24, 0x00	; 0
    12ba:	0e 94 3b 25 	call	0x4a76	; 0x4a76 <disk_initialize>
    12be:	80 ff       	sbrs	r24, 0
    12c0:	02 c0       	rjmp	.+4      	; 0x12c6 <chk_mounted+0xb4>
    12c2:	83 e0       	ldi	r24, 0x03	; 3
    12c4:	1a c2       	rjmp	.+1076   	; 0x16fa <chk_mounted+0x4e8>
    12c6:	11 23       	and	r17, r17
    12c8:	11 f0       	breq	.+4      	; 0x12ce <chk_mounted+0xbc>
    12ca:	82 fd       	sbrc	r24, 2
    12cc:	11 c2       	rjmp	.+1058   	; 0x16f0 <chk_mounted+0x4de>
    12ce:	89 85       	ldd	r24, Y+9	; 0x09
    12d0:	9a 85       	ldd	r25, Y+10	; 0x0a
    12d2:	40 e0       	ldi	r20, 0x00	; 0
    12d4:	50 e0       	ldi	r21, 0x00	; 0
    12d6:	60 e0       	ldi	r22, 0x00	; 0
    12d8:	70 e0       	ldi	r23, 0x00	; 0
    12da:	0e 94 ca 08 	call	0x1194	; 0x1194 <check_fs>
    12de:	81 30       	cpi	r24, 0x01	; 1
    12e0:	21 f0       	breq	.+8      	; 0x12ea <chk_mounted+0xd8>
    12e2:	22 24       	eor	r2, r2
    12e4:	33 24       	eor	r3, r3
    12e6:	21 01       	movw	r4, r2
    12e8:	12 c0       	rjmp	.+36     	; 0x130e <chk_mounted+0xfc>
    12ea:	e9 85       	ldd	r30, Y+9	; 0x09
    12ec:	fa 85       	ldd	r31, Y+10	; 0x0a
    12ee:	e4 51       	subi	r30, 0x14	; 20
    12f0:	fe 4f       	sbci	r31, 0xFE	; 254
    12f2:	84 81       	ldd	r24, Z+4	; 0x04
    12f4:	88 23       	and	r24, r24
    12f6:	09 f4       	brne	.+2      	; 0x12fa <chk_mounted+0xe8>
    12f8:	ff c1       	rjmp	.+1022   	; 0x16f8 <chk_mounted+0x4e6>
    12fa:	20 84       	ldd	r2, Z+8	; 0x08
    12fc:	31 84       	ldd	r3, Z+9	; 0x09
    12fe:	42 84       	ldd	r4, Z+10	; 0x0a
    1300:	53 84       	ldd	r5, Z+11	; 0x0b
    1302:	89 85       	ldd	r24, Y+9	; 0x09
    1304:	9a 85       	ldd	r25, Y+10	; 0x0a
    1306:	b2 01       	movw	r22, r4
    1308:	a1 01       	movw	r20, r2
    130a:	0e 94 ca 08 	call	0x1194	; 0x1194 <check_fs>
    130e:	83 30       	cpi	r24, 0x03	; 3
    1310:	11 f4       	brne	.+4      	; 0x1316 <chk_mounted+0x104>
    1312:	81 e0       	ldi	r24, 0x01	; 1
    1314:	f2 c1       	rjmp	.+996    	; 0x16fa <chk_mounted+0x4e8>
    1316:	88 23       	and	r24, r24
    1318:	09 f0       	breq	.+2      	; 0x131c <chk_mounted+0x10a>
    131a:	ee c1       	rjmp	.+988    	; 0x16f8 <chk_mounted+0x4e6>
    131c:	e9 85       	ldd	r30, Y+9	; 0x09
    131e:	fa 85       	ldd	r31, Y+10	; 0x0a
    1320:	81 ad       	ldd	r24, Z+57	; 0x39
    1322:	92 ad       	ldd	r25, Z+58	; 0x3a
    1324:	80 50       	subi	r24, 0x00	; 0
    1326:	92 40       	sbci	r25, 0x02	; 2
    1328:	09 f0       	breq	.+2      	; 0x132c <chk_mounted+0x11a>
    132a:	e6 c1       	rjmp	.+972    	; 0x16f8 <chk_mounted+0x4e6>
    132c:	29 85       	ldd	r18, Y+9	; 0x09
    132e:	3a 85       	ldd	r19, Y+10	; 0x0a
    1330:	2c 5b       	subi	r18, 0xBC	; 188
    1332:	3f 4f       	sbci	r19, 0xFF	; 255
    1334:	d9 01       	movw	r26, r18
    1336:	8d 91       	ld	r24, X+
    1338:	9c 91       	ld	r25, X
    133a:	11 97       	sbiw	r26, 0x01	; 1
    133c:	a4 54       	subi	r26, 0x44	; 68
    133e:	b0 40       	sbci	r27, 0x00	; 0
    1340:	ba 87       	std	Y+10, r27	; 0x0a
    1342:	a9 87       	std	Y+9, r26	; 0x09
    1344:	5c 01       	movw	r10, r24
    1346:	cc 24       	eor	r12, r12
    1348:	dd 24       	eor	r13, r13
    134a:	a1 14       	cp	r10, r1
    134c:	b1 04       	cpc	r11, r1
    134e:	c1 04       	cpc	r12, r1
    1350:	d1 04       	cpc	r13, r1
    1352:	59 f4       	brne	.+22     	; 0x136a <chk_mounted+0x158>
    1354:	ae 5a       	subi	r26, 0xAE	; 174
    1356:	bf 4f       	sbci	r27, 0xFF	; 255
    1358:	ad 90       	ld	r10, X+
    135a:	bd 90       	ld	r11, X+
    135c:	cd 90       	ld	r12, X+
    135e:	dc 90       	ld	r13, X
    1360:	13 97       	sbiw	r26, 0x03	; 3
    1362:	a2 55       	subi	r26, 0x52	; 82
    1364:	b0 40       	sbci	r27, 0x00	; 0
    1366:	ba 87       	std	Y+10, r27	; 0x0a
    1368:	a9 87       	std	Y+9, r26	; 0x09
    136a:	e9 85       	ldd	r30, Y+9	; 0x09
    136c:	fa 85       	ldd	r31, Y+10	; 0x0a
    136e:	a2 8e       	std	Z+26, r10	; 0x1a
    1370:	b3 8e       	std	Z+27, r11	; 0x1b
    1372:	c4 8e       	std	Z+28, r12	; 0x1c
    1374:	d5 8e       	std	Z+29, r13	; 0x1d
    1376:	46 ad       	ldd	r20, Z+62	; 0x3e
    1378:	43 83       	std	Z+3, r20	; 0x03
    137a:	84 2f       	mov	r24, r20
    137c:	81 50       	subi	r24, 0x01	; 1
    137e:	82 30       	cpi	r24, 0x02	; 2
    1380:	08 f0       	brcs	.+2      	; 0x1384 <chk_mounted+0x172>
    1382:	ba c1       	rjmp	.+884    	; 0x16f8 <chk_mounted+0x4e6>
    1384:	23 ad       	ldd	r18, Z+59	; 0x3b
    1386:	22 83       	std	Z+2, r18	; 0x02
    1388:	22 23       	and	r18, r18
    138a:	09 f4       	brne	.+2      	; 0x138e <chk_mounted+0x17c>
    138c:	b5 c1       	rjmp	.+874    	; 0x16f8 <chk_mounted+0x4e6>
    138e:	30 e0       	ldi	r19, 0x00	; 0
    1390:	c9 01       	movw	r24, r18
    1392:	01 97       	sbiw	r24, 0x01	; 1
    1394:	82 23       	and	r24, r18
    1396:	93 23       	and	r25, r19
    1398:	89 2b       	or	r24, r25
    139a:	09 f0       	breq	.+2      	; 0x139e <chk_mounted+0x18c>
    139c:	ad c1       	rjmp	.+858    	; 0x16f8 <chk_mounted+0x4e6>
    139e:	ff 96       	adiw	r30, 0x3f	; 63
    13a0:	80 80       	ld	r8, Z
    13a2:	91 80       	ldd	r9, Z+1	; 0x01
    13a4:	ff 97       	sbiw	r30, 0x3f	; 63
    13a6:	fa 87       	std	Y+10, r31	; 0x0a
    13a8:	e9 87       	std	Y+9, r30	; 0x09
    13aa:	91 86       	std	Z+9, r9	; 0x09
    13ac:	80 86       	std	Z+8, r8	; 0x08
    13ae:	c4 01       	movw	r24, r8
    13b0:	8f 70       	andi	r24, 0x0F	; 15
    13b2:	90 70       	andi	r25, 0x00	; 0
    13b4:	89 2b       	or	r24, r25
    13b6:	09 f0       	breq	.+2      	; 0x13ba <chk_mounted+0x1a8>
    13b8:	9f c1       	rjmp	.+830    	; 0x16f8 <chk_mounted+0x4e6>
    13ba:	ef 5b       	subi	r30, 0xBF	; 191
    13bc:	ff 4f       	sbci	r31, 0xFF	; 255
    13be:	80 81       	ld	r24, Z
    13c0:	91 81       	ldd	r25, Z+1	; 0x01
    13c2:	e1 54       	subi	r30, 0x41	; 65
    13c4:	f0 40       	sbci	r31, 0x00	; 0
    13c6:	fa 87       	std	Y+10, r31	; 0x0a
    13c8:	e9 87       	std	Y+9, r30	; 0x09
    13ca:	7c 01       	movw	r14, r24
    13cc:	00 e0       	ldi	r16, 0x00	; 0
    13ce:	10 e0       	ldi	r17, 0x00	; 0
    13d0:	e1 14       	cp	r14, r1
    13d2:	f1 04       	cpc	r15, r1
    13d4:	01 05       	cpc	r16, r1
    13d6:	11 05       	cpc	r17, r1
    13d8:	51 f4       	brne	.+20     	; 0x13ee <chk_mounted+0x1dc>
    13da:	e2 5b       	subi	r30, 0xB2	; 178
    13dc:	ff 4f       	sbci	r31, 0xFF	; 255
    13de:	e0 80       	ld	r14, Z
    13e0:	f1 80       	ldd	r15, Z+1	; 0x01
    13e2:	02 81       	ldd	r16, Z+2	; 0x02
    13e4:	13 81       	ldd	r17, Z+3	; 0x03
    13e6:	ee 54       	subi	r30, 0x4E	; 78
    13e8:	f0 40       	sbci	r31, 0x00	; 0
    13ea:	fa 87       	std	Y+10, r31	; 0x0a
    13ec:	e9 87       	std	Y+9, r30	; 0x09
    13ee:	a9 85       	ldd	r26, Y+9	; 0x09
    13f0:	ba 85       	ldd	r27, Y+10	; 0x0a
    13f2:	dc 96       	adiw	r26, 0x3c	; 60
    13f4:	6d 90       	ld	r6, X+
    13f6:	7c 90       	ld	r7, X
    13f8:	dd 97       	sbiw	r26, 0x3d	; 61
    13fa:	61 14       	cp	r6, r1
    13fc:	71 04       	cpc	r7, r1
    13fe:	09 f4       	brne	.+2      	; 0x1402 <chk_mounted+0x1f0>
    1400:	7b c1       	rjmp	.+758    	; 0x16f8 <chk_mounted+0x4e6>
    1402:	24 2f       	mov	r18, r20
    1404:	30 e0       	ldi	r19, 0x00	; 0
    1406:	40 e0       	ldi	r20, 0x00	; 0
    1408:	50 e0       	ldi	r21, 0x00	; 0
    140a:	c6 01       	movw	r24, r12
    140c:	b5 01       	movw	r22, r10
    140e:	0e 94 2e 2b 	call	0x565c	; 0x565c <__mulsi3>
    1412:	69 83       	std	Y+1, r22	; 0x01
    1414:	7a 83       	std	Y+2, r23	; 0x02
    1416:	8b 83       	std	Y+3, r24	; 0x03
    1418:	9c 83       	std	Y+4, r25	; 0x04
    141a:	93 01       	movw	r18, r6
    141c:	40 e0       	ldi	r20, 0x00	; 0
    141e:	50 e0       	ldi	r21, 0x00	; 0
    1420:	2d 83       	std	Y+5, r18	; 0x05
    1422:	3e 83       	std	Y+6, r19	; 0x06
    1424:	4f 83       	std	Y+7, r20	; 0x07
    1426:	58 87       	std	Y+8, r21	; 0x08
    1428:	e4 e0       	ldi	r30, 0x04	; 4
    142a:	96 94       	lsr	r9
    142c:	87 94       	ror	r8
    142e:	ea 95       	dec	r30
    1430:	e1 f7       	brne	.-8      	; 0x142a <chk_mounted+0x218>
    1432:	54 01       	movw	r10, r8
    1434:	cc 24       	eor	r12, r12
    1436:	dd 24       	eor	r13, r13
    1438:	a2 0e       	add	r10, r18
    143a:	b3 1e       	adc	r11, r19
    143c:	c4 1e       	adc	r12, r20
    143e:	d5 1e       	adc	r13, r21
    1440:	a6 0e       	add	r10, r22
    1442:	b7 1e       	adc	r11, r23
    1444:	c8 1e       	adc	r12, r24
    1446:	d9 1e       	adc	r13, r25
    1448:	ea 14       	cp	r14, r10
    144a:	fb 04       	cpc	r15, r11
    144c:	0c 05       	cpc	r16, r12
    144e:	1d 05       	cpc	r17, r13
    1450:	08 f4       	brcc	.+2      	; 0x1454 <chk_mounted+0x242>
    1452:	52 c1       	rjmp	.+676    	; 0x16f8 <chk_mounted+0x4e6>
    1454:	ea 18       	sub	r14, r10
    1456:	fb 08       	sbc	r15, r11
    1458:	0c 09       	sbc	r16, r12
    145a:	1d 09       	sbc	r17, r13
    145c:	a9 85       	ldd	r26, Y+9	; 0x09
    145e:	ba 85       	ldd	r27, Y+10	; 0x0a
    1460:	12 96       	adiw	r26, 0x02	; 2
    1462:	2c 91       	ld	r18, X
    1464:	30 e0       	ldi	r19, 0x00	; 0
    1466:	40 e0       	ldi	r20, 0x00	; 0
    1468:	50 e0       	ldi	r21, 0x00	; 0
    146a:	c8 01       	movw	r24, r16
    146c:	b7 01       	movw	r22, r14
    146e:	0e 94 59 2b 	call	0x56b2	; 0x56b2 <__udivmodsi4>
    1472:	c9 01       	movw	r24, r18
    1474:	da 01       	movw	r26, r20
    1476:	00 97       	sbiw	r24, 0x00	; 0
    1478:	a1 05       	cpc	r26, r1
    147a:	b1 05       	cpc	r27, r1
    147c:	09 f4       	brne	.+2      	; 0x1480 <chk_mounted+0x26e>
    147e:	3c c1       	rjmp	.+632    	; 0x16f8 <chk_mounted+0x4e6>
    1480:	86 3f       	cpi	r24, 0xF6	; 246
    1482:	ef e0       	ldi	r30, 0x0F	; 15
    1484:	9e 07       	cpc	r25, r30
    1486:	e0 e0       	ldi	r30, 0x00	; 0
    1488:	ae 07       	cpc	r26, r30
    148a:	e0 e0       	ldi	r30, 0x00	; 0
    148c:	be 07       	cpc	r27, r30
    148e:	18 f4       	brcc	.+6      	; 0x1496 <chk_mounted+0x284>
    1490:	99 24       	eor	r9, r9
    1492:	93 94       	inc	r9
    1494:	0d c0       	rjmp	.+26     	; 0x14b0 <chk_mounted+0x29e>
    1496:	86 3f       	cpi	r24, 0xF6	; 246
    1498:	ff ef       	ldi	r31, 0xFF	; 255
    149a:	9f 07       	cpc	r25, r31
    149c:	f0 e0       	ldi	r31, 0x00	; 0
    149e:	af 07       	cpc	r26, r31
    14a0:	f0 e0       	ldi	r31, 0x00	; 0
    14a2:	bf 07       	cpc	r27, r31
    14a4:	18 f0       	brcs	.+6      	; 0x14ac <chk_mounted+0x29a>
    14a6:	43 e0       	ldi	r20, 0x03	; 3
    14a8:	94 2e       	mov	r9, r20
    14aa:	02 c0       	rjmp	.+4      	; 0x14b0 <chk_mounted+0x29e>
    14ac:	32 e0       	ldi	r19, 0x02	; 2
    14ae:	93 2e       	mov	r9, r19
    14b0:	22 e0       	ldi	r18, 0x02	; 2
    14b2:	e2 2e       	mov	r14, r18
    14b4:	f1 2c       	mov	r15, r1
    14b6:	01 2d       	mov	r16, r1
    14b8:	11 2d       	mov	r17, r1
    14ba:	e8 0e       	add	r14, r24
    14bc:	f9 1e       	adc	r15, r25
    14be:	0a 1f       	adc	r16, r26
    14c0:	1b 1f       	adc	r17, r27
    14c2:	a9 85       	ldd	r26, Y+9	; 0x09
    14c4:	ba 85       	ldd	r27, Y+10	; 0x0a
    14c6:	56 96       	adiw	r26, 0x16	; 22
    14c8:	ed 92       	st	X+, r14
    14ca:	fd 92       	st	X+, r15
    14cc:	0d 93       	st	X+, r16
    14ce:	1c 93       	st	X, r17
    14d0:	59 97       	sbiw	r26, 0x19	; 25
    14d2:	a2 0c       	add	r10, r2
    14d4:	b3 1c       	adc	r11, r3
    14d6:	c4 1c       	adc	r12, r4
    14d8:	d5 1c       	adc	r13, r5
    14da:	fd 01       	movw	r30, r26
    14dc:	a6 a2       	std	Z+38, r10	; 0x26
    14de:	b7 a2       	std	Z+39, r11	; 0x27
    14e0:	c0 a6       	std	Z+40, r12	; 0x28
    14e2:	d1 a6       	std	Z+41, r13	; 0x29
    14e4:	8d 81       	ldd	r24, Y+5	; 0x05
    14e6:	9e 81       	ldd	r25, Y+6	; 0x06
    14e8:	af 81       	ldd	r26, Y+7	; 0x07
    14ea:	b8 85       	ldd	r27, Y+8	; 0x08
    14ec:	82 0d       	add	r24, r2
    14ee:	93 1d       	adc	r25, r3
    14f0:	a4 1d       	adc	r26, r4
    14f2:	b5 1d       	adc	r27, r5
    14f4:	86 8f       	std	Z+30, r24	; 0x1e
    14f6:	97 8f       	std	Z+31, r25	; 0x1f
    14f8:	a0 a3       	std	Z+32, r26	; 0x20
    14fa:	b1 a3       	std	Z+33, r27	; 0x21
    14fc:	20 85       	ldd	r18, Z+8	; 0x08
    14fe:	31 85       	ldd	r19, Z+9	; 0x09
    1500:	f3 e0       	ldi	r31, 0x03	; 3
    1502:	9f 16       	cp	r9, r31
    1504:	f1 f4       	brne	.+60     	; 0x1542 <chk_mounted+0x330>
    1506:	23 2b       	or	r18, r19
    1508:	09 f0       	breq	.+2      	; 0x150c <chk_mounted+0x2fa>
    150a:	f6 c0       	rjmp	.+492    	; 0x16f8 <chk_mounted+0x4e6>
    150c:	29 85       	ldd	r18, Y+9	; 0x09
    150e:	3a 85       	ldd	r19, Y+10	; 0x0a
    1510:	26 5a       	subi	r18, 0xA6	; 166
    1512:	3f 4f       	sbci	r19, 0xFF	; 255
    1514:	f9 01       	movw	r30, r18
    1516:	80 81       	ld	r24, Z
    1518:	91 81       	ldd	r25, Z+1	; 0x01
    151a:	a2 81       	ldd	r26, Z+2	; 0x02
    151c:	b3 81       	ldd	r27, Z+3	; 0x03
    151e:	ea 55       	subi	r30, 0x5A	; 90
    1520:	f0 40       	sbci	r31, 0x00	; 0
    1522:	fa 87       	std	Y+10, r31	; 0x0a
    1524:	e9 87       	std	Y+9, r30	; 0x09
    1526:	82 a3       	std	Z+34, r24	; 0x22
    1528:	93 a3       	std	Z+35, r25	; 0x23
    152a:	a4 a3       	std	Z+36, r26	; 0x24
    152c:	b5 a3       	std	Z+37, r27	; 0x25
    152e:	a8 01       	movw	r20, r16
    1530:	97 01       	movw	r18, r14
    1532:	f2 e0       	ldi	r31, 0x02	; 2
    1534:	22 0f       	add	r18, r18
    1536:	33 1f       	adc	r19, r19
    1538:	44 1f       	adc	r20, r20
    153a:	55 1f       	adc	r21, r21
    153c:	fa 95       	dec	r31
    153e:	d1 f7       	brne	.-12     	; 0x1534 <chk_mounted+0x322>
    1540:	33 c0       	rjmp	.+102    	; 0x15a8 <chk_mounted+0x396>
    1542:	23 2b       	or	r18, r19
    1544:	09 f4       	brne	.+2      	; 0x1548 <chk_mounted+0x336>
    1546:	d8 c0       	rjmp	.+432    	; 0x16f8 <chk_mounted+0x4e6>
    1548:	29 81       	ldd	r18, Y+1	; 0x01
    154a:	3a 81       	ldd	r19, Y+2	; 0x02
    154c:	4b 81       	ldd	r20, Y+3	; 0x03
    154e:	5c 81       	ldd	r21, Y+4	; 0x04
    1550:	82 0f       	add	r24, r18
    1552:	93 1f       	adc	r25, r19
    1554:	a4 1f       	adc	r26, r20
    1556:	b5 1f       	adc	r27, r21
    1558:	e9 85       	ldd	r30, Y+9	; 0x09
    155a:	fa 85       	ldd	r31, Y+10	; 0x0a
    155c:	82 a3       	std	Z+34, r24	; 0x22
    155e:	93 a3       	std	Z+35, r25	; 0x23
    1560:	a4 a3       	std	Z+36, r26	; 0x24
    1562:	b5 a3       	std	Z+37, r27	; 0x25
    1564:	d8 01       	movw	r26, r16
    1566:	c7 01       	movw	r24, r14
    1568:	88 0f       	add	r24, r24
    156a:	99 1f       	adc	r25, r25
    156c:	aa 1f       	adc	r26, r26
    156e:	bb 1f       	adc	r27, r27
    1570:	f2 e0       	ldi	r31, 0x02	; 2
    1572:	9f 16       	cp	r9, r31
    1574:	19 f4       	brne	.+6      	; 0x157c <chk_mounted+0x36a>
    1576:	9c 01       	movw	r18, r24
    1578:	ad 01       	movw	r20, r26
    157a:	16 c0       	rjmp	.+44     	; 0x15a8 <chk_mounted+0x396>
    157c:	9c 01       	movw	r18, r24
    157e:	ad 01       	movw	r20, r26
    1580:	2e 0d       	add	r18, r14
    1582:	3f 1d       	adc	r19, r15
    1584:	40 1f       	adc	r20, r16
    1586:	51 1f       	adc	r21, r17
    1588:	56 95       	lsr	r21
    158a:	47 95       	ror	r20
    158c:	37 95       	ror	r19
    158e:	27 95       	ror	r18
    1590:	81 e0       	ldi	r24, 0x01	; 1
    1592:	90 e0       	ldi	r25, 0x00	; 0
    1594:	a0 e0       	ldi	r26, 0x00	; 0
    1596:	b0 e0       	ldi	r27, 0x00	; 0
    1598:	e8 22       	and	r14, r24
    159a:	f9 22       	and	r15, r25
    159c:	0a 23       	and	r16, r26
    159e:	1b 23       	and	r17, r27
    15a0:	2e 0d       	add	r18, r14
    15a2:	3f 1d       	adc	r19, r15
    15a4:	40 1f       	adc	r20, r16
    15a6:	51 1f       	adc	r21, r17
    15a8:	21 50       	subi	r18, 0x01	; 1
    15aa:	3e 4f       	sbci	r19, 0xFE	; 254
    15ac:	4f 4f       	sbci	r20, 0xFF	; 255
    15ae:	5f 4f       	sbci	r21, 0xFF	; 255
    15b0:	69 e0       	ldi	r22, 0x09	; 9
    15b2:	56 95       	lsr	r21
    15b4:	47 95       	ror	r20
    15b6:	37 95       	ror	r19
    15b8:	27 95       	ror	r18
    15ba:	6a 95       	dec	r22
    15bc:	d1 f7       	brne	.-12     	; 0x15b2 <chk_mounted+0x3a0>
    15be:	e9 85       	ldd	r30, Y+9	; 0x09
    15c0:	fa 85       	ldd	r31, Y+10	; 0x0a
    15c2:	82 8d       	ldd	r24, Z+26	; 0x1a
    15c4:	93 8d       	ldd	r25, Z+27	; 0x1b
    15c6:	a4 8d       	ldd	r26, Z+28	; 0x1c
    15c8:	b5 8d       	ldd	r27, Z+29	; 0x1d
    15ca:	82 17       	cp	r24, r18
    15cc:	93 07       	cpc	r25, r19
    15ce:	a4 07       	cpc	r26, r20
    15d0:	b5 07       	cpc	r27, r21
    15d2:	08 f4       	brcc	.+2      	; 0x15d6 <chk_mounted+0x3c4>
    15d4:	91 c0       	rjmp	.+290    	; 0x16f8 <chk_mounted+0x4e6>
    15d6:	8f ef       	ldi	r24, 0xFF	; 255
    15d8:	9f ef       	ldi	r25, 0xFF	; 255
    15da:	af ef       	ldi	r26, 0xFF	; 255
    15dc:	bf ef       	ldi	r27, 0xFF	; 255
    15de:	86 87       	std	Z+14, r24	; 0x0e
    15e0:	97 87       	std	Z+15, r25	; 0x0f
    15e2:	a0 8b       	std	Z+16, r26	; 0x10
    15e4:	b1 8b       	std	Z+17, r27	; 0x11
    15e6:	12 86       	std	Z+10, r1	; 0x0a
    15e8:	13 86       	std	Z+11, r1	; 0x0b
    15ea:	14 86       	std	Z+12, r1	; 0x0c
    15ec:	15 86       	std	Z+13, r1	; 0x0d
    15ee:	b3 e0       	ldi	r27, 0x03	; 3
    15f0:	9b 16       	cp	r9, r27
    15f2:	09 f0       	breq	.+2      	; 0x15f6 <chk_mounted+0x3e4>
    15f4:	65 c0       	rjmp	.+202    	; 0x16c0 <chk_mounted+0x4ae>
    15f6:	15 82       	std	Z+5, r1	; 0x05
    15f8:	e2 5a       	subi	r30, 0xA2	; 162
    15fa:	ff 4f       	sbci	r31, 0xFF	; 255
    15fc:	20 81       	ld	r18, Z
    15fe:	31 81       	ldd	r19, Z+1	; 0x01
    1600:	ee 55       	subi	r30, 0x5E	; 94
    1602:	f0 40       	sbci	r31, 0x00	; 0
    1604:	fa 87       	std	Y+10, r31	; 0x0a
    1606:	e9 87       	std	Y+9, r30	; 0x09
    1608:	40 e0       	ldi	r20, 0x00	; 0
    160a:	50 e0       	ldi	r21, 0x00	; 0
    160c:	22 0d       	add	r18, r2
    160e:	33 1d       	adc	r19, r3
    1610:	44 1d       	adc	r20, r4
    1612:	55 1d       	adc	r21, r5
    1614:	22 8b       	std	Z+18, r18	; 0x12
    1616:	33 8b       	std	Z+19, r19	; 0x13
    1618:	44 8b       	std	Z+20, r20	; 0x14
    161a:	55 8b       	std	Z+21, r21	; 0x15
    161c:	bf 01       	movw	r22, r30
    161e:	62 5d       	subi	r22, 0xD2	; 210
    1620:	7f 4f       	sbci	r23, 0xFF	; 255
    1622:	81 81       	ldd	r24, Z+1	; 0x01
    1624:	01 e0       	ldi	r16, 0x01	; 1
    1626:	0e 94 04 26 	call	0x4c08	; 0x4c08 <disk_read>
    162a:	88 23       	and	r24, r24
    162c:	09 f0       	breq	.+2      	; 0x1630 <chk_mounted+0x41e>
    162e:	48 c0       	rjmp	.+144    	; 0x16c0 <chk_mounted+0x4ae>
    1630:	e9 85       	ldd	r30, Y+9	; 0x09
    1632:	fa 85       	ldd	r31, Y+10	; 0x0a
    1634:	e4 5d       	subi	r30, 0xD4	; 212
    1636:	fd 4f       	sbci	r31, 0xFD	; 253
    1638:	80 81       	ld	r24, Z
    163a:	91 81       	ldd	r25, Z+1	; 0x01
    163c:	ec 52       	subi	r30, 0x2C	; 44
    163e:	f2 40       	sbci	r31, 0x02	; 2
    1640:	fa 87       	std	Y+10, r31	; 0x0a
    1642:	e9 87       	std	Y+9, r30	; 0x09
    1644:	85 55       	subi	r24, 0x55	; 85
    1646:	9a 4a       	sbci	r25, 0xAA	; 170
    1648:	09 f0       	breq	.+2      	; 0x164c <chk_mounted+0x43a>
    164a:	3a c0       	rjmp	.+116    	; 0x16c0 <chk_mounted+0x4ae>
    164c:	e9 85       	ldd	r30, Y+9	; 0x09
    164e:	fa 85       	ldd	r31, Y+10	; 0x0a
    1650:	86 a5       	ldd	r24, Z+46	; 0x2e
    1652:	97 a5       	ldd	r25, Z+47	; 0x2f
    1654:	a0 a9       	ldd	r26, Z+48	; 0x30
    1656:	b1 a9       	ldd	r27, Z+49	; 0x31
    1658:	82 55       	subi	r24, 0x52	; 82
    165a:	92 45       	sbci	r25, 0x52	; 82
    165c:	a1 46       	sbci	r26, 0x61	; 97
    165e:	b1 44       	sbci	r27, 0x41	; 65
    1660:	79 f5       	brne	.+94     	; 0x16c0 <chk_mounted+0x4ae>
    1662:	29 85       	ldd	r18, Y+9	; 0x09
    1664:	3a 85       	ldd	r19, Y+10	; 0x0a
    1666:	2e 5e       	subi	r18, 0xEE	; 238
    1668:	3d 4f       	sbci	r19, 0xFD	; 253
    166a:	f9 01       	movw	r30, r18
    166c:	80 81       	ld	r24, Z
    166e:	91 81       	ldd	r25, Z+1	; 0x01
    1670:	a2 81       	ldd	r26, Z+2	; 0x02
    1672:	b3 81       	ldd	r27, Z+3	; 0x03
    1674:	e2 51       	subi	r30, 0x12	; 18
    1676:	f2 40       	sbci	r31, 0x02	; 2
    1678:	fa 87       	std	Y+10, r31	; 0x0a
    167a:	e9 87       	std	Y+9, r30	; 0x09
    167c:	82 57       	subi	r24, 0x72	; 114
    167e:	92 47       	sbci	r25, 0x72	; 114
    1680:	a1 44       	sbci	r26, 0x41	; 65
    1682:	b1 46       	sbci	r27, 0x61	; 97
    1684:	e9 f4       	brne	.+58     	; 0x16c0 <chk_mounted+0x4ae>
    1686:	29 85       	ldd	r18, Y+9	; 0x09
    1688:	3a 85       	ldd	r19, Y+10	; 0x0a
    168a:	26 5e       	subi	r18, 0xE6	; 230
    168c:	3d 4f       	sbci	r19, 0xFD	; 253
    168e:	f9 01       	movw	r30, r18
    1690:	80 81       	ld	r24, Z
    1692:	91 81       	ldd	r25, Z+1	; 0x01
    1694:	a2 81       	ldd	r26, Z+2	; 0x02
    1696:	b3 81       	ldd	r27, Z+3	; 0x03
    1698:	ea 51       	subi	r30, 0x1A	; 26
    169a:	f2 40       	sbci	r31, 0x02	; 2
    169c:	82 87       	std	Z+10, r24	; 0x0a
    169e:	93 87       	std	Z+11, r25	; 0x0b
    16a0:	a4 87       	std	Z+12, r26	; 0x0c
    16a2:	b5 87       	std	Z+13, r27	; 0x0d
    16a4:	ea 5e       	subi	r30, 0xEA	; 234
    16a6:	fd 4f       	sbci	r31, 0xFD	; 253
    16a8:	80 81       	ld	r24, Z
    16aa:	91 81       	ldd	r25, Z+1	; 0x01
    16ac:	a2 81       	ldd	r26, Z+2	; 0x02
    16ae:	b3 81       	ldd	r27, Z+3	; 0x03
    16b0:	e6 51       	subi	r30, 0x16	; 22
    16b2:	f2 40       	sbci	r31, 0x02	; 2
    16b4:	fa 87       	std	Y+10, r31	; 0x0a
    16b6:	e9 87       	std	Y+9, r30	; 0x09
    16b8:	86 87       	std	Z+14, r24	; 0x0e
    16ba:	97 87       	std	Z+15, r25	; 0x0f
    16bc:	a0 8b       	std	Z+16, r26	; 0x10
    16be:	b1 8b       	std	Z+17, r27	; 0x11
    16c0:	a9 85       	ldd	r26, Y+9	; 0x09
    16c2:	ba 85       	ldd	r27, Y+10	; 0x0a
    16c4:	9c 92       	st	X, r9
    16c6:	80 91 56 06 	lds	r24, 0x0656
    16ca:	90 91 57 06 	lds	r25, 0x0657
    16ce:	01 96       	adiw	r24, 0x01	; 1
    16d0:	90 93 57 06 	sts	0x0657, r25
    16d4:	80 93 56 06 	sts	0x0656, r24
    16d8:	17 96       	adiw	r26, 0x07	; 7
    16da:	9c 93       	st	X, r25
    16dc:	8e 93       	st	-X, r24
    16de:	16 97       	sbiw	r26, 0x06	; 6
    16e0:	e9 85       	ldd	r30, Y+9	; 0x09
    16e2:	fa 85       	ldd	r31, Y+10	; 0x0a
    16e4:	12 a6       	std	Z+42, r1	; 0x2a
    16e6:	13 a6       	std	Z+43, r1	; 0x2b
    16e8:	14 a6       	std	Z+44, r1	; 0x2c
    16ea:	15 a6       	std	Z+45, r1	; 0x2d
    16ec:	14 82       	std	Z+4, r1	; 0x04
    16ee:	02 c0       	rjmp	.+4      	; 0x16f4 <chk_mounted+0x4e2>
    16f0:	8a e0       	ldi	r24, 0x0A	; 10
    16f2:	03 c0       	rjmp	.+6      	; 0x16fa <chk_mounted+0x4e8>
    16f4:	80 e0       	ldi	r24, 0x00	; 0
    16f6:	01 c0       	rjmp	.+2      	; 0x16fa <chk_mounted+0x4e8>
    16f8:	8d e0       	ldi	r24, 0x0D	; 13
    16fa:	2a 96       	adiw	r28, 0x0a	; 10
    16fc:	0f b6       	in	r0, 0x3f	; 63
    16fe:	f8 94       	cli
    1700:	de bf       	out	0x3e, r29	; 62
    1702:	0f be       	out	0x3f, r0	; 63
    1704:	cd bf       	out	0x3d, r28	; 61
    1706:	cf 91       	pop	r28
    1708:	df 91       	pop	r29
    170a:	1f 91       	pop	r17
    170c:	0f 91       	pop	r16
    170e:	ff 90       	pop	r15
    1710:	ef 90       	pop	r14
    1712:	df 90       	pop	r13
    1714:	cf 90       	pop	r12
    1716:	bf 90       	pop	r11
    1718:	af 90       	pop	r10
    171a:	9f 90       	pop	r9
    171c:	8f 90       	pop	r8
    171e:	7f 90       	pop	r7
    1720:	6f 90       	pop	r6
    1722:	5f 90       	pop	r5
    1724:	4f 90       	pop	r4
    1726:	3f 90       	pop	r3
    1728:	2f 90       	pop	r2
    172a:	08 95       	ret

0000172c <move_window>:
    172c:	6f 92       	push	r6
    172e:	7f 92       	push	r7
    1730:	8f 92       	push	r8
    1732:	9f 92       	push	r9
    1734:	af 92       	push	r10
    1736:	bf 92       	push	r11
    1738:	cf 92       	push	r12
    173a:	df 92       	push	r13
    173c:	ef 92       	push	r14
    173e:	ff 92       	push	r15
    1740:	0f 93       	push	r16
    1742:	1f 93       	push	r17
    1744:	cf 93       	push	r28
    1746:	df 93       	push	r29
    1748:	ec 01       	movw	r28, r24
    174a:	4a 01       	movw	r8, r20
    174c:	5b 01       	movw	r10, r22
    174e:	ca a4       	ldd	r12, Y+42	; 0x2a
    1750:	db a4       	ldd	r13, Y+43	; 0x2b
    1752:	ec a4       	ldd	r14, Y+44	; 0x2c
    1754:	fd a4       	ldd	r15, Y+45	; 0x2d
    1756:	c4 16       	cp	r12, r20
    1758:	d5 06       	cpc	r13, r21
    175a:	e6 06       	cpc	r14, r22
    175c:	f7 06       	cpc	r15, r23
    175e:	09 f4       	brne	.+2      	; 0x1762 <move_window+0x36>
    1760:	4e c0       	rjmp	.+156    	; 0x17fe <move_window+0xd2>
    1762:	8c 81       	ldd	r24, Y+4	; 0x04
    1764:	88 23       	and	r24, r24
    1766:	a1 f1       	breq	.+104    	; 0x17d0 <move_window+0xa4>
    1768:	fe e2       	ldi	r31, 0x2E	; 46
    176a:	6f 2e       	mov	r6, r31
    176c:	71 2c       	mov	r7, r1
    176e:	6c 0e       	add	r6, r28
    1770:	7d 1e       	adc	r7, r29
    1772:	89 81       	ldd	r24, Y+1	; 0x01
    1774:	b3 01       	movw	r22, r6
    1776:	a7 01       	movw	r20, r14
    1778:	96 01       	movw	r18, r12
    177a:	01 e0       	ldi	r16, 0x01	; 1
    177c:	0e 94 5c 26 	call	0x4cb8	; 0x4cb8 <disk_write>
    1780:	88 23       	and	r24, r24
    1782:	d9 f5       	brne	.+118    	; 0x17fa <move_window+0xce>
    1784:	1c 82       	std	Y+4, r1	; 0x04
    1786:	8a 8d       	ldd	r24, Y+26	; 0x1a
    1788:	9b 8d       	ldd	r25, Y+27	; 0x1b
    178a:	ac 8d       	ldd	r26, Y+28	; 0x1c
    178c:	bd 8d       	ldd	r27, Y+29	; 0x1d
    178e:	2e 8d       	ldd	r18, Y+30	; 0x1e
    1790:	3f 8d       	ldd	r19, Y+31	; 0x1f
    1792:	48 a1       	ldd	r20, Y+32	; 0x20
    1794:	59 a1       	ldd	r21, Y+33	; 0x21
    1796:	82 0f       	add	r24, r18
    1798:	93 1f       	adc	r25, r19
    179a:	a4 1f       	adc	r26, r20
    179c:	b5 1f       	adc	r27, r21
    179e:	c8 16       	cp	r12, r24
    17a0:	d9 06       	cpc	r13, r25
    17a2:	ea 06       	cpc	r14, r26
    17a4:	fb 06       	cpc	r15, r27
    17a6:	a0 f4       	brcc	.+40     	; 0x17d0 <move_window+0xa4>
    17a8:	1b 81       	ldd	r17, Y+3	; 0x03
    17aa:	10 c0       	rjmp	.+32     	; 0x17cc <move_window+0xa0>
    17ac:	8a 8d       	ldd	r24, Y+26	; 0x1a
    17ae:	9b 8d       	ldd	r25, Y+27	; 0x1b
    17b0:	ac 8d       	ldd	r26, Y+28	; 0x1c
    17b2:	bd 8d       	ldd	r27, Y+29	; 0x1d
    17b4:	c8 0e       	add	r12, r24
    17b6:	d9 1e       	adc	r13, r25
    17b8:	ea 1e       	adc	r14, r26
    17ba:	fb 1e       	adc	r15, r27
    17bc:	89 81       	ldd	r24, Y+1	; 0x01
    17be:	b3 01       	movw	r22, r6
    17c0:	a7 01       	movw	r20, r14
    17c2:	96 01       	movw	r18, r12
    17c4:	01 e0       	ldi	r16, 0x01	; 1
    17c6:	0e 94 5c 26 	call	0x4cb8	; 0x4cb8 <disk_write>
    17ca:	11 50       	subi	r17, 0x01	; 1
    17cc:	12 30       	cpi	r17, 0x02	; 2
    17ce:	70 f7       	brcc	.-36     	; 0x17ac <move_window+0x80>
    17d0:	81 14       	cp	r8, r1
    17d2:	91 04       	cpc	r9, r1
    17d4:	a1 04       	cpc	r10, r1
    17d6:	b1 04       	cpc	r11, r1
    17d8:	91 f0       	breq	.+36     	; 0x17fe <move_window+0xd2>
    17da:	be 01       	movw	r22, r28
    17dc:	62 5d       	subi	r22, 0xD2	; 210
    17de:	7f 4f       	sbci	r23, 0xFF	; 255
    17e0:	89 81       	ldd	r24, Y+1	; 0x01
    17e2:	a5 01       	movw	r20, r10
    17e4:	94 01       	movw	r18, r8
    17e6:	01 e0       	ldi	r16, 0x01	; 1
    17e8:	0e 94 04 26 	call	0x4c08	; 0x4c08 <disk_read>
    17ec:	88 23       	and	r24, r24
    17ee:	29 f4       	brne	.+10     	; 0x17fa <move_window+0xce>
    17f0:	8a a6       	std	Y+42, r8	; 0x2a
    17f2:	9b a6       	std	Y+43, r9	; 0x2b
    17f4:	ac a6       	std	Y+44, r10	; 0x2c
    17f6:	bd a6       	std	Y+45, r11	; 0x2d
    17f8:	03 c0       	rjmp	.+6      	; 0x1800 <move_window+0xd4>
    17fa:	81 e0       	ldi	r24, 0x01	; 1
    17fc:	01 c0       	rjmp	.+2      	; 0x1800 <move_window+0xd4>
    17fe:	80 e0       	ldi	r24, 0x00	; 0
    1800:	df 91       	pop	r29
    1802:	cf 91       	pop	r28
    1804:	1f 91       	pop	r17
    1806:	0f 91       	pop	r16
    1808:	ff 90       	pop	r15
    180a:	ef 90       	pop	r14
    180c:	df 90       	pop	r13
    180e:	cf 90       	pop	r12
    1810:	bf 90       	pop	r11
    1812:	af 90       	pop	r10
    1814:	9f 90       	pop	r9
    1816:	8f 90       	pop	r8
    1818:	7f 90       	pop	r7
    181a:	6f 90       	pop	r6
    181c:	08 95       	ret

0000181e <sync>:
    181e:	0f 93       	push	r16
    1820:	cf 93       	push	r28
    1822:	df 93       	push	r29
    1824:	ec 01       	movw	r28, r24
    1826:	40 e0       	ldi	r20, 0x00	; 0
    1828:	50 e0       	ldi	r21, 0x00	; 0
    182a:	60 e0       	ldi	r22, 0x00	; 0
    182c:	70 e0       	ldi	r23, 0x00	; 0
    182e:	0e 94 96 0b 	call	0x172c	; 0x172c <move_window>
    1832:	88 23       	and	r24, r24
    1834:	09 f0       	breq	.+2      	; 0x1838 <sync+0x1a>
    1836:	5e c0       	rjmp	.+188    	; 0x18f4 <sync+0xd6>
    1838:	88 81       	ld	r24, Y
    183a:	83 30       	cpi	r24, 0x03	; 3
    183c:	09 f0       	breq	.+2      	; 0x1840 <sync+0x22>
    183e:	52 c0       	rjmp	.+164    	; 0x18e4 <sync+0xc6>
    1840:	8d 81       	ldd	r24, Y+5	; 0x05
    1842:	88 23       	and	r24, r24
    1844:	09 f4       	brne	.+2      	; 0x1848 <sync+0x2a>
    1846:	4e c0       	rjmp	.+156    	; 0x18e4 <sync+0xc6>
    1848:	1a a6       	std	Y+42, r1	; 0x2a
    184a:	1b a6       	std	Y+43, r1	; 0x2b
    184c:	1c a6       	std	Y+44, r1	; 0x2c
    184e:	1d a6       	std	Y+45, r1	; 0x2d
    1850:	be 01       	movw	r22, r28
    1852:	62 5d       	subi	r22, 0xD2	; 210
    1854:	7f 4f       	sbci	r23, 0xFF	; 255
    1856:	fb 01       	movw	r30, r22
    1858:	80 e0       	ldi	r24, 0x00	; 0
    185a:	92 e0       	ldi	r25, 0x02	; 2
    185c:	01 c0       	rjmp	.+2      	; 0x1860 <sync+0x42>
    185e:	11 92       	st	Z+, r1
    1860:	01 97       	sbiw	r24, 0x01	; 1
    1862:	2f ef       	ldi	r18, 0xFF	; 255
    1864:	8f 3f       	cpi	r24, 0xFF	; 255
    1866:	92 07       	cpc	r25, r18
    1868:	d1 f7       	brne	.-12     	; 0x185e <sync+0x40>
    186a:	c4 5d       	subi	r28, 0xD4	; 212
    186c:	dd 4f       	sbci	r29, 0xFD	; 253
    186e:	85 e5       	ldi	r24, 0x55	; 85
    1870:	9a ea       	ldi	r25, 0xAA	; 170
    1872:	99 83       	std	Y+1, r25	; 0x01
    1874:	88 83       	st	Y, r24
    1876:	cc 52       	subi	r28, 0x2C	; 44
    1878:	d2 40       	sbci	r29, 0x02	; 2
    187a:	82 e5       	ldi	r24, 0x52	; 82
    187c:	92 e5       	ldi	r25, 0x52	; 82
    187e:	a1 e6       	ldi	r26, 0x61	; 97
    1880:	b1 e4       	ldi	r27, 0x41	; 65
    1882:	8e a7       	std	Y+46, r24	; 0x2e
    1884:	9f a7       	std	Y+47, r25	; 0x2f
    1886:	a8 ab       	std	Y+48, r26	; 0x30
    1888:	b9 ab       	std	Y+49, r27	; 0x31
    188a:	ce 5e       	subi	r28, 0xEE	; 238
    188c:	dd 4f       	sbci	r29, 0xFD	; 253
    188e:	82 e7       	ldi	r24, 0x72	; 114
    1890:	92 e7       	ldi	r25, 0x72	; 114
    1892:	a1 e4       	ldi	r26, 0x41	; 65
    1894:	b1 e6       	ldi	r27, 0x61	; 97
    1896:	88 83       	st	Y, r24
    1898:	99 83       	std	Y+1, r25	; 0x01
    189a:	aa 83       	std	Y+2, r26	; 0x02
    189c:	bb 83       	std	Y+3, r27	; 0x03
    189e:	c2 51       	subi	r28, 0x12	; 18
    18a0:	d2 40       	sbci	r29, 0x02	; 2
    18a2:	8e 85       	ldd	r24, Y+14	; 0x0e
    18a4:	9f 85       	ldd	r25, Y+15	; 0x0f
    18a6:	a8 89       	ldd	r26, Y+16	; 0x10
    18a8:	b9 89       	ldd	r27, Y+17	; 0x11
    18aa:	ca 5e       	subi	r28, 0xEA	; 234
    18ac:	dd 4f       	sbci	r29, 0xFD	; 253
    18ae:	88 83       	st	Y, r24
    18b0:	99 83       	std	Y+1, r25	; 0x01
    18b2:	aa 83       	std	Y+2, r26	; 0x02
    18b4:	bb 83       	std	Y+3, r27	; 0x03
    18b6:	c6 51       	subi	r28, 0x16	; 22
    18b8:	d2 40       	sbci	r29, 0x02	; 2
    18ba:	8a 85       	ldd	r24, Y+10	; 0x0a
    18bc:	9b 85       	ldd	r25, Y+11	; 0x0b
    18be:	ac 85       	ldd	r26, Y+12	; 0x0c
    18c0:	bd 85       	ldd	r27, Y+13	; 0x0d
    18c2:	c6 5e       	subi	r28, 0xE6	; 230
    18c4:	dd 4f       	sbci	r29, 0xFD	; 253
    18c6:	88 83       	st	Y, r24
    18c8:	99 83       	std	Y+1, r25	; 0x01
    18ca:	aa 83       	std	Y+2, r26	; 0x02
    18cc:	bb 83       	std	Y+3, r27	; 0x03
    18ce:	ca 51       	subi	r28, 0x1A	; 26
    18d0:	d2 40       	sbci	r29, 0x02	; 2
    18d2:	2a 89       	ldd	r18, Y+18	; 0x12
    18d4:	3b 89       	ldd	r19, Y+19	; 0x13
    18d6:	4c 89       	ldd	r20, Y+20	; 0x14
    18d8:	5d 89       	ldd	r21, Y+21	; 0x15
    18da:	89 81       	ldd	r24, Y+1	; 0x01
    18dc:	01 e0       	ldi	r16, 0x01	; 1
    18de:	0e 94 5c 26 	call	0x4cb8	; 0x4cb8 <disk_write>
    18e2:	1d 82       	std	Y+5, r1	; 0x05
    18e4:	89 81       	ldd	r24, Y+1	; 0x01
    18e6:	60 e0       	ldi	r22, 0x00	; 0
    18e8:	40 e0       	ldi	r20, 0x00	; 0
    18ea:	50 e0       	ldi	r21, 0x00	; 0
    18ec:	0e 94 cc 26 	call	0x4d98	; 0x4d98 <disk_ioctl>
    18f0:	81 11       	cpse	r24, r1
    18f2:	81 e0       	ldi	r24, 0x01	; 1
    18f4:	df 91       	pop	r29
    18f6:	cf 91       	pop	r28
    18f8:	0f 91       	pop	r16
    18fa:	08 95       	ret

000018fc <f_sync>:
    18fc:	0f 93       	push	r16
    18fe:	1f 93       	push	r17
    1900:	cf 93       	push	r28
    1902:	df 93       	push	r29
    1904:	ec 01       	movw	r28, r24
    1906:	6a 81       	ldd	r22, Y+2	; 0x02
    1908:	7b 81       	ldd	r23, Y+3	; 0x03
    190a:	88 81       	ld	r24, Y
    190c:	99 81       	ldd	r25, Y+1	; 0x01
    190e:	0e 94 b4 08 	call	0x1168	; 0x1168 <validate>
    1912:	98 2f       	mov	r25, r24
    1914:	88 23       	and	r24, r24
    1916:	09 f0       	breq	.+2      	; 0x191a <f_sync+0x1e>
    1918:	52 c0       	rjmp	.+164    	; 0x19be <f_sync+0xc2>
    191a:	8c 81       	ldd	r24, Y+4	; 0x04
    191c:	85 ff       	sbrs	r24, 5
    191e:	4f c0       	rjmp	.+158    	; 0x19be <f_sync+0xc2>
    1920:	86 ff       	sbrs	r24, 6
    1922:	14 c0       	rjmp	.+40     	; 0x194c <f_sync+0x50>
    1924:	e8 81       	ld	r30, Y
    1926:	f9 81       	ldd	r31, Y+1	; 0x01
    1928:	be 01       	movw	r22, r28
    192a:	60 5e       	subi	r22, 0xE0	; 224
    192c:	7f 4f       	sbci	r23, 0xFF	; 255
    192e:	2e 89       	ldd	r18, Y+22	; 0x16
    1930:	3f 89       	ldd	r19, Y+23	; 0x17
    1932:	48 8d       	ldd	r20, Y+24	; 0x18
    1934:	59 8d       	ldd	r21, Y+25	; 0x19
    1936:	81 81       	ldd	r24, Z+1	; 0x01
    1938:	01 e0       	ldi	r16, 0x01	; 1
    193a:	0e 94 5c 26 	call	0x4cb8	; 0x4cb8 <disk_write>
    193e:	88 23       	and	r24, r24
    1940:	11 f0       	breq	.+4      	; 0x1946 <f_sync+0x4a>
    1942:	91 e0       	ldi	r25, 0x01	; 1
    1944:	3c c0       	rjmp	.+120    	; 0x19be <f_sync+0xc2>
    1946:	8c 81       	ldd	r24, Y+4	; 0x04
    1948:	8f 7b       	andi	r24, 0xBF	; 191
    194a:	8c 83       	std	Y+4, r24	; 0x04
    194c:	4a 8d       	ldd	r20, Y+26	; 0x1a
    194e:	5b 8d       	ldd	r21, Y+27	; 0x1b
    1950:	6c 8d       	ldd	r22, Y+28	; 0x1c
    1952:	7d 8d       	ldd	r23, Y+29	; 0x1d
    1954:	88 81       	ld	r24, Y
    1956:	99 81       	ldd	r25, Y+1	; 0x01
    1958:	0e 94 96 0b 	call	0x172c	; 0x172c <move_window>
    195c:	98 2f       	mov	r25, r24
    195e:	88 23       	and	r24, r24
    1960:	71 f5       	brne	.+92     	; 0x19be <f_sync+0xc2>
    1962:	0e 8d       	ldd	r16, Y+30	; 0x1e
    1964:	1f 8d       	ldd	r17, Y+31	; 0x1f
    1966:	f8 01       	movw	r30, r16
    1968:	83 85       	ldd	r24, Z+11	; 0x0b
    196a:	80 62       	ori	r24, 0x20	; 32
    196c:	83 87       	std	Z+11, r24	; 0x0b
    196e:	8a 85       	ldd	r24, Y+10	; 0x0a
    1970:	9b 85       	ldd	r25, Y+11	; 0x0b
    1972:	ac 85       	ldd	r26, Y+12	; 0x0c
    1974:	bd 85       	ldd	r27, Y+13	; 0x0d
    1976:	84 8f       	std	Z+28, r24	; 0x1c
    1978:	95 8f       	std	Z+29, r25	; 0x1d
    197a:	a6 8f       	std	Z+30, r26	; 0x1e
    197c:	b7 8f       	std	Z+31, r27	; 0x1f
    197e:	8e 85       	ldd	r24, Y+14	; 0x0e
    1980:	9f 85       	ldd	r25, Y+15	; 0x0f
    1982:	93 8f       	std	Z+27, r25	; 0x1b
    1984:	82 8f       	std	Z+26, r24	; 0x1a
    1986:	8e 85       	ldd	r24, Y+14	; 0x0e
    1988:	9f 85       	ldd	r25, Y+15	; 0x0f
    198a:	a8 89       	ldd	r26, Y+16	; 0x10
    198c:	b9 89       	ldd	r27, Y+17	; 0x11
    198e:	cd 01       	movw	r24, r26
    1990:	aa 27       	eor	r26, r26
    1992:	bb 27       	eor	r27, r27
    1994:	95 8b       	std	Z+21, r25	; 0x15
    1996:	84 8b       	std	Z+20, r24	; 0x14
    1998:	0e 94 5f 00 	call	0xbe	; 0xbe <get_fattime>
    199c:	f8 01       	movw	r30, r16
    199e:	66 8b       	std	Z+22, r22	; 0x16
    19a0:	77 8b       	std	Z+23, r23	; 0x17
    19a2:	80 8f       	std	Z+24, r24	; 0x18
    19a4:	91 8f       	std	Z+25, r25	; 0x19
    19a6:	8c 81       	ldd	r24, Y+4	; 0x04
    19a8:	8f 7d       	andi	r24, 0xDF	; 223
    19aa:	8c 83       	std	Y+4, r24	; 0x04
    19ac:	e8 81       	ld	r30, Y
    19ae:	f9 81       	ldd	r31, Y+1	; 0x01
    19b0:	81 e0       	ldi	r24, 0x01	; 1
    19b2:	84 83       	std	Z+4, r24	; 0x04
    19b4:	88 81       	ld	r24, Y
    19b6:	99 81       	ldd	r25, Y+1	; 0x01
    19b8:	0e 94 0f 0c 	call	0x181e	; 0x181e <sync>
    19bc:	98 2f       	mov	r25, r24
    19be:	89 2f       	mov	r24, r25
    19c0:	df 91       	pop	r29
    19c2:	cf 91       	pop	r28
    19c4:	1f 91       	pop	r17
    19c6:	0f 91       	pop	r16
    19c8:	08 95       	ret

000019ca <f_close>:
    19ca:	cf 93       	push	r28
    19cc:	df 93       	push	r29
    19ce:	ec 01       	movw	r28, r24
    19d0:	0e 94 7e 0c 	call	0x18fc	; 0x18fc <f_sync>
    19d4:	88 23       	and	r24, r24
    19d6:	11 f4       	brne	.+4      	; 0x19dc <f_close+0x12>
    19d8:	19 82       	std	Y+1, r1	; 0x01
    19da:	18 82       	st	Y, r1
    19dc:	df 91       	pop	r29
    19de:	cf 91       	pop	r28
    19e0:	08 95       	ret

000019e2 <put_fat>:
    19e2:	8f 92       	push	r8
    19e4:	9f 92       	push	r9
    19e6:	af 92       	push	r10
    19e8:	bf 92       	push	r11
    19ea:	cf 92       	push	r12
    19ec:	df 92       	push	r13
    19ee:	ef 92       	push	r14
    19f0:	ff 92       	push	r15
    19f2:	0f 93       	push	r16
    19f4:	1f 93       	push	r17
    19f6:	cf 93       	push	r28
    19f8:	df 93       	push	r29
    19fa:	ec 01       	movw	r28, r24
    19fc:	6a 01       	movw	r12, r20
    19fe:	7b 01       	movw	r14, r22
    1a00:	48 01       	movw	r8, r16
    1a02:	59 01       	movw	r10, r18
    1a04:	42 30       	cpi	r20, 0x02	; 2
    1a06:	51 05       	cpc	r21, r1
    1a08:	61 05       	cpc	r22, r1
    1a0a:	71 05       	cpc	r23, r1
    1a0c:	08 f4       	brcc	.+2      	; 0x1a10 <put_fat+0x2e>
    1a0e:	d1 c0       	rjmp	.+418    	; 0x1bb2 <put_fat+0x1d0>
    1a10:	8e 89       	ldd	r24, Y+22	; 0x16
    1a12:	9f 89       	ldd	r25, Y+23	; 0x17
    1a14:	a8 8d       	ldd	r26, Y+24	; 0x18
    1a16:	b9 8d       	ldd	r27, Y+25	; 0x19
    1a18:	48 17       	cp	r20, r24
    1a1a:	59 07       	cpc	r21, r25
    1a1c:	6a 07       	cpc	r22, r26
    1a1e:	7b 07       	cpc	r23, r27
    1a20:	08 f0       	brcs	.+2      	; 0x1a24 <put_fat+0x42>
    1a22:	c7 c0       	rjmp	.+398    	; 0x1bb2 <put_fat+0x1d0>
    1a24:	88 81       	ld	r24, Y
    1a26:	82 30       	cpi	r24, 0x02	; 2
    1a28:	09 f4       	brne	.+2      	; 0x1a2c <put_fat+0x4a>
    1a2a:	70 c0       	rjmp	.+224    	; 0x1b0c <put_fat+0x12a>
    1a2c:	83 30       	cpi	r24, 0x03	; 3
    1a2e:	09 f4       	brne	.+2      	; 0x1a32 <put_fat+0x50>
    1a30:	8c c0       	rjmp	.+280    	; 0x1b4a <put_fat+0x168>
    1a32:	81 30       	cpi	r24, 0x01	; 1
    1a34:	11 f0       	breq	.+4      	; 0x1a3a <put_fat+0x58>
    1a36:	22 e0       	ldi	r18, 0x02	; 2
    1a38:	b9 c0       	rjmp	.+370    	; 0x1bac <put_fat+0x1ca>
    1a3a:	8a 01       	movw	r16, r20
    1a3c:	16 95       	lsr	r17
    1a3e:	07 95       	ror	r16
    1a40:	04 0f       	add	r16, r20
    1a42:	15 1f       	adc	r17, r21
    1a44:	a8 01       	movw	r20, r16
    1a46:	45 2f       	mov	r20, r21
    1a48:	55 27       	eor	r21, r21
    1a4a:	46 95       	lsr	r20
    1a4c:	60 e0       	ldi	r22, 0x00	; 0
    1a4e:	70 e0       	ldi	r23, 0x00	; 0
    1a50:	8e 8d       	ldd	r24, Y+30	; 0x1e
    1a52:	9f 8d       	ldd	r25, Y+31	; 0x1f
    1a54:	a8 a1       	ldd	r26, Y+32	; 0x20
    1a56:	b9 a1       	ldd	r27, Y+33	; 0x21
    1a58:	48 0f       	add	r20, r24
    1a5a:	59 1f       	adc	r21, r25
    1a5c:	6a 1f       	adc	r22, r26
    1a5e:	7b 1f       	adc	r23, r27
    1a60:	ce 01       	movw	r24, r28
    1a62:	0e 94 96 0b 	call	0x172c	; 0x172c <move_window>
    1a66:	28 2f       	mov	r18, r24
    1a68:	88 23       	and	r24, r24
    1a6a:	09 f0       	breq	.+2      	; 0x1a6e <put_fat+0x8c>
    1a6c:	9f c0       	rjmp	.+318    	; 0x1bac <put_fat+0x1ca>
    1a6e:	d8 01       	movw	r26, r16
    1a70:	b1 70       	andi	r27, 0x01	; 1
    1a72:	91 e0       	ldi	r25, 0x01	; 1
    1a74:	e9 2e       	mov	r14, r25
    1a76:	f1 2c       	mov	r15, r1
    1a78:	ec 20       	and	r14, r12
    1a7a:	fd 20       	and	r15, r13
    1a7c:	e1 14       	cp	r14, r1
    1a7e:	f1 04       	cpc	r15, r1
    1a80:	51 f0       	breq	.+20     	; 0x1a96 <put_fat+0xb4>
    1a82:	fe 01       	movw	r30, r28
    1a84:	ea 0f       	add	r30, r26
    1a86:	fb 1f       	adc	r31, r27
    1a88:	86 a5       	ldd	r24, Z+46	; 0x2e
    1a8a:	8f 70       	andi	r24, 0x0F	; 15
    1a8c:	98 2d       	mov	r25, r8
    1a8e:	92 95       	swap	r25
    1a90:	90 7f       	andi	r25, 0xF0	; 240
    1a92:	98 2b       	or	r25, r24
    1a94:	01 c0       	rjmp	.+2      	; 0x1a98 <put_fat+0xb6>
    1a96:	98 2d       	mov	r25, r8
    1a98:	ac 0f       	add	r26, r28
    1a9a:	bd 1f       	adc	r27, r29
    1a9c:	9e 96       	adiw	r26, 0x2e	; 46
    1a9e:	9c 93       	st	X, r25
    1aa0:	0f 5f       	subi	r16, 0xFF	; 255
    1aa2:	1f 4f       	sbci	r17, 0xFF	; 255
    1aa4:	81 e0       	ldi	r24, 0x01	; 1
    1aa6:	8c 83       	std	Y+4, r24	; 0x04
    1aa8:	a8 01       	movw	r20, r16
    1aaa:	45 2f       	mov	r20, r21
    1aac:	55 27       	eor	r21, r21
    1aae:	46 95       	lsr	r20
    1ab0:	60 e0       	ldi	r22, 0x00	; 0
    1ab2:	70 e0       	ldi	r23, 0x00	; 0
    1ab4:	8e 8d       	ldd	r24, Y+30	; 0x1e
    1ab6:	9f 8d       	ldd	r25, Y+31	; 0x1f
    1ab8:	a8 a1       	ldd	r26, Y+32	; 0x20
    1aba:	b9 a1       	ldd	r27, Y+33	; 0x21
    1abc:	48 0f       	add	r20, r24
    1abe:	59 1f       	adc	r21, r25
    1ac0:	6a 1f       	adc	r22, r26
    1ac2:	7b 1f       	adc	r23, r27
    1ac4:	ce 01       	movw	r24, r28
    1ac6:	0e 94 96 0b 	call	0x172c	; 0x172c <move_window>
    1aca:	28 2f       	mov	r18, r24
    1acc:	88 23       	and	r24, r24
    1ace:	09 f0       	breq	.+2      	; 0x1ad2 <put_fat+0xf0>
    1ad0:	6d c0       	rjmp	.+218    	; 0x1bac <put_fat+0x1ca>
    1ad2:	a8 01       	movw	r20, r16
    1ad4:	51 70       	andi	r21, 0x01	; 1
    1ad6:	ef 28       	or	r14, r15
    1ad8:	49 f0       	breq	.+18     	; 0x1aec <put_fat+0x10a>
    1ada:	14 e0       	ldi	r17, 0x04	; 4
    1adc:	b6 94       	lsr	r11
    1ade:	a7 94       	ror	r10
    1ae0:	97 94       	ror	r9
    1ae2:	87 94       	ror	r8
    1ae4:	1a 95       	dec	r17
    1ae6:	d1 f7       	brne	.-12     	; 0x1adc <put_fat+0xfa>
    1ae8:	68 2d       	mov	r22, r8
    1aea:	0b c0       	rjmp	.+22     	; 0x1b02 <put_fat+0x120>
    1aec:	fe 01       	movw	r30, r28
    1aee:	e4 0f       	add	r30, r20
    1af0:	f5 1f       	adc	r31, r21
    1af2:	66 a5       	ldd	r22, Z+46	; 0x2e
    1af4:	60 7f       	andi	r22, 0xF0	; 240
    1af6:	bb 27       	eor	r27, r27
    1af8:	ab 2d       	mov	r26, r11
    1afa:	9a 2d       	mov	r25, r10
    1afc:	89 2d       	mov	r24, r9
    1afe:	8f 70       	andi	r24, 0x0F	; 15
    1b00:	68 2b       	or	r22, r24
    1b02:	4c 0f       	add	r20, r28
    1b04:	5d 1f       	adc	r21, r29
    1b06:	fa 01       	movw	r30, r20
    1b08:	66 a7       	std	Z+46, r22	; 0x2e
    1b0a:	50 c0       	rjmp	.+160    	; 0x1bac <put_fat+0x1ca>
    1b0c:	45 2f       	mov	r20, r21
    1b0e:	56 2f       	mov	r21, r22
    1b10:	67 2f       	mov	r22, r23
    1b12:	77 27       	eor	r23, r23
    1b14:	8e 8d       	ldd	r24, Y+30	; 0x1e
    1b16:	9f 8d       	ldd	r25, Y+31	; 0x1f
    1b18:	a8 a1       	ldd	r26, Y+32	; 0x20
    1b1a:	b9 a1       	ldd	r27, Y+33	; 0x21
    1b1c:	48 0f       	add	r20, r24
    1b1e:	59 1f       	adc	r21, r25
    1b20:	6a 1f       	adc	r22, r26
    1b22:	7b 1f       	adc	r23, r27
    1b24:	ce 01       	movw	r24, r28
    1b26:	0e 94 96 0b 	call	0x172c	; 0x172c <move_window>
    1b2a:	28 2f       	mov	r18, r24
    1b2c:	88 23       	and	r24, r24
    1b2e:	09 f0       	breq	.+2      	; 0x1b32 <put_fat+0x150>
    1b30:	3d c0       	rjmp	.+122    	; 0x1bac <put_fat+0x1ca>
    1b32:	cc 0c       	add	r12, r12
    1b34:	dd 1c       	adc	r13, r13
    1b36:	ee 1c       	adc	r14, r14
    1b38:	ff 1c       	adc	r15, r15
    1b3a:	f6 01       	movw	r30, r12
    1b3c:	f1 70       	andi	r31, 0x01	; 1
    1b3e:	be 96       	adiw	r30, 0x2e	; 46
    1b40:	ec 0f       	add	r30, r28
    1b42:	fd 1f       	adc	r31, r29
    1b44:	91 82       	std	Z+1, r9	; 0x01
    1b46:	80 82       	st	Z, r8
    1b48:	31 c0       	rjmp	.+98     	; 0x1bac <put_fat+0x1ca>
    1b4a:	e7 e0       	ldi	r30, 0x07	; 7
    1b4c:	76 95       	lsr	r23
    1b4e:	67 95       	ror	r22
    1b50:	57 95       	ror	r21
    1b52:	47 95       	ror	r20
    1b54:	ea 95       	dec	r30
    1b56:	d1 f7       	brne	.-12     	; 0x1b4c <put_fat+0x16a>
    1b58:	8e 8d       	ldd	r24, Y+30	; 0x1e
    1b5a:	9f 8d       	ldd	r25, Y+31	; 0x1f
    1b5c:	a8 a1       	ldd	r26, Y+32	; 0x20
    1b5e:	b9 a1       	ldd	r27, Y+33	; 0x21
    1b60:	48 0f       	add	r20, r24
    1b62:	59 1f       	adc	r21, r25
    1b64:	6a 1f       	adc	r22, r26
    1b66:	7b 1f       	adc	r23, r27
    1b68:	ce 01       	movw	r24, r28
    1b6a:	0e 94 96 0b 	call	0x172c	; 0x172c <move_window>
    1b6e:	28 2f       	mov	r18, r24
    1b70:	88 23       	and	r24, r24
    1b72:	e1 f4       	brne	.+56     	; 0x1bac <put_fat+0x1ca>
    1b74:	32 e0       	ldi	r19, 0x02	; 2
    1b76:	cc 0c       	add	r12, r12
    1b78:	dd 1c       	adc	r13, r13
    1b7a:	ee 1c       	adc	r14, r14
    1b7c:	ff 1c       	adc	r15, r15
    1b7e:	3a 95       	dec	r19
    1b80:	d1 f7       	brne	.-12     	; 0x1b76 <put_fat+0x194>
    1b82:	f6 01       	movw	r30, r12
    1b84:	f1 70       	andi	r31, 0x01	; 1
    1b86:	be 96       	adiw	r30, 0x2e	; 46
    1b88:	ec 0f       	add	r30, r28
    1b8a:	fd 1f       	adc	r31, r29
    1b8c:	80 81       	ld	r24, Z
    1b8e:	91 81       	ldd	r25, Z+1	; 0x01
    1b90:	a2 81       	ldd	r26, Z+2	; 0x02
    1b92:	b3 81       	ldd	r27, Z+3	; 0x03
    1b94:	80 70       	andi	r24, 0x00	; 0
    1b96:	90 70       	andi	r25, 0x00	; 0
    1b98:	a0 70       	andi	r26, 0x00	; 0
    1b9a:	b0 7f       	andi	r27, 0xF0	; 240
    1b9c:	88 29       	or	r24, r8
    1b9e:	99 29       	or	r25, r9
    1ba0:	aa 29       	or	r26, r10
    1ba2:	bb 29       	or	r27, r11
    1ba4:	80 83       	st	Z, r24
    1ba6:	91 83       	std	Z+1, r25	; 0x01
    1ba8:	a2 83       	std	Z+2, r26	; 0x02
    1baa:	b3 83       	std	Z+3, r27	; 0x03
    1bac:	81 e0       	ldi	r24, 0x01	; 1
    1bae:	8c 83       	std	Y+4, r24	; 0x04
    1bb0:	01 c0       	rjmp	.+2      	; 0x1bb4 <put_fat+0x1d2>
    1bb2:	22 e0       	ldi	r18, 0x02	; 2
    1bb4:	82 2f       	mov	r24, r18
    1bb6:	df 91       	pop	r29
    1bb8:	cf 91       	pop	r28
    1bba:	1f 91       	pop	r17
    1bbc:	0f 91       	pop	r16
    1bbe:	ff 90       	pop	r15
    1bc0:	ef 90       	pop	r14
    1bc2:	df 90       	pop	r13
    1bc4:	cf 90       	pop	r12
    1bc6:	bf 90       	pop	r11
    1bc8:	af 90       	pop	r10
    1bca:	9f 90       	pop	r9
    1bcc:	8f 90       	pop	r8
    1bce:	08 95       	ret

00001bd0 <get_fat>:
    1bd0:	bf 92       	push	r11
    1bd2:	cf 92       	push	r12
    1bd4:	df 92       	push	r13
    1bd6:	ef 92       	push	r14
    1bd8:	ff 92       	push	r15
    1bda:	0f 93       	push	r16
    1bdc:	1f 93       	push	r17
    1bde:	cf 93       	push	r28
    1be0:	df 93       	push	r29
    1be2:	6c 01       	movw	r12, r24
    1be4:	7a 01       	movw	r14, r20
    1be6:	8b 01       	movw	r16, r22
    1be8:	42 30       	cpi	r20, 0x02	; 2
    1bea:	51 05       	cpc	r21, r1
    1bec:	61 05       	cpc	r22, r1
    1bee:	71 05       	cpc	r23, r1
    1bf0:	08 f4       	brcc	.+2      	; 0x1bf4 <get_fat+0x24>
    1bf2:	ac c0       	rjmp	.+344    	; 0x1d4c <get_fat+0x17c>
    1bf4:	f6 01       	movw	r30, r12
    1bf6:	86 89       	ldd	r24, Z+22	; 0x16
    1bf8:	97 89       	ldd	r25, Z+23	; 0x17
    1bfa:	a0 8d       	ldd	r26, Z+24	; 0x18
    1bfc:	b1 8d       	ldd	r27, Z+25	; 0x19
    1bfe:	48 17       	cp	r20, r24
    1c00:	59 07       	cpc	r21, r25
    1c02:	6a 07       	cpc	r22, r26
    1c04:	7b 07       	cpc	r23, r27
    1c06:	08 f0       	brcs	.+2      	; 0x1c0a <get_fat+0x3a>
    1c08:	a1 c0       	rjmp	.+322    	; 0x1d4c <get_fat+0x17c>
    1c0a:	80 81       	ld	r24, Z
    1c0c:	82 30       	cpi	r24, 0x02	; 2
    1c0e:	09 f4       	brne	.+2      	; 0x1c12 <get_fat+0x42>
    1c10:	57 c0       	rjmp	.+174    	; 0x1cc0 <get_fat+0xf0>
    1c12:	83 30       	cpi	r24, 0x03	; 3
    1c14:	09 f4       	brne	.+2      	; 0x1c18 <get_fat+0x48>
    1c16:	74 c0       	rjmp	.+232    	; 0x1d00 <get_fat+0x130>
    1c18:	81 30       	cpi	r24, 0x01	; 1
    1c1a:	09 f0       	breq	.+2      	; 0x1c1e <get_fat+0x4e>
    1c1c:	9c c0       	rjmp	.+312    	; 0x1d56 <get_fat+0x186>
    1c1e:	ea 01       	movw	r28, r20
    1c20:	d6 95       	lsr	r29
    1c22:	c7 95       	ror	r28
    1c24:	c4 0f       	add	r28, r20
    1c26:	d5 1f       	adc	r29, r21
    1c28:	ae 01       	movw	r20, r28
    1c2a:	45 2f       	mov	r20, r21
    1c2c:	55 27       	eor	r21, r21
    1c2e:	46 95       	lsr	r20
    1c30:	60 e0       	ldi	r22, 0x00	; 0
    1c32:	70 e0       	ldi	r23, 0x00	; 0
    1c34:	f6 01       	movw	r30, r12
    1c36:	86 8d       	ldd	r24, Z+30	; 0x1e
    1c38:	97 8d       	ldd	r25, Z+31	; 0x1f
    1c3a:	a0 a1       	ldd	r26, Z+32	; 0x20
    1c3c:	b1 a1       	ldd	r27, Z+33	; 0x21
    1c3e:	48 0f       	add	r20, r24
    1c40:	59 1f       	adc	r21, r25
    1c42:	6a 1f       	adc	r22, r26
    1c44:	7b 1f       	adc	r23, r27
    1c46:	c6 01       	movw	r24, r12
    1c48:	0e 94 96 0b 	call	0x172c	; 0x172c <move_window>
    1c4c:	88 23       	and	r24, r24
    1c4e:	09 f0       	breq	.+2      	; 0x1c52 <get_fat+0x82>
    1c50:	82 c0       	rjmp	.+260    	; 0x1d56 <get_fat+0x186>
    1c52:	fe 01       	movw	r30, r28
    1c54:	f1 70       	andi	r31, 0x01	; 1
    1c56:	ec 0d       	add	r30, r12
    1c58:	fd 1d       	adc	r31, r13
    1c5a:	b6 a4       	ldd	r11, Z+46	; 0x2e
    1c5c:	21 96       	adiw	r28, 0x01	; 1
    1c5e:	ae 01       	movw	r20, r28
    1c60:	45 2f       	mov	r20, r21
    1c62:	55 27       	eor	r21, r21
    1c64:	46 95       	lsr	r20
    1c66:	60 e0       	ldi	r22, 0x00	; 0
    1c68:	70 e0       	ldi	r23, 0x00	; 0
    1c6a:	f6 01       	movw	r30, r12
    1c6c:	86 8d       	ldd	r24, Z+30	; 0x1e
    1c6e:	97 8d       	ldd	r25, Z+31	; 0x1f
    1c70:	a0 a1       	ldd	r26, Z+32	; 0x20
    1c72:	b1 a1       	ldd	r27, Z+33	; 0x21
    1c74:	48 0f       	add	r20, r24
    1c76:	59 1f       	adc	r21, r25
    1c78:	6a 1f       	adc	r22, r26
    1c7a:	7b 1f       	adc	r23, r27
    1c7c:	c6 01       	movw	r24, r12
    1c7e:	0e 94 96 0b 	call	0x172c	; 0x172c <move_window>
    1c82:	88 23       	and	r24, r24
    1c84:	09 f0       	breq	.+2      	; 0x1c88 <get_fat+0xb8>
    1c86:	67 c0       	rjmp	.+206    	; 0x1d56 <get_fat+0x186>
    1c88:	6b 2d       	mov	r22, r11
    1c8a:	70 e0       	ldi	r23, 0x00	; 0
    1c8c:	d1 70       	andi	r29, 0x01	; 1
    1c8e:	cc 0d       	add	r28, r12
    1c90:	dd 1d       	adc	r29, r13
    1c92:	9e a5       	ldd	r25, Y+46	; 0x2e
    1c94:	80 e0       	ldi	r24, 0x00	; 0
    1c96:	68 2b       	or	r22, r24
    1c98:	79 2b       	or	r23, r25
    1c9a:	c7 01       	movw	r24, r14
    1c9c:	81 70       	andi	r24, 0x01	; 1
    1c9e:	90 70       	andi	r25, 0x00	; 0
    1ca0:	89 2b       	or	r24, r25
    1ca2:	39 f0       	breq	.+14     	; 0x1cb2 <get_fat+0xe2>
    1ca4:	b4 e0       	ldi	r27, 0x04	; 4
    1ca6:	76 95       	lsr	r23
    1ca8:	67 95       	ror	r22
    1caa:	ba 95       	dec	r27
    1cac:	e1 f7       	brne	.-8      	; 0x1ca6 <get_fat+0xd6>
    1cae:	9b 01       	movw	r18, r22
    1cb0:	24 c0       	rjmp	.+72     	; 0x1cfa <get_fat+0x12a>
    1cb2:	9b 01       	movw	r18, r22
    1cb4:	40 e0       	ldi	r20, 0x00	; 0
    1cb6:	50 e0       	ldi	r21, 0x00	; 0
    1cb8:	3f 70       	andi	r19, 0x0F	; 15
    1cba:	40 70       	andi	r20, 0x00	; 0
    1cbc:	50 70       	andi	r21, 0x00	; 0
    1cbe:	4f c0       	rjmp	.+158    	; 0x1d5e <get_fat+0x18e>
    1cc0:	45 2f       	mov	r20, r21
    1cc2:	56 2f       	mov	r21, r22
    1cc4:	67 2f       	mov	r22, r23
    1cc6:	77 27       	eor	r23, r23
    1cc8:	f6 01       	movw	r30, r12
    1cca:	86 8d       	ldd	r24, Z+30	; 0x1e
    1ccc:	97 8d       	ldd	r25, Z+31	; 0x1f
    1cce:	a0 a1       	ldd	r26, Z+32	; 0x20
    1cd0:	b1 a1       	ldd	r27, Z+33	; 0x21
    1cd2:	48 0f       	add	r20, r24
    1cd4:	59 1f       	adc	r21, r25
    1cd6:	6a 1f       	adc	r22, r26
    1cd8:	7b 1f       	adc	r23, r27
    1cda:	c6 01       	movw	r24, r12
    1cdc:	0e 94 96 0b 	call	0x172c	; 0x172c <move_window>
    1ce0:	88 23       	and	r24, r24
    1ce2:	c9 f5       	brne	.+114    	; 0x1d56 <get_fat+0x186>
    1ce4:	ee 0c       	add	r14, r14
    1ce6:	ff 1c       	adc	r15, r15
    1ce8:	00 1f       	adc	r16, r16
    1cea:	11 1f       	adc	r17, r17
    1cec:	f7 01       	movw	r30, r14
    1cee:	f1 70       	andi	r31, 0x01	; 1
    1cf0:	ec 0d       	add	r30, r12
    1cf2:	fd 1d       	adc	r31, r13
    1cf4:	86 a5       	ldd	r24, Z+46	; 0x2e
    1cf6:	97 a5       	ldd	r25, Z+47	; 0x2f
    1cf8:	9c 01       	movw	r18, r24
    1cfa:	40 e0       	ldi	r20, 0x00	; 0
    1cfc:	50 e0       	ldi	r21, 0x00	; 0
    1cfe:	2f c0       	rjmp	.+94     	; 0x1d5e <get_fat+0x18e>
    1d00:	e7 e0       	ldi	r30, 0x07	; 7
    1d02:	76 95       	lsr	r23
    1d04:	67 95       	ror	r22
    1d06:	57 95       	ror	r21
    1d08:	47 95       	ror	r20
    1d0a:	ea 95       	dec	r30
    1d0c:	d1 f7       	brne	.-12     	; 0x1d02 <get_fat+0x132>
    1d0e:	f6 01       	movw	r30, r12
    1d10:	86 8d       	ldd	r24, Z+30	; 0x1e
    1d12:	97 8d       	ldd	r25, Z+31	; 0x1f
    1d14:	a0 a1       	ldd	r26, Z+32	; 0x20
    1d16:	b1 a1       	ldd	r27, Z+33	; 0x21
    1d18:	48 0f       	add	r20, r24
    1d1a:	59 1f       	adc	r21, r25
    1d1c:	6a 1f       	adc	r22, r26
    1d1e:	7b 1f       	adc	r23, r27
    1d20:	c6 01       	movw	r24, r12
    1d22:	0e 94 96 0b 	call	0x172c	; 0x172c <move_window>
    1d26:	88 23       	and	r24, r24
    1d28:	b1 f4       	brne	.+44     	; 0x1d56 <get_fat+0x186>
    1d2a:	42 e0       	ldi	r20, 0x02	; 2
    1d2c:	ee 0c       	add	r14, r14
    1d2e:	ff 1c       	adc	r15, r15
    1d30:	00 1f       	adc	r16, r16
    1d32:	11 1f       	adc	r17, r17
    1d34:	4a 95       	dec	r20
    1d36:	d1 f7       	brne	.-12     	; 0x1d2c <get_fat+0x15c>
    1d38:	f7 01       	movw	r30, r14
    1d3a:	f1 70       	andi	r31, 0x01	; 1
    1d3c:	ec 0d       	add	r30, r12
    1d3e:	fd 1d       	adc	r31, r13
    1d40:	26 a5       	ldd	r18, Z+46	; 0x2e
    1d42:	37 a5       	ldd	r19, Z+47	; 0x2f
    1d44:	40 a9       	ldd	r20, Z+48	; 0x30
    1d46:	51 a9       	ldd	r21, Z+49	; 0x31
    1d48:	5f 70       	andi	r21, 0x0F	; 15
    1d4a:	09 c0       	rjmp	.+18     	; 0x1d5e <get_fat+0x18e>
    1d4c:	21 e0       	ldi	r18, 0x01	; 1
    1d4e:	30 e0       	ldi	r19, 0x00	; 0
    1d50:	40 e0       	ldi	r20, 0x00	; 0
    1d52:	50 e0       	ldi	r21, 0x00	; 0
    1d54:	04 c0       	rjmp	.+8      	; 0x1d5e <get_fat+0x18e>
    1d56:	2f ef       	ldi	r18, 0xFF	; 255
    1d58:	3f ef       	ldi	r19, 0xFF	; 255
    1d5a:	4f ef       	ldi	r20, 0xFF	; 255
    1d5c:	5f ef       	ldi	r21, 0xFF	; 255
    1d5e:	b9 01       	movw	r22, r18
    1d60:	ca 01       	movw	r24, r20
    1d62:	df 91       	pop	r29
    1d64:	cf 91       	pop	r28
    1d66:	1f 91       	pop	r17
    1d68:	0f 91       	pop	r16
    1d6a:	ff 90       	pop	r15
    1d6c:	ef 90       	pop	r14
    1d6e:	df 90       	pop	r13
    1d70:	cf 90       	pop	r12
    1d72:	bf 90       	pop	r11
    1d74:	08 95       	ret

00001d76 <dir_sdi>:
    1d76:	af 92       	push	r10
    1d78:	bf 92       	push	r11
    1d7a:	cf 92       	push	r12
    1d7c:	df 92       	push	r13
    1d7e:	ef 92       	push	r14
    1d80:	ff 92       	push	r15
    1d82:	0f 93       	push	r16
    1d84:	1f 93       	push	r17
    1d86:	cf 93       	push	r28
    1d88:	df 93       	push	r29
    1d8a:	5c 01       	movw	r10, r24
    1d8c:	6b 01       	movw	r12, r22
    1d8e:	dc 01       	movw	r26, r24
    1d90:	15 96       	adiw	r26, 0x05	; 5
    1d92:	7c 93       	st	X, r23
    1d94:	6e 93       	st	-X, r22
    1d96:	14 97       	sbiw	r26, 0x04	; 4
    1d98:	16 96       	adiw	r26, 0x06	; 6
    1d9a:	4d 91       	ld	r20, X+
    1d9c:	5d 91       	ld	r21, X+
    1d9e:	6d 91       	ld	r22, X+
    1da0:	7c 91       	ld	r23, X
    1da2:	19 97       	sbiw	r26, 0x09	; 9
    1da4:	41 30       	cpi	r20, 0x01	; 1
    1da6:	51 05       	cpc	r21, r1
    1da8:	61 05       	cpc	r22, r1
    1daa:	71 05       	cpc	r23, r1
    1dac:	09 f4       	brne	.+2      	; 0x1db0 <dir_sdi+0x3a>
    1dae:	d3 c0       	rjmp	.+422    	; 0x1f56 <dir_sdi+0x1e0>
    1db0:	ed 91       	ld	r30, X+
    1db2:	fc 91       	ld	r31, X
    1db4:	86 89       	ldd	r24, Z+22	; 0x16
    1db6:	97 89       	ldd	r25, Z+23	; 0x17
    1db8:	a0 8d       	ldd	r26, Z+24	; 0x18
    1dba:	b1 8d       	ldd	r27, Z+25	; 0x19
    1dbc:	48 17       	cp	r20, r24
    1dbe:	59 07       	cpc	r21, r25
    1dc0:	6a 07       	cpc	r22, r26
    1dc2:	7b 07       	cpc	r23, r27
    1dc4:	08 f0       	brcs	.+2      	; 0x1dc8 <dir_sdi+0x52>
    1dc6:	c7 c0       	rjmp	.+398    	; 0x1f56 <dir_sdi+0x1e0>
    1dc8:	41 15       	cp	r20, r1
    1dca:	51 05       	cpc	r21, r1
    1dcc:	61 05       	cpc	r22, r1
    1dce:	71 05       	cpc	r23, r1
    1dd0:	81 f5       	brne	.+96     	; 0x1e32 <dir_sdi+0xbc>
    1dd2:	80 81       	ld	r24, Z
    1dd4:	83 30       	cpi	r24, 0x03	; 3
    1dd6:	49 f4       	brne	.+18     	; 0x1dea <dir_sdi+0x74>
    1dd8:	42 a1       	ldd	r20, Z+34	; 0x22
    1dda:	53 a1       	ldd	r21, Z+35	; 0x23
    1ddc:	64 a1       	ldd	r22, Z+36	; 0x24
    1dde:	75 a1       	ldd	r23, Z+37	; 0x25
    1de0:	41 15       	cp	r20, r1
    1de2:	51 05       	cpc	r21, r1
    1de4:	61 05       	cpc	r22, r1
    1de6:	71 05       	cpc	r23, r1
    1de8:	21 f5       	brne	.+72     	; 0x1e32 <dir_sdi+0xbc>
    1dea:	f5 01       	movw	r30, r10
    1dec:	12 86       	std	Z+10, r1	; 0x0a
    1dee:	13 86       	std	Z+11, r1	; 0x0b
    1df0:	14 86       	std	Z+12, r1	; 0x0c
    1df2:	15 86       	std	Z+13, r1	; 0x0d
    1df4:	01 90       	ld	r0, Z+
    1df6:	f0 81       	ld	r31, Z
    1df8:	e0 2d       	mov	r30, r0
    1dfa:	80 85       	ldd	r24, Z+8	; 0x08
    1dfc:	91 85       	ldd	r25, Z+9	; 0x09
    1dfe:	c8 16       	cp	r12, r24
    1e00:	d9 06       	cpc	r13, r25
    1e02:	08 f0       	brcs	.+2      	; 0x1e06 <dir_sdi+0x90>
    1e04:	a8 c0       	rjmp	.+336    	; 0x1f56 <dir_sdi+0x1e0>
    1e06:	c6 01       	movw	r24, r12
    1e08:	a4 e0       	ldi	r26, 0x04	; 4
    1e0a:	96 95       	lsr	r25
    1e0c:	87 95       	ror	r24
    1e0e:	aa 95       	dec	r26
    1e10:	e1 f7       	brne	.-8      	; 0x1e0a <dir_sdi+0x94>
    1e12:	a0 e0       	ldi	r26, 0x00	; 0
    1e14:	b0 e0       	ldi	r27, 0x00	; 0
    1e16:	22 a1       	ldd	r18, Z+34	; 0x22
    1e18:	33 a1       	ldd	r19, Z+35	; 0x23
    1e1a:	44 a1       	ldd	r20, Z+36	; 0x24
    1e1c:	55 a1       	ldd	r21, Z+37	; 0x25
    1e1e:	82 0f       	add	r24, r18
    1e20:	93 1f       	adc	r25, r19
    1e22:	a4 1f       	adc	r26, r20
    1e24:	b5 1f       	adc	r27, r21
    1e26:	f5 01       	movw	r30, r10
    1e28:	86 87       	std	Z+14, r24	; 0x0e
    1e2a:	97 87       	std	Z+15, r25	; 0x0f
    1e2c:	a0 8b       	std	Z+16, r26	; 0x10
    1e2e:	b1 8b       	std	Z+17, r27	; 0x11
    1e30:	7a c0       	rjmp	.+244    	; 0x1f26 <dir_sdi+0x1b0>
    1e32:	82 81       	ldd	r24, Z+2	; 0x02
    1e34:	08 2f       	mov	r16, r24
    1e36:	10 e0       	ldi	r17, 0x00	; 0
    1e38:	f4 e0       	ldi	r31, 0x04	; 4
    1e3a:	00 0f       	add	r16, r16
    1e3c:	11 1f       	adc	r17, r17
    1e3e:	fa 95       	dec	r31
    1e40:	e1 f7       	brne	.-8      	; 0x1e3a <dir_sdi+0xc4>
    1e42:	24 c0       	rjmp	.+72     	; 0x1e8c <dir_sdi+0x116>
    1e44:	ce 01       	movw	r24, r28
    1e46:	0e 94 e8 0d 	call	0x1bd0	; 0x1bd0 <get_fat>
    1e4a:	ab 01       	movw	r20, r22
    1e4c:	bc 01       	movw	r22, r24
    1e4e:	4f 3f       	cpi	r20, 0xFF	; 255
    1e50:	ff ef       	ldi	r31, 0xFF	; 255
    1e52:	5f 07       	cpc	r21, r31
    1e54:	ff ef       	ldi	r31, 0xFF	; 255
    1e56:	6f 07       	cpc	r22, r31
    1e58:	ff ef       	ldi	r31, 0xFF	; 255
    1e5a:	7f 07       	cpc	r23, r31
    1e5c:	11 f4       	brne	.+4      	; 0x1e62 <dir_sdi+0xec>
    1e5e:	81 e0       	ldi	r24, 0x01	; 1
    1e60:	7b c0       	rjmp	.+246    	; 0x1f58 <dir_sdi+0x1e2>
    1e62:	42 30       	cpi	r20, 0x02	; 2
    1e64:	51 05       	cpc	r21, r1
    1e66:	61 05       	cpc	r22, r1
    1e68:	71 05       	cpc	r23, r1
    1e6a:	08 f4       	brcc	.+2      	; 0x1e6e <dir_sdi+0xf8>
    1e6c:	74 c0       	rjmp	.+232    	; 0x1f56 <dir_sdi+0x1e0>
    1e6e:	d5 01       	movw	r26, r10
    1e70:	ed 91       	ld	r30, X+
    1e72:	fc 91       	ld	r31, X
    1e74:	86 89       	ldd	r24, Z+22	; 0x16
    1e76:	97 89       	ldd	r25, Z+23	; 0x17
    1e78:	a0 8d       	ldd	r26, Z+24	; 0x18
    1e7a:	b1 8d       	ldd	r27, Z+25	; 0x19
    1e7c:	48 17       	cp	r20, r24
    1e7e:	59 07       	cpc	r21, r25
    1e80:	6a 07       	cpc	r22, r26
    1e82:	7b 07       	cpc	r23, r27
    1e84:	08 f0       	brcs	.+2      	; 0x1e88 <dir_sdi+0x112>
    1e86:	67 c0       	rjmp	.+206    	; 0x1f56 <dir_sdi+0x1e0>
    1e88:	c0 1a       	sub	r12, r16
    1e8a:	d1 0a       	sbc	r13, r17
    1e8c:	f5 01       	movw	r30, r10
    1e8e:	c0 81       	ld	r28, Z
    1e90:	d1 81       	ldd	r29, Z+1	; 0x01
    1e92:	c0 16       	cp	r12, r16
    1e94:	d1 06       	cpc	r13, r17
    1e96:	b0 f6       	brcc	.-84     	; 0x1e44 <dir_sdi+0xce>
    1e98:	d5 01       	movw	r26, r10
    1e9a:	1a 96       	adiw	r26, 0x0a	; 10
    1e9c:	4d 93       	st	X+, r20
    1e9e:	5d 93       	st	X+, r21
    1ea0:	6d 93       	st	X+, r22
    1ea2:	7c 93       	st	X, r23
    1ea4:	1d 97       	sbiw	r26, 0x0d	; 13
    1ea6:	ee ef       	ldi	r30, 0xFE	; 254
    1ea8:	ee 2e       	mov	r14, r30
    1eaa:	ef ef       	ldi	r30, 0xFF	; 255
    1eac:	fe 2e       	mov	r15, r30
    1eae:	ef ef       	ldi	r30, 0xFF	; 255
    1eb0:	0e 2f       	mov	r16, r30
    1eb2:	ef ef       	ldi	r30, 0xFF	; 255
    1eb4:	1e 2f       	mov	r17, r30
    1eb6:	e4 0e       	add	r14, r20
    1eb8:	f5 1e       	adc	r15, r21
    1eba:	06 1f       	adc	r16, r22
    1ebc:	17 1f       	adc	r17, r23
    1ebe:	8e 89       	ldd	r24, Y+22	; 0x16
    1ec0:	9f 89       	ldd	r25, Y+23	; 0x17
    1ec2:	a8 8d       	ldd	r26, Y+24	; 0x18
    1ec4:	b9 8d       	ldd	r27, Y+25	; 0x19
    1ec6:	02 97       	sbiw	r24, 0x02	; 2
    1ec8:	a1 09       	sbc	r26, r1
    1eca:	b1 09       	sbc	r27, r1
    1ecc:	e8 16       	cp	r14, r24
    1ece:	f9 06       	cpc	r15, r25
    1ed0:	0a 07       	cpc	r16, r26
    1ed2:	1b 07       	cpc	r17, r27
    1ed4:	28 f0       	brcs	.+10     	; 0x1ee0 <dir_sdi+0x16a>
    1ed6:	20 e0       	ldi	r18, 0x00	; 0
    1ed8:	30 e0       	ldi	r19, 0x00	; 0
    1eda:	40 e0       	ldi	r20, 0x00	; 0
    1edc:	50 e0       	ldi	r21, 0x00	; 0
    1ede:	12 c0       	rjmp	.+36     	; 0x1f04 <dir_sdi+0x18e>
    1ee0:	2a 81       	ldd	r18, Y+2	; 0x02
    1ee2:	30 e0       	ldi	r19, 0x00	; 0
    1ee4:	40 e0       	ldi	r20, 0x00	; 0
    1ee6:	50 e0       	ldi	r21, 0x00	; 0
    1ee8:	c8 01       	movw	r24, r16
    1eea:	b7 01       	movw	r22, r14
    1eec:	0e 94 2e 2b 	call	0x565c	; 0x565c <__mulsi3>
    1ef0:	9b 01       	movw	r18, r22
    1ef2:	ac 01       	movw	r20, r24
    1ef4:	8e a1       	ldd	r24, Y+38	; 0x26
    1ef6:	9f a1       	ldd	r25, Y+39	; 0x27
    1ef8:	a8 a5       	ldd	r26, Y+40	; 0x28
    1efa:	b9 a5       	ldd	r27, Y+41	; 0x29
    1efc:	28 0f       	add	r18, r24
    1efe:	39 1f       	adc	r19, r25
    1f00:	4a 1f       	adc	r20, r26
    1f02:	5b 1f       	adc	r21, r27
    1f04:	c6 01       	movw	r24, r12
    1f06:	64 e0       	ldi	r22, 0x04	; 4
    1f08:	96 95       	lsr	r25
    1f0a:	87 95       	ror	r24
    1f0c:	6a 95       	dec	r22
    1f0e:	e1 f7       	brne	.-8      	; 0x1f08 <dir_sdi+0x192>
    1f10:	a0 e0       	ldi	r26, 0x00	; 0
    1f12:	b0 e0       	ldi	r27, 0x00	; 0
    1f14:	28 0f       	add	r18, r24
    1f16:	39 1f       	adc	r19, r25
    1f18:	4a 1f       	adc	r20, r26
    1f1a:	5b 1f       	adc	r21, r27
    1f1c:	f5 01       	movw	r30, r10
    1f1e:	26 87       	std	Z+14, r18	; 0x0e
    1f20:	37 87       	std	Z+15, r19	; 0x0f
    1f22:	40 8b       	std	Z+16, r20	; 0x10
    1f24:	51 8b       	std	Z+17, r21	; 0x11
    1f26:	ff e0       	ldi	r31, 0x0F	; 15
    1f28:	cf 22       	and	r12, r31
    1f2a:	dd 24       	eor	r13, r13
    1f2c:	35 e0       	ldi	r19, 0x05	; 5
    1f2e:	cc 0c       	add	r12, r12
    1f30:	dd 1c       	adc	r13, r13
    1f32:	3a 95       	dec	r19
    1f34:	e1 f7       	brne	.-8      	; 0x1f2e <dir_sdi+0x1b8>
    1f36:	8e e2       	ldi	r24, 0x2E	; 46
    1f38:	90 e0       	ldi	r25, 0x00	; 0
    1f3a:	c8 0e       	add	r12, r24
    1f3c:	d9 1e       	adc	r13, r25
    1f3e:	d5 01       	movw	r26, r10
    1f40:	8d 91       	ld	r24, X+
    1f42:	9c 91       	ld	r25, X
    1f44:	11 97       	sbiw	r26, 0x01	; 1
    1f46:	8c 0d       	add	r24, r12
    1f48:	9d 1d       	adc	r25, r13
    1f4a:	53 96       	adiw	r26, 0x13	; 19
    1f4c:	9c 93       	st	X, r25
    1f4e:	8e 93       	st	-X, r24
    1f50:	52 97       	sbiw	r26, 0x12	; 18
    1f52:	80 e0       	ldi	r24, 0x00	; 0
    1f54:	01 c0       	rjmp	.+2      	; 0x1f58 <dir_sdi+0x1e2>
    1f56:	82 e0       	ldi	r24, 0x02	; 2
    1f58:	df 91       	pop	r29
    1f5a:	cf 91       	pop	r28
    1f5c:	1f 91       	pop	r17
    1f5e:	0f 91       	pop	r16
    1f60:	ff 90       	pop	r15
    1f62:	ef 90       	pop	r14
    1f64:	df 90       	pop	r13
    1f66:	cf 90       	pop	r12
    1f68:	bf 90       	pop	r11
    1f6a:	af 90       	pop	r10
    1f6c:	08 95       	ret

00001f6e <create_chain>:
    1f6e:	4f 92       	push	r4
    1f70:	5f 92       	push	r5
    1f72:	6f 92       	push	r6
    1f74:	7f 92       	push	r7
    1f76:	8f 92       	push	r8
    1f78:	9f 92       	push	r9
    1f7a:	af 92       	push	r10
    1f7c:	bf 92       	push	r11
    1f7e:	cf 92       	push	r12
    1f80:	df 92       	push	r13
    1f82:	ef 92       	push	r14
    1f84:	ff 92       	push	r15
    1f86:	0f 93       	push	r16
    1f88:	1f 93       	push	r17
    1f8a:	cf 93       	push	r28
    1f8c:	df 93       	push	r29
    1f8e:	ec 01       	movw	r28, r24
    1f90:	2a 01       	movw	r4, r20
    1f92:	3b 01       	movw	r6, r22
    1f94:	41 15       	cp	r20, r1
    1f96:	51 05       	cpc	r21, r1
    1f98:	61 05       	cpc	r22, r1
    1f9a:	71 05       	cpc	r23, r1
    1f9c:	99 f4       	brne	.+38     	; 0x1fc4 <create_chain+0x56>
    1f9e:	8a 84       	ldd	r8, Y+10	; 0x0a
    1fa0:	9b 84       	ldd	r9, Y+11	; 0x0b
    1fa2:	ac 84       	ldd	r10, Y+12	; 0x0c
    1fa4:	bd 84       	ldd	r11, Y+13	; 0x0d
    1fa6:	81 14       	cp	r8, r1
    1fa8:	91 04       	cpc	r9, r1
    1faa:	a1 04       	cpc	r10, r1
    1fac:	b1 04       	cpc	r11, r1
    1fae:	09 f1       	breq	.+66     	; 0x1ff2 <create_chain+0x84>
    1fb0:	8e 89       	ldd	r24, Y+22	; 0x16
    1fb2:	9f 89       	ldd	r25, Y+23	; 0x17
    1fb4:	a8 8d       	ldd	r26, Y+24	; 0x18
    1fb6:	b9 8d       	ldd	r27, Y+25	; 0x19
    1fb8:	88 16       	cp	r8, r24
    1fba:	99 06       	cpc	r9, r25
    1fbc:	aa 06       	cpc	r10, r26
    1fbe:	bb 06       	cpc	r11, r27
    1fc0:	c0 f4       	brcc	.+48     	; 0x1ff2 <create_chain+0x84>
    1fc2:	1c c0       	rjmp	.+56     	; 0x1ffc <create_chain+0x8e>
    1fc4:	0e 94 e8 0d 	call	0x1bd0	; 0x1bd0 <get_fat>
    1fc8:	9b 01       	movw	r18, r22
    1fca:	ac 01       	movw	r20, r24
    1fcc:	62 30       	cpi	r22, 0x02	; 2
    1fce:	71 05       	cpc	r23, r1
    1fd0:	81 05       	cpc	r24, r1
    1fd2:	91 05       	cpc	r25, r1
    1fd4:	08 f4       	brcc	.+2      	; 0x1fd8 <create_chain+0x6a>
    1fd6:	8a c0       	rjmp	.+276    	; 0x20ec <create_chain+0x17e>
    1fd8:	8e 89       	ldd	r24, Y+22	; 0x16
    1fda:	9f 89       	ldd	r25, Y+23	; 0x17
    1fdc:	a8 8d       	ldd	r26, Y+24	; 0x18
    1fde:	b9 8d       	ldd	r27, Y+25	; 0x19
    1fe0:	28 17       	cp	r18, r24
    1fe2:	39 07       	cpc	r19, r25
    1fe4:	4a 07       	cpc	r20, r26
    1fe6:	5b 07       	cpc	r21, r27
    1fe8:	08 f4       	brcc	.+2      	; 0x1fec <create_chain+0x7e>
    1fea:	8e c0       	rjmp	.+284    	; 0x2108 <create_chain+0x19a>
    1fec:	53 01       	movw	r10, r6
    1fee:	42 01       	movw	r8, r4
    1ff0:	05 c0       	rjmp	.+10     	; 0x1ffc <create_chain+0x8e>
    1ff2:	11 e0       	ldi	r17, 0x01	; 1
    1ff4:	81 2e       	mov	r8, r17
    1ff6:	91 2c       	mov	r9, r1
    1ff8:	a1 2c       	mov	r10, r1
    1ffa:	b1 2c       	mov	r11, r1
    1ffc:	75 01       	movw	r14, r10
    1ffe:	64 01       	movw	r12, r8
    2000:	08 94       	sec
    2002:	c1 1c       	adc	r12, r1
    2004:	d1 1c       	adc	r13, r1
    2006:	e1 1c       	adc	r14, r1
    2008:	f1 1c       	adc	r15, r1
    200a:	8e 89       	ldd	r24, Y+22	; 0x16
    200c:	9f 89       	ldd	r25, Y+23	; 0x17
    200e:	a8 8d       	ldd	r26, Y+24	; 0x18
    2010:	b9 8d       	ldd	r27, Y+25	; 0x19
    2012:	c8 16       	cp	r12, r24
    2014:	d9 06       	cpc	r13, r25
    2016:	ea 06       	cpc	r14, r26
    2018:	fb 06       	cpc	r15, r27
    201a:	60 f0       	brcs	.+24     	; 0x2034 <create_chain+0xc6>
    201c:	22 e0       	ldi	r18, 0x02	; 2
    201e:	82 16       	cp	r8, r18
    2020:	91 04       	cpc	r9, r1
    2022:	a1 04       	cpc	r10, r1
    2024:	b1 04       	cpc	r11, r1
    2026:	08 f4       	brcc	.+2      	; 0x202a <create_chain+0xbc>
    2028:	6b c0       	rjmp	.+214    	; 0x2100 <create_chain+0x192>
    202a:	b2 e0       	ldi	r27, 0x02	; 2
    202c:	cb 2e       	mov	r12, r27
    202e:	d1 2c       	mov	r13, r1
    2030:	e1 2c       	mov	r14, r1
    2032:	f1 2c       	mov	r15, r1
    2034:	ce 01       	movw	r24, r28
    2036:	b7 01       	movw	r22, r14
    2038:	a6 01       	movw	r20, r12
    203a:	0e 94 e8 0d 	call	0x1bd0	; 0x1bd0 <get_fat>
    203e:	9b 01       	movw	r18, r22
    2040:	ac 01       	movw	r20, r24
    2042:	61 15       	cp	r22, r1
    2044:	71 05       	cpc	r23, r1
    2046:	81 05       	cpc	r24, r1
    2048:	91 05       	cpc	r25, r1
    204a:	a9 f0       	breq	.+42     	; 0x2076 <create_chain+0x108>
    204c:	2f 3f       	cpi	r18, 0xFF	; 255
    204e:	8f ef       	ldi	r24, 0xFF	; 255
    2050:	38 07       	cpc	r19, r24
    2052:	8f ef       	ldi	r24, 0xFF	; 255
    2054:	48 07       	cpc	r20, r24
    2056:	8f ef       	ldi	r24, 0xFF	; 255
    2058:	58 07       	cpc	r21, r24
    205a:	09 f4       	brne	.+2      	; 0x205e <create_chain+0xf0>
    205c:	55 c0       	rjmp	.+170    	; 0x2108 <create_chain+0x19a>
    205e:	21 30       	cpi	r18, 0x01	; 1
    2060:	31 05       	cpc	r19, r1
    2062:	41 05       	cpc	r20, r1
    2064:	51 05       	cpc	r21, r1
    2066:	09 f4       	brne	.+2      	; 0x206a <create_chain+0xfc>
    2068:	4f c0       	rjmp	.+158    	; 0x2108 <create_chain+0x19a>
    206a:	c8 14       	cp	r12, r8
    206c:	d9 04       	cpc	r13, r9
    206e:	ea 04       	cpc	r14, r10
    2070:	fb 04       	cpc	r15, r11
    2072:	31 f6       	brne	.-116    	; 0x2000 <create_chain+0x92>
    2074:	45 c0       	rjmp	.+138    	; 0x2100 <create_chain+0x192>
    2076:	bc 2c       	mov	r11, r12
    2078:	ad 2c       	mov	r10, r13
    207a:	9e 2c       	mov	r9, r14
    207c:	8f 2c       	mov	r8, r15
    207e:	ce 01       	movw	r24, r28
    2080:	a6 01       	movw	r20, r12
    2082:	b7 01       	movw	r22, r14
    2084:	0f ef       	ldi	r16, 0xFF	; 255
    2086:	1f ef       	ldi	r17, 0xFF	; 255
    2088:	2f ef       	ldi	r18, 0xFF	; 255
    208a:	3f e0       	ldi	r19, 0x0F	; 15
    208c:	0e 94 f1 0c 	call	0x19e2	; 0x19e2 <put_fat>
    2090:	88 23       	and	r24, r24
    2092:	51 f5       	brne	.+84     	; 0x20e8 <create_chain+0x17a>
    2094:	41 14       	cp	r4, r1
    2096:	51 04       	cpc	r5, r1
    2098:	61 04       	cpc	r6, r1
    209a:	71 04       	cpc	r7, r1
    209c:	49 f0       	breq	.+18     	; 0x20b0 <create_chain+0x142>
    209e:	ce 01       	movw	r24, r28
    20a0:	b3 01       	movw	r22, r6
    20a2:	a2 01       	movw	r20, r4
    20a4:	86 01       	movw	r16, r12
    20a6:	97 01       	movw	r18, r14
    20a8:	0e 94 f1 0c 	call	0x19e2	; 0x19e2 <put_fat>
    20ac:	88 23       	and	r24, r24
    20ae:	e1 f4       	brne	.+56     	; 0x20e8 <create_chain+0x17a>
    20b0:	ba 86       	std	Y+10, r11	; 0x0a
    20b2:	ab 86       	std	Y+11, r10	; 0x0b
    20b4:	9c 86       	std	Y+12, r9	; 0x0c
    20b6:	8d 86       	std	Y+13, r8	; 0x0d
    20b8:	8e 85       	ldd	r24, Y+14	; 0x0e
    20ba:	9f 85       	ldd	r25, Y+15	; 0x0f
    20bc:	a8 89       	ldd	r26, Y+16	; 0x10
    20be:	b9 89       	ldd	r27, Y+17	; 0x11
    20c0:	8f 3f       	cpi	r24, 0xFF	; 255
    20c2:	2f ef       	ldi	r18, 0xFF	; 255
    20c4:	92 07       	cpc	r25, r18
    20c6:	2f ef       	ldi	r18, 0xFF	; 255
    20c8:	a2 07       	cpc	r26, r18
    20ca:	2f ef       	ldi	r18, 0xFF	; 255
    20cc:	b2 07       	cpc	r27, r18
    20ce:	49 f0       	breq	.+18     	; 0x20e2 <create_chain+0x174>
    20d0:	01 97       	sbiw	r24, 0x01	; 1
    20d2:	a1 09       	sbc	r26, r1
    20d4:	b1 09       	sbc	r27, r1
    20d6:	8e 87       	std	Y+14, r24	; 0x0e
    20d8:	9f 87       	std	Y+15, r25	; 0x0f
    20da:	a8 8b       	std	Y+16, r26	; 0x10
    20dc:	b9 8b       	std	Y+17, r27	; 0x11
    20de:	81 e0       	ldi	r24, 0x01	; 1
    20e0:	8d 83       	std	Y+5, r24	; 0x05
    20e2:	a7 01       	movw	r20, r14
    20e4:	96 01       	movw	r18, r12
    20e6:	10 c0       	rjmp	.+32     	; 0x2108 <create_chain+0x19a>
    20e8:	81 30       	cpi	r24, 0x01	; 1
    20ea:	29 f0       	breq	.+10     	; 0x20f6 <create_chain+0x188>
    20ec:	21 e0       	ldi	r18, 0x01	; 1
    20ee:	30 e0       	ldi	r19, 0x00	; 0
    20f0:	40 e0       	ldi	r20, 0x00	; 0
    20f2:	50 e0       	ldi	r21, 0x00	; 0
    20f4:	09 c0       	rjmp	.+18     	; 0x2108 <create_chain+0x19a>
    20f6:	2f ef       	ldi	r18, 0xFF	; 255
    20f8:	3f ef       	ldi	r19, 0xFF	; 255
    20fa:	4f ef       	ldi	r20, 0xFF	; 255
    20fc:	5f ef       	ldi	r21, 0xFF	; 255
    20fe:	04 c0       	rjmp	.+8      	; 0x2108 <create_chain+0x19a>
    2100:	20 e0       	ldi	r18, 0x00	; 0
    2102:	30 e0       	ldi	r19, 0x00	; 0
    2104:	40 e0       	ldi	r20, 0x00	; 0
    2106:	50 e0       	ldi	r21, 0x00	; 0
    2108:	b9 01       	movw	r22, r18
    210a:	ca 01       	movw	r24, r20
    210c:	df 91       	pop	r29
    210e:	cf 91       	pop	r28
    2110:	1f 91       	pop	r17
    2112:	0f 91       	pop	r16
    2114:	ff 90       	pop	r15
    2116:	ef 90       	pop	r14
    2118:	df 90       	pop	r13
    211a:	cf 90       	pop	r12
    211c:	bf 90       	pop	r11
    211e:	af 90       	pop	r10
    2120:	9f 90       	pop	r9
    2122:	8f 90       	pop	r8
    2124:	7f 90       	pop	r7
    2126:	6f 90       	pop	r6
    2128:	5f 90       	pop	r5
    212a:	4f 90       	pop	r4
    212c:	08 95       	ret

0000212e <remove_chain>:
    212e:	9f 92       	push	r9
    2130:	af 92       	push	r10
    2132:	bf 92       	push	r11
    2134:	cf 92       	push	r12
    2136:	df 92       	push	r13
    2138:	ef 92       	push	r14
    213a:	ff 92       	push	r15
    213c:	0f 93       	push	r16
    213e:	1f 93       	push	r17
    2140:	cf 93       	push	r28
    2142:	df 93       	push	r29
    2144:	ec 01       	movw	r28, r24
    2146:	7a 01       	movw	r14, r20
    2148:	8b 01       	movw	r16, r22
    214a:	42 30       	cpi	r20, 0x02	; 2
    214c:	51 05       	cpc	r21, r1
    214e:	61 05       	cpc	r22, r1
    2150:	71 05       	cpc	r23, r1
    2152:	08 f4       	brcc	.+2      	; 0x2156 <remove_chain+0x28>
    2154:	58 c0       	rjmp	.+176    	; 0x2206 <remove_chain+0xd8>
    2156:	8e 89       	ldd	r24, Y+22	; 0x16
    2158:	9f 89       	ldd	r25, Y+23	; 0x17
    215a:	a8 8d       	ldd	r26, Y+24	; 0x18
    215c:	b9 8d       	ldd	r27, Y+25	; 0x19
    215e:	48 17       	cp	r20, r24
    2160:	59 07       	cpc	r21, r25
    2162:	6a 07       	cpc	r22, r26
    2164:	7b 07       	cpc	r23, r27
    2166:	08 f4       	brcc	.+2      	; 0x216a <remove_chain+0x3c>
    2168:	41 c0       	rjmp	.+130    	; 0x21ec <remove_chain+0xbe>
    216a:	4d c0       	rjmp	.+154    	; 0x2206 <remove_chain+0xd8>
    216c:	ce 01       	movw	r24, r28
    216e:	b8 01       	movw	r22, r16
    2170:	a7 01       	movw	r20, r14
    2172:	0e 94 e8 0d 	call	0x1bd0	; 0x1bd0 <get_fat>
    2176:	5b 01       	movw	r10, r22
    2178:	6c 01       	movw	r12, r24
    217a:	61 15       	cp	r22, r1
    217c:	71 05       	cpc	r23, r1
    217e:	81 05       	cpc	r24, r1
    2180:	91 05       	cpc	r25, r1
    2182:	09 f4       	brne	.+2      	; 0x2186 <remove_chain+0x58>
    2184:	42 c0       	rjmp	.+132    	; 0x220a <remove_chain+0xdc>
    2186:	81 e0       	ldi	r24, 0x01	; 1
    2188:	a8 16       	cp	r10, r24
    218a:	b1 04       	cpc	r11, r1
    218c:	c1 04       	cpc	r12, r1
    218e:	d1 04       	cpc	r13, r1
    2190:	d1 f1       	breq	.+116    	; 0x2206 <remove_chain+0xd8>
    2192:	2f ef       	ldi	r18, 0xFF	; 255
    2194:	a2 16       	cp	r10, r18
    2196:	2f ef       	ldi	r18, 0xFF	; 255
    2198:	b2 06       	cpc	r11, r18
    219a:	2f ef       	ldi	r18, 0xFF	; 255
    219c:	c2 06       	cpc	r12, r18
    219e:	2f ef       	ldi	r18, 0xFF	; 255
    21a0:	d2 06       	cpc	r13, r18
    21a2:	11 f4       	brne	.+4      	; 0x21a8 <remove_chain+0x7a>
    21a4:	81 e0       	ldi	r24, 0x01	; 1
    21a6:	32 c0       	rjmp	.+100    	; 0x220c <remove_chain+0xde>
    21a8:	ce 01       	movw	r24, r28
    21aa:	b8 01       	movw	r22, r16
    21ac:	a7 01       	movw	r20, r14
    21ae:	00 e0       	ldi	r16, 0x00	; 0
    21b0:	10 e0       	ldi	r17, 0x00	; 0
    21b2:	20 e0       	ldi	r18, 0x00	; 0
    21b4:	30 e0       	ldi	r19, 0x00	; 0
    21b6:	0e 94 f1 0c 	call	0x19e2	; 0x19e2 <put_fat>
    21ba:	88 23       	and	r24, r24
    21bc:	39 f5       	brne	.+78     	; 0x220c <remove_chain+0xde>
    21be:	8e 85       	ldd	r24, Y+14	; 0x0e
    21c0:	9f 85       	ldd	r25, Y+15	; 0x0f
    21c2:	a8 89       	ldd	r26, Y+16	; 0x10
    21c4:	b9 89       	ldd	r27, Y+17	; 0x11
    21c6:	8f 3f       	cpi	r24, 0xFF	; 255
    21c8:	2f ef       	ldi	r18, 0xFF	; 255
    21ca:	92 07       	cpc	r25, r18
    21cc:	2f ef       	ldi	r18, 0xFF	; 255
    21ce:	a2 07       	cpc	r26, r18
    21d0:	2f ef       	ldi	r18, 0xFF	; 255
    21d2:	b2 07       	cpc	r27, r18
    21d4:	41 f0       	breq	.+16     	; 0x21e6 <remove_chain+0xb8>
    21d6:	01 96       	adiw	r24, 0x01	; 1
    21d8:	a1 1d       	adc	r26, r1
    21da:	b1 1d       	adc	r27, r1
    21dc:	8e 87       	std	Y+14, r24	; 0x0e
    21de:	9f 87       	std	Y+15, r25	; 0x0f
    21e0:	a8 8b       	std	Y+16, r26	; 0x10
    21e2:	b9 8b       	std	Y+17, r27	; 0x11
    21e4:	9d 82       	std	Y+5, r9	; 0x05
    21e6:	86 01       	movw	r16, r12
    21e8:	75 01       	movw	r14, r10
    21ea:	02 c0       	rjmp	.+4      	; 0x21f0 <remove_chain+0xc2>
    21ec:	99 24       	eor	r9, r9
    21ee:	93 94       	inc	r9
    21f0:	8e 89       	ldd	r24, Y+22	; 0x16
    21f2:	9f 89       	ldd	r25, Y+23	; 0x17
    21f4:	a8 8d       	ldd	r26, Y+24	; 0x18
    21f6:	b9 8d       	ldd	r27, Y+25	; 0x19
    21f8:	e8 16       	cp	r14, r24
    21fa:	f9 06       	cpc	r15, r25
    21fc:	0a 07       	cpc	r16, r26
    21fe:	1b 07       	cpc	r17, r27
    2200:	08 f4       	brcc	.+2      	; 0x2204 <remove_chain+0xd6>
    2202:	b4 cf       	rjmp	.-152    	; 0x216c <remove_chain+0x3e>
    2204:	02 c0       	rjmp	.+4      	; 0x220a <remove_chain+0xdc>
    2206:	82 e0       	ldi	r24, 0x02	; 2
    2208:	01 c0       	rjmp	.+2      	; 0x220c <remove_chain+0xde>
    220a:	80 e0       	ldi	r24, 0x00	; 0
    220c:	df 91       	pop	r29
    220e:	cf 91       	pop	r28
    2210:	1f 91       	pop	r17
    2212:	0f 91       	pop	r16
    2214:	ff 90       	pop	r15
    2216:	ef 90       	pop	r14
    2218:	df 90       	pop	r13
    221a:	cf 90       	pop	r12
    221c:	bf 90       	pop	r11
    221e:	af 90       	pop	r10
    2220:	9f 90       	pop	r9
    2222:	08 95       	ret

00002224 <f_truncate>:
    2224:	cf 92       	push	r12
    2226:	df 92       	push	r13
    2228:	ef 92       	push	r14
    222a:	ff 92       	push	r15
    222c:	0f 93       	push	r16
    222e:	1f 93       	push	r17
    2230:	cf 93       	push	r28
    2232:	df 93       	push	r29
    2234:	ec 01       	movw	r28, r24
    2236:	6a 81       	ldd	r22, Y+2	; 0x02
    2238:	7b 81       	ldd	r23, Y+3	; 0x03
    223a:	88 81       	ld	r24, Y
    223c:	99 81       	ldd	r25, Y+1	; 0x01
    223e:	0e 94 b4 08 	call	0x1168	; 0x1168 <validate>
    2242:	18 2f       	mov	r17, r24
    2244:	88 23       	and	r24, r24
    2246:	09 f0       	breq	.+2      	; 0x224a <f_truncate+0x26>
    2248:	6c c0       	rjmp	.+216    	; 0x2322 <f_truncate+0xfe>
    224a:	6c 81       	ldd	r22, Y+4	; 0x04
    224c:	67 ff       	sbrs	r22, 7
    224e:	02 c0       	rjmp	.+4      	; 0x2254 <f_truncate+0x30>
    2250:	12 e0       	ldi	r17, 0x02	; 2
    2252:	67 c0       	rjmp	.+206    	; 0x2322 <f_truncate+0xfe>
    2254:	61 ff       	sbrs	r22, 1
    2256:	6f c0       	rjmp	.+222    	; 0x2336 <f_truncate+0x112>
    2258:	2e 81       	ldd	r18, Y+6	; 0x06
    225a:	3f 81       	ldd	r19, Y+7	; 0x07
    225c:	48 85       	ldd	r20, Y+8	; 0x08
    225e:	59 85       	ldd	r21, Y+9	; 0x09
    2260:	8a 85       	ldd	r24, Y+10	; 0x0a
    2262:	9b 85       	ldd	r25, Y+11	; 0x0b
    2264:	ac 85       	ldd	r26, Y+12	; 0x0c
    2266:	bd 85       	ldd	r27, Y+13	; 0x0d
    2268:	28 17       	cp	r18, r24
    226a:	39 07       	cpc	r19, r25
    226c:	4a 07       	cpc	r20, r26
    226e:	5b 07       	cpc	r21, r27
    2270:	08 f0       	brcs	.+2      	; 0x2274 <f_truncate+0x50>
    2272:	57 c0       	rjmp	.+174    	; 0x2322 <f_truncate+0xfe>
    2274:	2a 87       	std	Y+10, r18	; 0x0a
    2276:	3b 87       	std	Y+11, r19	; 0x0b
    2278:	4c 87       	std	Y+12, r20	; 0x0c
    227a:	5d 87       	std	Y+13, r21	; 0x0d
    227c:	60 62       	ori	r22, 0x20	; 32
    227e:	6c 83       	std	Y+4, r22	; 0x04
    2280:	88 81       	ld	r24, Y
    2282:	99 81       	ldd	r25, Y+1	; 0x01
    2284:	21 15       	cp	r18, r1
    2286:	31 05       	cpc	r19, r1
    2288:	41 05       	cpc	r20, r1
    228a:	51 05       	cpc	r21, r1
    228c:	61 f4       	brne	.+24     	; 0x22a6 <f_truncate+0x82>
    228e:	4e 85       	ldd	r20, Y+14	; 0x0e
    2290:	5f 85       	ldd	r21, Y+15	; 0x0f
    2292:	68 89       	ldd	r22, Y+16	; 0x10
    2294:	79 89       	ldd	r23, Y+17	; 0x11
    2296:	0e 94 97 10 	call	0x212e	; 0x212e <remove_chain>
    229a:	18 2f       	mov	r17, r24
    229c:	1e 86       	std	Y+14, r1	; 0x0e
    229e:	1f 86       	std	Y+15, r1	; 0x0f
    22a0:	18 8a       	std	Y+16, r1	; 0x10
    22a2:	19 8a       	std	Y+17, r1	; 0x11
    22a4:	39 c0       	rjmp	.+114    	; 0x2318 <f_truncate+0xf4>
    22a6:	4a 89       	ldd	r20, Y+18	; 0x12
    22a8:	5b 89       	ldd	r21, Y+19	; 0x13
    22aa:	6c 89       	ldd	r22, Y+20	; 0x14
    22ac:	7d 89       	ldd	r23, Y+21	; 0x15
    22ae:	0e 94 e8 0d 	call	0x1bd0	; 0x1bd0 <get_fat>
    22b2:	6b 01       	movw	r12, r22
    22b4:	7c 01       	movw	r14, r24
    22b6:	8f ef       	ldi	r24, 0xFF	; 255
    22b8:	c8 16       	cp	r12, r24
    22ba:	8f ef       	ldi	r24, 0xFF	; 255
    22bc:	d8 06       	cpc	r13, r24
    22be:	8f ef       	ldi	r24, 0xFF	; 255
    22c0:	e8 06       	cpc	r14, r24
    22c2:	8f ef       	ldi	r24, 0xFF	; 255
    22c4:	f8 06       	cpc	r15, r24
    22c6:	11 f4       	brne	.+4      	; 0x22cc <f_truncate+0xa8>
    22c8:	11 e0       	ldi	r17, 0x01	; 1
    22ca:	28 c0       	rjmp	.+80     	; 0x231c <f_truncate+0xf8>
    22cc:	81 e0       	ldi	r24, 0x01	; 1
    22ce:	c8 16       	cp	r12, r24
    22d0:	d1 04       	cpc	r13, r1
    22d2:	e1 04       	cpc	r14, r1
    22d4:	f1 04       	cpc	r15, r1
    22d6:	89 f1       	breq	.+98     	; 0x233a <f_truncate+0x116>
    22d8:	e8 81       	ld	r30, Y
    22da:	f9 81       	ldd	r31, Y+1	; 0x01
    22dc:	86 89       	ldd	r24, Z+22	; 0x16
    22de:	97 89       	ldd	r25, Z+23	; 0x17
    22e0:	a0 8d       	ldd	r26, Z+24	; 0x18
    22e2:	b1 8d       	ldd	r27, Z+25	; 0x19
    22e4:	c8 16       	cp	r12, r24
    22e6:	d9 06       	cpc	r13, r25
    22e8:	ea 06       	cpc	r14, r26
    22ea:	fb 06       	cpc	r15, r27
    22ec:	d0 f4       	brcc	.+52     	; 0x2322 <f_truncate+0xfe>
    22ee:	4a 89       	ldd	r20, Y+18	; 0x12
    22f0:	5b 89       	ldd	r21, Y+19	; 0x13
    22f2:	6c 89       	ldd	r22, Y+20	; 0x14
    22f4:	7d 89       	ldd	r23, Y+21	; 0x15
    22f6:	cf 01       	movw	r24, r30
    22f8:	0f ef       	ldi	r16, 0xFF	; 255
    22fa:	1f ef       	ldi	r17, 0xFF	; 255
    22fc:	2f ef       	ldi	r18, 0xFF	; 255
    22fe:	3f e0       	ldi	r19, 0x0F	; 15
    2300:	0e 94 f1 0c 	call	0x19e2	; 0x19e2 <put_fat>
    2304:	18 2f       	mov	r17, r24
    2306:	88 23       	and	r24, r24
    2308:	49 f4       	brne	.+18     	; 0x231c <f_truncate+0xf8>
    230a:	88 81       	ld	r24, Y
    230c:	99 81       	ldd	r25, Y+1	; 0x01
    230e:	b7 01       	movw	r22, r14
    2310:	a6 01       	movw	r20, r12
    2312:	0e 94 97 10 	call	0x212e	; 0x212e <remove_chain>
    2316:	18 2f       	mov	r17, r24
    2318:	11 23       	and	r17, r17
    231a:	19 f0       	breq	.+6      	; 0x2322 <f_truncate+0xfe>
    231c:	8c 81       	ldd	r24, Y+4	; 0x04
    231e:	80 68       	ori	r24, 0x80	; 128
    2320:	8c 83       	std	Y+4, r24	; 0x04
    2322:	81 2f       	mov	r24, r17
    2324:	df 91       	pop	r29
    2326:	cf 91       	pop	r28
    2328:	1f 91       	pop	r17
    232a:	0f 91       	pop	r16
    232c:	ff 90       	pop	r15
    232e:	ef 90       	pop	r14
    2330:	df 90       	pop	r13
    2332:	cf 90       	pop	r12
    2334:	08 95       	ret
    2336:	17 e0       	ldi	r17, 0x07	; 7
    2338:	f4 cf       	rjmp	.-24     	; 0x2322 <f_truncate+0xfe>
    233a:	12 e0       	ldi	r17, 0x02	; 2
    233c:	ef cf       	rjmp	.-34     	; 0x231c <f_truncate+0xf8>

0000233e <dir_remove>:
    233e:	cf 93       	push	r28
    2340:	df 93       	push	r29
    2342:	ec 01       	movw	r28, r24
    2344:	6c 81       	ldd	r22, Y+4	; 0x04
    2346:	7d 81       	ldd	r23, Y+5	; 0x05
    2348:	0e 94 bb 0e 	call	0x1d76	; 0x1d76 <dir_sdi>
    234c:	98 2f       	mov	r25, r24
    234e:	88 23       	and	r24, r24
    2350:	99 f4       	brne	.+38     	; 0x2378 <dir_remove+0x3a>
    2352:	4e 85       	ldd	r20, Y+14	; 0x0e
    2354:	5f 85       	ldd	r21, Y+15	; 0x0f
    2356:	68 89       	ldd	r22, Y+16	; 0x10
    2358:	79 89       	ldd	r23, Y+17	; 0x11
    235a:	88 81       	ld	r24, Y
    235c:	99 81       	ldd	r25, Y+1	; 0x01
    235e:	0e 94 96 0b 	call	0x172c	; 0x172c <move_window>
    2362:	98 2f       	mov	r25, r24
    2364:	88 23       	and	r24, r24
    2366:	41 f4       	brne	.+16     	; 0x2378 <dir_remove+0x3a>
    2368:	ea 89       	ldd	r30, Y+18	; 0x12
    236a:	fb 89       	ldd	r31, Y+19	; 0x13
    236c:	85 ee       	ldi	r24, 0xE5	; 229
    236e:	80 83       	st	Z, r24
    2370:	e8 81       	ld	r30, Y
    2372:	f9 81       	ldd	r31, Y+1	; 0x01
    2374:	81 e0       	ldi	r24, 0x01	; 1
    2376:	84 83       	std	Z+4, r24	; 0x04
    2378:	89 2f       	mov	r24, r25
    237a:	df 91       	pop	r29
    237c:	cf 91       	pop	r28
    237e:	08 95       	ret

00002380 <dir_next>:
    2380:	4f 92       	push	r4
    2382:	5f 92       	push	r5
    2384:	6f 92       	push	r6
    2386:	7f 92       	push	r7
    2388:	8f 92       	push	r8
    238a:	9f 92       	push	r9
    238c:	af 92       	push	r10
    238e:	bf 92       	push	r11
    2390:	cf 92       	push	r12
    2392:	df 92       	push	r13
    2394:	ef 92       	push	r14
    2396:	ff 92       	push	r15
    2398:	0f 93       	push	r16
    239a:	1f 93       	push	r17
    239c:	cf 93       	push	r28
    239e:	df 93       	push	r29
    23a0:	ec 01       	movw	r28, r24
    23a2:	6b 01       	movw	r12, r22
    23a4:	6c 80       	ldd	r6, Y+4	; 0x04
    23a6:	7d 80       	ldd	r7, Y+5	; 0x05
    23a8:	08 94       	sec
    23aa:	61 1c       	adc	r6, r1
    23ac:	71 1c       	adc	r7, r1
    23ae:	61 14       	cp	r6, r1
    23b0:	71 04       	cpc	r7, r1
    23b2:	09 f4       	brne	.+2      	; 0x23b6 <dir_next+0x36>
    23b4:	4c c1       	rjmp	.+664    	; 0x264e <dir_next+0x2ce>
    23b6:	8e 85       	ldd	r24, Y+14	; 0x0e
    23b8:	9f 85       	ldd	r25, Y+15	; 0x0f
    23ba:	a8 89       	ldd	r26, Y+16	; 0x10
    23bc:	b9 89       	ldd	r27, Y+17	; 0x11
    23be:	00 97       	sbiw	r24, 0x00	; 0
    23c0:	a1 05       	cpc	r26, r1
    23c2:	b1 05       	cpc	r27, r1
    23c4:	09 f4       	brne	.+2      	; 0x23c8 <dir_next+0x48>
    23c6:	43 c1       	rjmp	.+646    	; 0x264e <dir_next+0x2ce>
    23c8:	1f e0       	ldi	r17, 0x0F	; 15
    23ca:	41 2e       	mov	r4, r17
    23cc:	51 2c       	mov	r5, r1
    23ce:	46 20       	and	r4, r6
    23d0:	57 20       	and	r5, r7
    23d2:	41 14       	cp	r4, r1
    23d4:	51 04       	cpc	r5, r1
    23d6:	09 f0       	breq	.+2      	; 0x23da <dir_next+0x5a>
    23d8:	27 c1       	rjmp	.+590    	; 0x2628 <dir_next+0x2a8>
    23da:	01 96       	adiw	r24, 0x01	; 1
    23dc:	a1 1d       	adc	r26, r1
    23de:	b1 1d       	adc	r27, r1
    23e0:	8e 87       	std	Y+14, r24	; 0x0e
    23e2:	9f 87       	std	Y+15, r25	; 0x0f
    23e4:	a8 8b       	std	Y+16, r26	; 0x10
    23e6:	b9 8b       	std	Y+17, r27	; 0x11
    23e8:	4a 85       	ldd	r20, Y+10	; 0x0a
    23ea:	5b 85       	ldd	r21, Y+11	; 0x0b
    23ec:	6c 85       	ldd	r22, Y+12	; 0x0c
    23ee:	7d 85       	ldd	r23, Y+13	; 0x0d
    23f0:	e8 81       	ld	r30, Y
    23f2:	f9 81       	ldd	r31, Y+1	; 0x01
    23f4:	41 15       	cp	r20, r1
    23f6:	51 05       	cpc	r21, r1
    23f8:	61 05       	cpc	r22, r1
    23fa:	71 05       	cpc	r23, r1
    23fc:	39 f4       	brne	.+14     	; 0x240c <dir_next+0x8c>
    23fe:	80 85       	ldd	r24, Z+8	; 0x08
    2400:	91 85       	ldd	r25, Z+9	; 0x09
    2402:	68 16       	cp	r6, r24
    2404:	79 06       	cpc	r7, r25
    2406:	08 f4       	brcc	.+2      	; 0x240a <dir_next+0x8a>
    2408:	0f c1       	rjmp	.+542    	; 0x2628 <dir_next+0x2a8>
    240a:	21 c1       	rjmp	.+578    	; 0x264e <dir_next+0x2ce>
    240c:	82 81       	ldd	r24, Z+2	; 0x02
    240e:	90 e0       	ldi	r25, 0x00	; 0
    2410:	01 97       	sbiw	r24, 0x01	; 1
    2412:	93 01       	movw	r18, r6
    2414:	a4 e0       	ldi	r26, 0x04	; 4
    2416:	36 95       	lsr	r19
    2418:	27 95       	ror	r18
    241a:	aa 95       	dec	r26
    241c:	e1 f7       	brne	.-8      	; 0x2416 <dir_next+0x96>
    241e:	82 23       	and	r24, r18
    2420:	93 23       	and	r25, r19
    2422:	89 2b       	or	r24, r25
    2424:	09 f0       	breq	.+2      	; 0x2428 <dir_next+0xa8>
    2426:	00 c1       	rjmp	.+512    	; 0x2628 <dir_next+0x2a8>
    2428:	cf 01       	movw	r24, r30
    242a:	0e 94 e8 0d 	call	0x1bd0	; 0x1bd0 <get_fat>
    242e:	7b 01       	movw	r14, r22
    2430:	8c 01       	movw	r16, r24
    2432:	62 30       	cpi	r22, 0x02	; 2
    2434:	71 05       	cpc	r23, r1
    2436:	81 05       	cpc	r24, r1
    2438:	91 05       	cpc	r25, r1
    243a:	08 f4       	brcc	.+2      	; 0x243e <dir_next+0xbe>
    243c:	0a c1       	rjmp	.+532    	; 0x2652 <dir_next+0x2d2>
    243e:	8f ef       	ldi	r24, 0xFF	; 255
    2440:	e8 16       	cp	r14, r24
    2442:	8f ef       	ldi	r24, 0xFF	; 255
    2444:	f8 06       	cpc	r15, r24
    2446:	8f ef       	ldi	r24, 0xFF	; 255
    2448:	08 07       	cpc	r16, r24
    244a:	8f ef       	ldi	r24, 0xFF	; 255
    244c:	18 07       	cpc	r17, r24
    244e:	09 f4       	brne	.+2      	; 0x2452 <dir_next+0xd2>
    2450:	02 c1       	rjmp	.+516    	; 0x2656 <dir_next+0x2d6>
    2452:	e8 81       	ld	r30, Y
    2454:	f9 81       	ldd	r31, Y+1	; 0x01
    2456:	86 89       	ldd	r24, Z+22	; 0x16
    2458:	97 89       	ldd	r25, Z+23	; 0x17
    245a:	a0 8d       	ldd	r26, Z+24	; 0x18
    245c:	b1 8d       	ldd	r27, Z+25	; 0x19
    245e:	e8 16       	cp	r14, r24
    2460:	f9 06       	cpc	r15, r25
    2462:	0a 07       	cpc	r16, r26
    2464:	1b 07       	cpc	r17, r27
    2466:	08 f4       	brcc	.+2      	; 0x246a <dir_next+0xea>
    2468:	a6 c0       	rjmp	.+332    	; 0x25b6 <dir_next+0x236>
    246a:	cd 28       	or	r12, r13
    246c:	09 f4       	brne	.+2      	; 0x2470 <dir_next+0xf0>
    246e:	ef c0       	rjmp	.+478    	; 0x264e <dir_next+0x2ce>
    2470:	4a 85       	ldd	r20, Y+10	; 0x0a
    2472:	5b 85       	ldd	r21, Y+11	; 0x0b
    2474:	6c 85       	ldd	r22, Y+12	; 0x0c
    2476:	7d 85       	ldd	r23, Y+13	; 0x0d
    2478:	cf 01       	movw	r24, r30
    247a:	0e 94 b7 0f 	call	0x1f6e	; 0x1f6e <create_chain>
    247e:	7b 01       	movw	r14, r22
    2480:	8c 01       	movw	r16, r24
    2482:	61 15       	cp	r22, r1
    2484:	71 05       	cpc	r23, r1
    2486:	81 05       	cpc	r24, r1
    2488:	91 05       	cpc	r25, r1
    248a:	11 f4       	brne	.+4      	; 0x2490 <dir_next+0x110>
    248c:	87 e0       	ldi	r24, 0x07	; 7
    248e:	e4 c0       	rjmp	.+456    	; 0x2658 <dir_next+0x2d8>
    2490:	91 e0       	ldi	r25, 0x01	; 1
    2492:	e9 16       	cp	r14, r25
    2494:	f1 04       	cpc	r15, r1
    2496:	01 05       	cpc	r16, r1
    2498:	11 05       	cpc	r17, r1
    249a:	09 f4       	brne	.+2      	; 0x249e <dir_next+0x11e>
    249c:	da c0       	rjmp	.+436    	; 0x2652 <dir_next+0x2d2>
    249e:	af ef       	ldi	r26, 0xFF	; 255
    24a0:	ea 16       	cp	r14, r26
    24a2:	af ef       	ldi	r26, 0xFF	; 255
    24a4:	fa 06       	cpc	r15, r26
    24a6:	af ef       	ldi	r26, 0xFF	; 255
    24a8:	0a 07       	cpc	r16, r26
    24aa:	af ef       	ldi	r26, 0xFF	; 255
    24ac:	1a 07       	cpc	r17, r26
    24ae:	09 f4       	brne	.+2      	; 0x24b2 <dir_next+0x132>
    24b0:	d2 c0       	rjmp	.+420    	; 0x2656 <dir_next+0x2d6>
    24b2:	88 81       	ld	r24, Y
    24b4:	99 81       	ldd	r25, Y+1	; 0x01
    24b6:	40 e0       	ldi	r20, 0x00	; 0
    24b8:	50 e0       	ldi	r21, 0x00	; 0
    24ba:	60 e0       	ldi	r22, 0x00	; 0
    24bc:	70 e0       	ldi	r23, 0x00	; 0
    24be:	0e 94 96 0b 	call	0x172c	; 0x172c <move_window>
    24c2:	88 23       	and	r24, r24
    24c4:	09 f0       	breq	.+2      	; 0x24c8 <dir_next+0x148>
    24c6:	c7 c0       	rjmp	.+398    	; 0x2656 <dir_next+0x2d6>
    24c8:	e8 81       	ld	r30, Y
    24ca:	f9 81       	ldd	r31, Y+1	; 0x01
    24cc:	be 96       	adiw	r30, 0x2e	; 46
    24ce:	80 e0       	ldi	r24, 0x00	; 0
    24d0:	92 e0       	ldi	r25, 0x02	; 2
    24d2:	01 c0       	rjmp	.+2      	; 0x24d6 <dir_next+0x156>
    24d4:	11 92       	st	Z+, r1
    24d6:	01 97       	sbiw	r24, 0x01	; 1
    24d8:	bf ef       	ldi	r27, 0xFF	; 255
    24da:	8f 3f       	cpi	r24, 0xFF	; 255
    24dc:	9b 07       	cpc	r25, r27
    24de:	d1 f7       	brne	.-12     	; 0x24d4 <dir_next+0x154>
    24e0:	88 80       	ld	r8, Y
    24e2:	99 80       	ldd	r9, Y+1	; 0x01
    24e4:	8e ef       	ldi	r24, 0xFE	; 254
    24e6:	a8 2e       	mov	r10, r24
    24e8:	8f ef       	ldi	r24, 0xFF	; 255
    24ea:	b8 2e       	mov	r11, r24
    24ec:	8f ef       	ldi	r24, 0xFF	; 255
    24ee:	c8 2e       	mov	r12, r24
    24f0:	8f ef       	ldi	r24, 0xFF	; 255
    24f2:	d8 2e       	mov	r13, r24
    24f4:	ae 0c       	add	r10, r14
    24f6:	bf 1c       	adc	r11, r15
    24f8:	c0 1e       	adc	r12, r16
    24fa:	d1 1e       	adc	r13, r17
    24fc:	f4 01       	movw	r30, r8
    24fe:	86 89       	ldd	r24, Z+22	; 0x16
    2500:	97 89       	ldd	r25, Z+23	; 0x17
    2502:	a0 8d       	ldd	r26, Z+24	; 0x18
    2504:	b1 8d       	ldd	r27, Z+25	; 0x19
    2506:	02 97       	sbiw	r24, 0x02	; 2
    2508:	a1 09       	sbc	r26, r1
    250a:	b1 09       	sbc	r27, r1
    250c:	a8 16       	cp	r10, r24
    250e:	b9 06       	cpc	r11, r25
    2510:	ca 06       	cpc	r12, r26
    2512:	db 06       	cpc	r13, r27
    2514:	28 f0       	brcs	.+10     	; 0x2520 <dir_next+0x1a0>
    2516:	20 e0       	ldi	r18, 0x00	; 0
    2518:	30 e0       	ldi	r19, 0x00	; 0
    251a:	40 e0       	ldi	r20, 0x00	; 0
    251c:	50 e0       	ldi	r21, 0x00	; 0
    251e:	15 c0       	rjmp	.+42     	; 0x254a <dir_next+0x1ca>
    2520:	d4 01       	movw	r26, r8
    2522:	12 96       	adiw	r26, 0x02	; 2
    2524:	2c 91       	ld	r18, X
    2526:	30 e0       	ldi	r19, 0x00	; 0
    2528:	40 e0       	ldi	r20, 0x00	; 0
    252a:	50 e0       	ldi	r21, 0x00	; 0
    252c:	c6 01       	movw	r24, r12
    252e:	b5 01       	movw	r22, r10
    2530:	0e 94 2e 2b 	call	0x565c	; 0x565c <__mulsi3>
    2534:	9b 01       	movw	r18, r22
    2536:	ac 01       	movw	r20, r24
    2538:	f4 01       	movw	r30, r8
    253a:	86 a1       	ldd	r24, Z+38	; 0x26
    253c:	97 a1       	ldd	r25, Z+39	; 0x27
    253e:	a0 a5       	ldd	r26, Z+40	; 0x28
    2540:	b1 a5       	ldd	r27, Z+41	; 0x29
    2542:	28 0f       	add	r18, r24
    2544:	39 1f       	adc	r19, r25
    2546:	4a 1f       	adc	r20, r26
    2548:	5b 1f       	adc	r21, r27
    254a:	d4 01       	movw	r26, r8
    254c:	9a 96       	adiw	r26, 0x2a	; 42
    254e:	2d 93       	st	X+, r18
    2550:	3d 93       	st	X+, r19
    2552:	4d 93       	st	X+, r20
    2554:	5c 93       	st	X, r21
    2556:	9d 97       	sbiw	r26, 0x2d	; 45
    2558:	dd 24       	eor	r13, r13
    255a:	cc 24       	eor	r12, r12
    255c:	c3 94       	inc	r12
    255e:	1a c0       	rjmp	.+52     	; 0x2594 <dir_next+0x214>
    2560:	c4 82       	std	Z+4, r12	; 0x04
    2562:	88 81       	ld	r24, Y
    2564:	99 81       	ldd	r25, Y+1	; 0x01
    2566:	40 e0       	ldi	r20, 0x00	; 0
    2568:	50 e0       	ldi	r21, 0x00	; 0
    256a:	60 e0       	ldi	r22, 0x00	; 0
    256c:	70 e0       	ldi	r23, 0x00	; 0
    256e:	0e 94 96 0b 	call	0x172c	; 0x172c <move_window>
    2572:	88 23       	and	r24, r24
    2574:	09 f0       	breq	.+2      	; 0x2578 <dir_next+0x1f8>
    2576:	6f c0       	rjmp	.+222    	; 0x2656 <dir_next+0x2d6>
    2578:	e8 81       	ld	r30, Y
    257a:	f9 81       	ldd	r31, Y+1	; 0x01
    257c:	82 a5       	ldd	r24, Z+42	; 0x2a
    257e:	93 a5       	ldd	r25, Z+43	; 0x2b
    2580:	a4 a5       	ldd	r26, Z+44	; 0x2c
    2582:	b5 a5       	ldd	r27, Z+45	; 0x2d
    2584:	01 96       	adiw	r24, 0x01	; 1
    2586:	a1 1d       	adc	r26, r1
    2588:	b1 1d       	adc	r27, r1
    258a:	82 a7       	std	Z+42, r24	; 0x2a
    258c:	93 a7       	std	Z+43, r25	; 0x2b
    258e:	a4 a7       	std	Z+44, r26	; 0x2c
    2590:	b5 a7       	std	Z+45, r27	; 0x2d
    2592:	d3 94       	inc	r13
    2594:	e8 81       	ld	r30, Y
    2596:	f9 81       	ldd	r31, Y+1	; 0x01
    2598:	82 81       	ldd	r24, Z+2	; 0x02
    259a:	d8 16       	cp	r13, r24
    259c:	08 f3       	brcs	.-62     	; 0x2560 <dir_next+0x1e0>
    259e:	82 a5       	ldd	r24, Z+42	; 0x2a
    25a0:	93 a5       	ldd	r25, Z+43	; 0x2b
    25a2:	a4 a5       	ldd	r26, Z+44	; 0x2c
    25a4:	b5 a5       	ldd	r27, Z+45	; 0x2d
    25a6:	8d 19       	sub	r24, r13
    25a8:	91 09       	sbc	r25, r1
    25aa:	a1 09       	sbc	r26, r1
    25ac:	b1 09       	sbc	r27, r1
    25ae:	82 a7       	std	Z+42, r24	; 0x2a
    25b0:	93 a7       	std	Z+43, r25	; 0x2b
    25b2:	a4 a7       	std	Z+44, r26	; 0x2c
    25b4:	b5 a7       	std	Z+45, r27	; 0x2d
    25b6:	ea 86       	std	Y+10, r14	; 0x0a
    25b8:	fb 86       	std	Y+11, r15	; 0x0b
    25ba:	0c 87       	std	Y+12, r16	; 0x0c
    25bc:	1d 87       	std	Y+13, r17	; 0x0d
    25be:	c8 80       	ld	r12, Y
    25c0:	d9 80       	ldd	r13, Y+1	; 0x01
    25c2:	8e ef       	ldi	r24, 0xFE	; 254
    25c4:	9f ef       	ldi	r25, 0xFF	; 255
    25c6:	af ef       	ldi	r26, 0xFF	; 255
    25c8:	bf ef       	ldi	r27, 0xFF	; 255
    25ca:	e8 0e       	add	r14, r24
    25cc:	f9 1e       	adc	r15, r25
    25ce:	0a 1f       	adc	r16, r26
    25d0:	1b 1f       	adc	r17, r27
    25d2:	f6 01       	movw	r30, r12
    25d4:	86 89       	ldd	r24, Z+22	; 0x16
    25d6:	97 89       	ldd	r25, Z+23	; 0x17
    25d8:	a0 8d       	ldd	r26, Z+24	; 0x18
    25da:	b1 8d       	ldd	r27, Z+25	; 0x19
    25dc:	02 97       	sbiw	r24, 0x02	; 2
    25de:	a1 09       	sbc	r26, r1
    25e0:	b1 09       	sbc	r27, r1
    25e2:	e8 16       	cp	r14, r24
    25e4:	f9 06       	cpc	r15, r25
    25e6:	0a 07       	cpc	r16, r26
    25e8:	1b 07       	cpc	r17, r27
    25ea:	28 f0       	brcs	.+10     	; 0x25f6 <dir_next+0x276>
    25ec:	20 e0       	ldi	r18, 0x00	; 0
    25ee:	30 e0       	ldi	r19, 0x00	; 0
    25f0:	40 e0       	ldi	r20, 0x00	; 0
    25f2:	50 e0       	ldi	r21, 0x00	; 0
    25f4:	15 c0       	rjmp	.+42     	; 0x2620 <dir_next+0x2a0>
    25f6:	d6 01       	movw	r26, r12
    25f8:	12 96       	adiw	r26, 0x02	; 2
    25fa:	2c 91       	ld	r18, X
    25fc:	30 e0       	ldi	r19, 0x00	; 0
    25fe:	40 e0       	ldi	r20, 0x00	; 0
    2600:	50 e0       	ldi	r21, 0x00	; 0
    2602:	c8 01       	movw	r24, r16
    2604:	b7 01       	movw	r22, r14
    2606:	0e 94 2e 2b 	call	0x565c	; 0x565c <__mulsi3>
    260a:	9b 01       	movw	r18, r22
    260c:	ac 01       	movw	r20, r24
    260e:	f6 01       	movw	r30, r12
    2610:	86 a1       	ldd	r24, Z+38	; 0x26
    2612:	97 a1       	ldd	r25, Z+39	; 0x27
    2614:	a0 a5       	ldd	r26, Z+40	; 0x28
    2616:	b1 a5       	ldd	r27, Z+41	; 0x29
    2618:	28 0f       	add	r18, r24
    261a:	39 1f       	adc	r19, r25
    261c:	4a 1f       	adc	r20, r26
    261e:	5b 1f       	adc	r21, r27
    2620:	2e 87       	std	Y+14, r18	; 0x0e
    2622:	3f 87       	std	Y+15, r19	; 0x0f
    2624:	48 8b       	std	Y+16, r20	; 0x10
    2626:	59 8b       	std	Y+17, r21	; 0x11
    2628:	7d 82       	std	Y+5, r7	; 0x05
    262a:	6c 82       	std	Y+4, r6	; 0x04
    262c:	05 e0       	ldi	r16, 0x05	; 5
    262e:	44 0c       	add	r4, r4
    2630:	55 1c       	adc	r5, r5
    2632:	0a 95       	dec	r16
    2634:	e1 f7       	brne	.-8      	; 0x262e <dir_next+0x2ae>
    2636:	8e e2       	ldi	r24, 0x2E	; 46
    2638:	90 e0       	ldi	r25, 0x00	; 0
    263a:	48 0e       	add	r4, r24
    263c:	59 1e       	adc	r5, r25
    263e:	88 81       	ld	r24, Y
    2640:	99 81       	ldd	r25, Y+1	; 0x01
    2642:	84 0d       	add	r24, r4
    2644:	95 1d       	adc	r25, r5
    2646:	9b 8b       	std	Y+19, r25	; 0x13
    2648:	8a 8b       	std	Y+18, r24	; 0x12
    264a:	80 e0       	ldi	r24, 0x00	; 0
    264c:	05 c0       	rjmp	.+10     	; 0x2658 <dir_next+0x2d8>
    264e:	84 e0       	ldi	r24, 0x04	; 4
    2650:	03 c0       	rjmp	.+6      	; 0x2658 <dir_next+0x2d8>
    2652:	82 e0       	ldi	r24, 0x02	; 2
    2654:	01 c0       	rjmp	.+2      	; 0x2658 <dir_next+0x2d8>
    2656:	81 e0       	ldi	r24, 0x01	; 1
    2658:	df 91       	pop	r29
    265a:	cf 91       	pop	r28
    265c:	1f 91       	pop	r17
    265e:	0f 91       	pop	r16
    2660:	ff 90       	pop	r15
    2662:	ef 90       	pop	r14
    2664:	df 90       	pop	r13
    2666:	cf 90       	pop	r12
    2668:	bf 90       	pop	r11
    266a:	af 90       	pop	r10
    266c:	9f 90       	pop	r9
    266e:	8f 90       	pop	r8
    2670:	7f 90       	pop	r7
    2672:	6f 90       	pop	r6
    2674:	5f 90       	pop	r5
    2676:	4f 90       	pop	r4
    2678:	08 95       	ret

0000267a <follow_path>:
    267a:	af 92       	push	r10
    267c:	bf 92       	push	r11
    267e:	cf 92       	push	r12
    2680:	df 92       	push	r13
    2682:	ef 92       	push	r14
    2684:	ff 92       	push	r15
    2686:	0f 93       	push	r16
    2688:	1f 93       	push	r17
    268a:	cf 93       	push	r28
    268c:	df 93       	push	r29
    268e:	ec 01       	movw	r28, r24
    2690:	8b 01       	movw	r16, r22
    2692:	fb 01       	movw	r30, r22
    2694:	80 81       	ld	r24, Z
    2696:	8f 32       	cpi	r24, 0x2F	; 47
    2698:	11 f0       	breq	.+4      	; 0x269e <follow_path+0x24>
    269a:	8c 35       	cpi	r24, 0x5C	; 92
    269c:	11 f4       	brne	.+4      	; 0x26a2 <follow_path+0x28>
    269e:	0f 5f       	subi	r16, 0xFF	; 255
    26a0:	1f 4f       	sbci	r17, 0xFF	; 255
    26a2:	1e 82       	std	Y+6, r1	; 0x06
    26a4:	1f 82       	std	Y+7, r1	; 0x07
    26a6:	18 86       	std	Y+8, r1	; 0x08
    26a8:	19 86       	std	Y+9, r1	; 0x09
    26aa:	f8 01       	movw	r30, r16
    26ac:	80 81       	ld	r24, Z
    26ae:	80 32       	cpi	r24, 0x20	; 32
    26b0:	40 f4       	brcc	.+16     	; 0x26c2 <follow_path+0x48>
    26b2:	ce 01       	movw	r24, r28
    26b4:	60 e0       	ldi	r22, 0x00	; 0
    26b6:	70 e0       	ldi	r23, 0x00	; 0
    26b8:	0e 94 bb 0e 	call	0x1d76	; 0x1d76 <dir_sdi>
    26bc:	1b 8a       	std	Y+19, r1	; 0x13
    26be:	1a 8a       	std	Y+18, r1	; 0x12
    26c0:	e3 c0       	rjmp	.+454    	; 0x2888 <follow_path+0x20e>
    26c2:	40 e2       	ldi	r20, 0x20	; 32
    26c4:	b4 2e       	mov	r11, r20
    26c6:	35 e0       	ldi	r19, 0x05	; 5
    26c8:	a3 2e       	mov	r10, r19
    26ca:	ec 88       	ldd	r14, Y+20	; 0x14
    26cc:	fd 88       	ldd	r15, Y+21	; 0x15
    26ce:	f7 01       	movw	r30, r14
    26d0:	8b e0       	ldi	r24, 0x0B	; 11
    26d2:	90 e0       	ldi	r25, 0x00	; 0
    26d4:	01 c0       	rjmp	.+2      	; 0x26d8 <follow_path+0x5e>
    26d6:	b1 92       	st	Z+, r11
    26d8:	01 97       	sbiw	r24, 0x01	; 1
    26da:	2f ef       	ldi	r18, 0xFF	; 255
    26dc:	8f 3f       	cpi	r24, 0xFF	; 255
    26de:	92 07       	cpc	r25, r18
    26e0:	d1 f7       	brne	.-12     	; 0x26d6 <follow_path+0x5c>
    26e2:	60 e0       	ldi	r22, 0x00	; 0
    26e4:	70 e0       	ldi	r23, 0x00	; 0
    26e6:	cc 24       	eor	r12, r12
    26e8:	dd 24       	eor	r13, r13
    26ea:	a8 e0       	ldi	r26, 0x08	; 8
    26ec:	b0 e0       	ldi	r27, 0x00	; 0
    26ee:	30 e0       	ldi	r19, 0x00	; 0
    26f0:	f8 01       	movw	r30, r16
    26f2:	ec 0d       	add	r30, r12
    26f4:	fd 1d       	adc	r31, r13
    26f6:	20 81       	ld	r18, Z
    26f8:	08 94       	sec
    26fa:	c1 1c       	adc	r12, r1
    26fc:	d1 1c       	adc	r13, r1
    26fe:	21 32       	cpi	r18, 0x21	; 33
    2700:	08 f4       	brcc	.+2      	; 0x2704 <follow_path+0x8a>
    2702:	41 c0       	rjmp	.+130    	; 0x2786 <follow_path+0x10c>
    2704:	2f 32       	cpi	r18, 0x2F	; 47
    2706:	09 f4       	brne	.+2      	; 0x270a <follow_path+0x90>
    2708:	ca c0       	rjmp	.+404    	; 0x289e <follow_path+0x224>
    270a:	2c 35       	cpi	r18, 0x5C	; 92
    270c:	09 f4       	brne	.+2      	; 0x2710 <follow_path+0x96>
    270e:	c7 c0       	rjmp	.+398    	; 0x289e <follow_path+0x224>
    2710:	2e 32       	cpi	r18, 0x2E	; 46
    2712:	19 f0       	breq	.+6      	; 0x271a <follow_path+0xa0>
    2714:	6a 17       	cp	r22, r26
    2716:	7b 07       	cpc	r23, r27
    2718:	68 f0       	brcs	.+26     	; 0x2734 <follow_path+0xba>
    271a:	18 97       	sbiw	r26, 0x08	; 8
    271c:	09 f0       	breq	.+2      	; 0x2720 <follow_path+0xa6>
    271e:	af c0       	rjmp	.+350    	; 0x287e <follow_path+0x204>
    2720:	2e 32       	cpi	r18, 0x2E	; 46
    2722:	09 f0       	breq	.+2      	; 0x2726 <follow_path+0xac>
    2724:	ac c0       	rjmp	.+344    	; 0x287e <follow_path+0x204>
    2726:	33 0f       	add	r19, r19
    2728:	33 0f       	add	r19, r19
    272a:	68 e0       	ldi	r22, 0x08	; 8
    272c:	70 e0       	ldi	r23, 0x00	; 0
    272e:	ab e0       	ldi	r26, 0x0B	; 11
    2730:	b0 e0       	ldi	r27, 0x00	; 0
    2732:	de cf       	rjmp	.-68     	; 0x26f0 <follow_path+0x76>
    2734:	27 ff       	sbrs	r18, 7
    2736:	06 c0       	rjmp	.+12     	; 0x2744 <follow_path+0xca>
    2738:	33 60       	ori	r19, 0x03	; 3
    273a:	e2 2f       	mov	r30, r18
    273c:	f0 e0       	ldi	r31, 0x00	; 0
    273e:	e3 53       	subi	r30, 0x33	; 51
    2740:	ff 4f       	sbci	r31, 0xFF	; 255
    2742:	20 81       	ld	r18, Z
    2744:	42 2f       	mov	r20, r18
    2746:	50 e0       	ldi	r21, 0x00	; 0
    2748:	e2 e1       	ldi	r30, 0x12	; 18
    274a:	f1 e0       	ldi	r31, 0x01	; 1
    274c:	01 c0       	rjmp	.+2      	; 0x2750 <follow_path+0xd6>
    274e:	31 96       	adiw	r30, 0x01	; 1
    2750:	80 81       	ld	r24, Z
    2752:	88 23       	and	r24, r24
    2754:	29 f0       	breq	.+10     	; 0x2760 <follow_path+0xe6>
    2756:	90 e0       	ldi	r25, 0x00	; 0
    2758:	84 17       	cp	r24, r20
    275a:	95 07       	cpc	r25, r21
    275c:	c1 f7       	brne	.-16     	; 0x274e <follow_path+0xd4>
    275e:	8f c0       	rjmp	.+286    	; 0x287e <follow_path+0x204>
    2760:	82 2f       	mov	r24, r18
    2762:	81 54       	subi	r24, 0x41	; 65
    2764:	8a 31       	cpi	r24, 0x1A	; 26
    2766:	10 f4       	brcc	.+4      	; 0x276c <follow_path+0xf2>
    2768:	32 60       	ori	r19, 0x02	; 2
    276a:	06 c0       	rjmp	.+12     	; 0x2778 <follow_path+0xfe>
    276c:	82 2f       	mov	r24, r18
    276e:	81 56       	subi	r24, 0x61	; 97
    2770:	8a 31       	cpi	r24, 0x1A	; 26
    2772:	10 f4       	brcc	.+4      	; 0x2778 <follow_path+0xfe>
    2774:	31 60       	ori	r19, 0x01	; 1
    2776:	20 52       	subi	r18, 0x20	; 32
    2778:	f7 01       	movw	r30, r14
    277a:	e6 0f       	add	r30, r22
    277c:	f7 1f       	adc	r31, r23
    277e:	20 83       	st	Z, r18
    2780:	6f 5f       	subi	r22, 0xFF	; 255
    2782:	7f 4f       	sbci	r23, 0xFF	; 255
    2784:	b5 cf       	rjmp	.-150    	; 0x26f0 <follow_path+0x76>
    2786:	44 e0       	ldi	r20, 0x04	; 4
    2788:	67 2b       	or	r22, r23
    278a:	09 f4       	brne	.+2      	; 0x278e <follow_path+0x114>
    278c:	78 c0       	rjmp	.+240    	; 0x287e <follow_path+0x204>
    278e:	f7 01       	movw	r30, r14
    2790:	80 81       	ld	r24, Z
    2792:	85 3e       	cpi	r24, 0xE5	; 229
    2794:	09 f4       	brne	.+2      	; 0x2798 <follow_path+0x11e>
    2796:	a0 82       	st	Z, r10
    2798:	18 97       	sbiw	r26, 0x08	; 8
    279a:	11 f4       	brne	.+4      	; 0x27a0 <follow_path+0x126>
    279c:	33 0f       	add	r19, r19
    279e:	33 0f       	add	r19, r19
    27a0:	23 2f       	mov	r18, r19
    27a2:	30 e0       	ldi	r19, 0x00	; 0
    27a4:	c9 01       	movw	r24, r18
    27a6:	83 70       	andi	r24, 0x03	; 3
    27a8:	90 70       	andi	r25, 0x00	; 0
    27aa:	01 97       	sbiw	r24, 0x01	; 1
    27ac:	09 f4       	brne	.+2      	; 0x27b0 <follow_path+0x136>
    27ae:	40 61       	ori	r20, 0x10	; 16
    27b0:	2c 70       	andi	r18, 0x0C	; 12
    27b2:	30 70       	andi	r19, 0x00	; 0
    27b4:	24 30       	cpi	r18, 0x04	; 4
    27b6:	31 05       	cpc	r19, r1
    27b8:	09 f4       	brne	.+2      	; 0x27bc <follow_path+0x142>
    27ba:	48 60       	ori	r20, 0x08	; 8
    27bc:	f7 01       	movw	r30, r14
    27be:	43 87       	std	Z+11, r20	; 0x0b
    27c0:	ce 01       	movw	r24, r28
    27c2:	60 e0       	ldi	r22, 0x00	; 0
    27c4:	70 e0       	ldi	r23, 0x00	; 0
    27c6:	0e 94 bb 0e 	call	0x1d76	; 0x1d76 <dir_sdi>
    27ca:	48 2f       	mov	r20, r24
    27cc:	88 23       	and	r24, r24
    27ce:	79 f5       	brne	.+94     	; 0x282e <follow_path+0x1b4>
    27d0:	4e 85       	ldd	r20, Y+14	; 0x0e
    27d2:	5f 85       	ldd	r21, Y+15	; 0x0f
    27d4:	68 89       	ldd	r22, Y+16	; 0x10
    27d6:	79 89       	ldd	r23, Y+17	; 0x11
    27d8:	88 81       	ld	r24, Y
    27da:	99 81       	ldd	r25, Y+1	; 0x01
    27dc:	0e 94 96 0b 	call	0x172c	; 0x172c <move_window>
    27e0:	48 2f       	mov	r20, r24
    27e2:	88 23       	and	r24, r24
    27e4:	21 f5       	brne	.+72     	; 0x282e <follow_path+0x1b4>
    27e6:	ea 89       	ldd	r30, Y+18	; 0x12
    27e8:	fb 89       	ldd	r31, Y+19	; 0x13
    27ea:	80 81       	ld	r24, Z
    27ec:	88 23       	and	r24, r24
    27ee:	11 f4       	brne	.+4      	; 0x27f4 <follow_path+0x17a>
    27f0:	44 e0       	ldi	r20, 0x04	; 4
    27f2:	1d c0       	rjmp	.+58     	; 0x282e <follow_path+0x1b4>
    27f4:	83 85       	ldd	r24, Z+11	; 0x0b
    27f6:	83 fd       	sbrc	r24, 3
    27f8:	14 c0       	rjmp	.+40     	; 0x2822 <follow_path+0x1a8>
    27fa:	df 01       	movw	r26, r30
    27fc:	8c 89       	ldd	r24, Y+20	; 0x14
    27fe:	9d 89       	ldd	r25, Y+21	; 0x15
    2800:	9c 01       	movw	r18, r24
    2802:	f9 01       	movw	r30, r18
    2804:	2b e0       	ldi	r18, 0x0B	; 11
    2806:	30 e0       	ldi	r19, 0x00	; 0
    2808:	21 50       	subi	r18, 0x01	; 1
    280a:	30 40       	sbci	r19, 0x00	; 0
    280c:	8f ef       	ldi	r24, 0xFF	; 255
    280e:	2f 3f       	cpi	r18, 0xFF	; 255
    2810:	38 07       	cpc	r19, r24
    2812:	69 f0       	breq	.+26     	; 0x282e <follow_path+0x1b4>
    2814:	9c 91       	ld	r25, X
    2816:	80 81       	ld	r24, Z
    2818:	98 17       	cp	r25, r24
    281a:	19 f4       	brne	.+6      	; 0x2822 <follow_path+0x1a8>
    281c:	11 96       	adiw	r26, 0x01	; 1
    281e:	31 96       	adiw	r30, 0x01	; 1
    2820:	f3 cf       	rjmp	.-26     	; 0x2808 <follow_path+0x18e>
    2822:	ce 01       	movw	r24, r28
    2824:	60 e0       	ldi	r22, 0x00	; 0
    2826:	70 e0       	ldi	r23, 0x00	; 0
    2828:	0e 94 c0 11 	call	0x2380	; 0x2380 <dir_next>
    282c:	ce cf       	rjmp	.-100    	; 0x27ca <follow_path+0x150>
    282e:	ec 89       	ldd	r30, Y+20	; 0x14
    2830:	fd 89       	ldd	r31, Y+21	; 0x15
    2832:	93 85       	ldd	r25, Z+11	; 0x0b
    2834:	44 23       	and	r20, r20
    2836:	31 f0       	breq	.+12     	; 0x2844 <follow_path+0x1ca>
    2838:	84 2f       	mov	r24, r20
    283a:	44 30       	cpi	r20, 0x04	; 4
    283c:	11 f5       	brne	.+68     	; 0x2882 <follow_path+0x208>
    283e:	92 ff       	sbrs	r25, 2
    2840:	22 c0       	rjmp	.+68     	; 0x2886 <follow_path+0x20c>
    2842:	22 c0       	rjmp	.+68     	; 0x2888 <follow_path+0x20e>
    2844:	92 fd       	sbrc	r25, 2
    2846:	1d c0       	rjmp	.+58     	; 0x2882 <follow_path+0x208>
    2848:	ea 89       	ldd	r30, Y+18	; 0x12
    284a:	fb 89       	ldd	r31, Y+19	; 0x13
    284c:	83 85       	ldd	r24, Z+11	; 0x0b
    284e:	84 ff       	sbrs	r24, 4
    2850:	1a c0       	rjmp	.+52     	; 0x2886 <follow_path+0x20c>
    2852:	0c 0d       	add	r16, r12
    2854:	1d 1d       	adc	r17, r13
    2856:	84 89       	ldd	r24, Z+20	; 0x14
    2858:	95 89       	ldd	r25, Z+21	; 0x15
    285a:	a0 e0       	ldi	r26, 0x00	; 0
    285c:	b0 e0       	ldi	r27, 0x00	; 0
    285e:	dc 01       	movw	r26, r24
    2860:	99 27       	eor	r25, r25
    2862:	88 27       	eor	r24, r24
    2864:	22 8d       	ldd	r18, Z+26	; 0x1a
    2866:	33 8d       	ldd	r19, Z+27	; 0x1b
    2868:	40 e0       	ldi	r20, 0x00	; 0
    286a:	50 e0       	ldi	r21, 0x00	; 0
    286c:	82 2b       	or	r24, r18
    286e:	93 2b       	or	r25, r19
    2870:	a4 2b       	or	r26, r20
    2872:	b5 2b       	or	r27, r21
    2874:	8e 83       	std	Y+6, r24	; 0x06
    2876:	9f 83       	std	Y+7, r25	; 0x07
    2878:	a8 87       	std	Y+8, r26	; 0x08
    287a:	b9 87       	std	Y+9, r27	; 0x09
    287c:	26 cf       	rjmp	.-436    	; 0x26ca <follow_path+0x50>
    287e:	86 e0       	ldi	r24, 0x06	; 6
    2880:	03 c0       	rjmp	.+6      	; 0x2888 <follow_path+0x20e>
    2882:	84 2f       	mov	r24, r20
    2884:	01 c0       	rjmp	.+2      	; 0x2888 <follow_path+0x20e>
    2886:	85 e0       	ldi	r24, 0x05	; 5
    2888:	df 91       	pop	r29
    288a:	cf 91       	pop	r28
    288c:	1f 91       	pop	r17
    288e:	0f 91       	pop	r16
    2890:	ff 90       	pop	r15
    2892:	ef 90       	pop	r14
    2894:	df 90       	pop	r13
    2896:	cf 90       	pop	r12
    2898:	bf 90       	pop	r11
    289a:	af 90       	pop	r10
    289c:	08 95       	ret
    289e:	40 e0       	ldi	r20, 0x00	; 0
    28a0:	73 cf       	rjmp	.-282    	; 0x2788 <follow_path+0x10e>

000028a2 <f_utime>:
    28a2:	ef 92       	push	r14
    28a4:	ff 92       	push	r15
    28a6:	0f 93       	push	r16
    28a8:	1f 93       	push	r17
    28aa:	df 93       	push	r29
    28ac:	cf 93       	push	r28
    28ae:	cd b7       	in	r28, 0x3d	; 61
    28b0:	de b7       	in	r29, 0x3e	; 62
    28b2:	a4 97       	sbiw	r28, 0x24	; 36
    28b4:	0f b6       	in	r0, 0x3f	; 63
    28b6:	f8 94       	cli
    28b8:	de bf       	out	0x3e, r29	; 62
    28ba:	0f be       	out	0x3f, r0	; 63
    28bc:	cd bf       	out	0x3d, r28	; 61
    28be:	9c a3       	std	Y+36, r25	; 0x24
    28c0:	8b a3       	std	Y+35, r24	; 0x23
    28c2:	8b 01       	movw	r16, r22
    28c4:	5d e0       	ldi	r21, 0x0D	; 13
    28c6:	e5 2e       	mov	r14, r21
    28c8:	f1 2c       	mov	r15, r1
    28ca:	ec 0e       	add	r14, r28
    28cc:	fd 1e       	adc	r15, r29
    28ce:	ce 01       	movw	r24, r28
    28d0:	83 96       	adiw	r24, 0x23	; 35
    28d2:	b7 01       	movw	r22, r14
    28d4:	41 e0       	ldi	r20, 0x01	; 1
    28d6:	0e 94 09 09 	call	0x1212	; 0x1212 <chk_mounted>
    28da:	88 23       	and	r24, r24
    28dc:	29 f5       	brne	.+74     	; 0x2928 <f_utime+0x86>
    28de:	ce 01       	movw	r24, r28
    28e0:	01 96       	adiw	r24, 0x01	; 1
    28e2:	9a a3       	std	Y+34, r25	; 0x22
    28e4:	89 a3       	std	Y+33, r24	; 0x21
    28e6:	6b a1       	ldd	r22, Y+35	; 0x23
    28e8:	7c a1       	ldd	r23, Y+36	; 0x24
    28ea:	c7 01       	movw	r24, r14
    28ec:	0e 94 3d 13 	call	0x267a	; 0x267a <follow_path>
    28f0:	88 23       	and	r24, r24
    28f2:	d1 f4       	brne	.+52     	; 0x2928 <f_utime+0x86>
    28f4:	ef 8d       	ldd	r30, Y+31	; 0x1f
    28f6:	f8 a1       	ldd	r31, Y+32	; 0x20
    28f8:	30 97       	sbiw	r30, 0x00	; 0
    28fa:	11 f4       	brne	.+4      	; 0x2900 <f_utime+0x5e>
    28fc:	86 e0       	ldi	r24, 0x06	; 6
    28fe:	14 c0       	rjmp	.+40     	; 0x2928 <f_utime+0x86>
    2900:	d8 01       	movw	r26, r16
    2902:	16 96       	adiw	r26, 0x06	; 6
    2904:	8d 91       	ld	r24, X+
    2906:	9c 91       	ld	r25, X
    2908:	17 97       	sbiw	r26, 0x07	; 7
    290a:	97 8b       	std	Z+23, r25	; 0x17
    290c:	86 8b       	std	Z+22, r24	; 0x16
    290e:	14 96       	adiw	r26, 0x04	; 4
    2910:	8d 91       	ld	r24, X+
    2912:	9c 91       	ld	r25, X
    2914:	15 97       	sbiw	r26, 0x05	; 5
    2916:	91 8f       	std	Z+25, r25	; 0x19
    2918:	80 8f       	std	Z+24, r24	; 0x18
    291a:	ed 85       	ldd	r30, Y+13	; 0x0d
    291c:	fe 85       	ldd	r31, Y+14	; 0x0e
    291e:	81 e0       	ldi	r24, 0x01	; 1
    2920:	84 83       	std	Z+4, r24	; 0x04
    2922:	cf 01       	movw	r24, r30
    2924:	0e 94 0f 0c 	call	0x181e	; 0x181e <sync>
    2928:	a4 96       	adiw	r28, 0x24	; 36
    292a:	0f b6       	in	r0, 0x3f	; 63
    292c:	f8 94       	cli
    292e:	de bf       	out	0x3e, r29	; 62
    2930:	0f be       	out	0x3f, r0	; 63
    2932:	cd bf       	out	0x3d, r28	; 61
    2934:	cf 91       	pop	r28
    2936:	df 91       	pop	r29
    2938:	1f 91       	pop	r17
    293a:	0f 91       	pop	r16
    293c:	ff 90       	pop	r15
    293e:	ef 90       	pop	r14
    2940:	08 95       	ret

00002942 <f_chmod>:
    2942:	ef 92       	push	r14
    2944:	ff 92       	push	r15
    2946:	0f 93       	push	r16
    2948:	1f 93       	push	r17
    294a:	df 93       	push	r29
    294c:	cf 93       	push	r28
    294e:	cd b7       	in	r28, 0x3d	; 61
    2950:	de b7       	in	r29, 0x3e	; 62
    2952:	a4 97       	sbiw	r28, 0x24	; 36
    2954:	0f b6       	in	r0, 0x3f	; 63
    2956:	f8 94       	cli
    2958:	de bf       	out	0x3e, r29	; 62
    295a:	0f be       	out	0x3f, r0	; 63
    295c:	cd bf       	out	0x3d, r28	; 61
    295e:	9c a3       	std	Y+36, r25	; 0x24
    2960:	8b a3       	std	Y+35, r24	; 0x23
    2962:	e6 2e       	mov	r14, r22
    2964:	f4 2e       	mov	r15, r20
    2966:	8e 01       	movw	r16, r28
    2968:	03 5f       	subi	r16, 0xF3	; 243
    296a:	1f 4f       	sbci	r17, 0xFF	; 255
    296c:	ce 01       	movw	r24, r28
    296e:	83 96       	adiw	r24, 0x23	; 35
    2970:	b8 01       	movw	r22, r16
    2972:	41 e0       	ldi	r20, 0x01	; 1
    2974:	0e 94 09 09 	call	0x1212	; 0x1212 <chk_mounted>
    2978:	88 23       	and	r24, r24
    297a:	09 f5       	brne	.+66     	; 0x29be <f_chmod+0x7c>
    297c:	ce 01       	movw	r24, r28
    297e:	01 96       	adiw	r24, 0x01	; 1
    2980:	9a a3       	std	Y+34, r25	; 0x22
    2982:	89 a3       	std	Y+33, r24	; 0x21
    2984:	6b a1       	ldd	r22, Y+35	; 0x23
    2986:	7c a1       	ldd	r23, Y+36	; 0x24
    2988:	c8 01       	movw	r24, r16
    298a:	0e 94 3d 13 	call	0x267a	; 0x267a <follow_path>
    298e:	88 23       	and	r24, r24
    2990:	b1 f4       	brne	.+44     	; 0x29be <f_chmod+0x7c>
    2992:	ef 8d       	ldd	r30, Y+31	; 0x1f
    2994:	f8 a1       	ldd	r31, Y+32	; 0x20
    2996:	30 97       	sbiw	r30, 0x00	; 0
    2998:	11 f4       	brne	.+4      	; 0x299e <f_chmod+0x5c>
    299a:	86 e0       	ldi	r24, 0x06	; 6
    299c:	10 c0       	rjmp	.+32     	; 0x29be <f_chmod+0x7c>
    299e:	9f 2d       	mov	r25, r15
    29a0:	97 72       	andi	r25, 0x27	; 39
    29a2:	89 2f       	mov	r24, r25
    29a4:	80 95       	com	r24
    29a6:	23 85       	ldd	r18, Z+11	; 0x0b
    29a8:	82 23       	and	r24, r18
    29aa:	9e 21       	and	r25, r14
    29ac:	89 2b       	or	r24, r25
    29ae:	83 87       	std	Z+11, r24	; 0x0b
    29b0:	ed 85       	ldd	r30, Y+13	; 0x0d
    29b2:	fe 85       	ldd	r31, Y+14	; 0x0e
    29b4:	81 e0       	ldi	r24, 0x01	; 1
    29b6:	84 83       	std	Z+4, r24	; 0x04
    29b8:	cf 01       	movw	r24, r30
    29ba:	0e 94 0f 0c 	call	0x181e	; 0x181e <sync>
    29be:	a4 96       	adiw	r28, 0x24	; 36
    29c0:	0f b6       	in	r0, 0x3f	; 63
    29c2:	f8 94       	cli
    29c4:	de bf       	out	0x3e, r29	; 62
    29c6:	0f be       	out	0x3f, r0	; 63
    29c8:	cd bf       	out	0x3d, r28	; 61
    29ca:	cf 91       	pop	r28
    29cc:	df 91       	pop	r29
    29ce:	1f 91       	pop	r17
    29d0:	0f 91       	pop	r16
    29d2:	ff 90       	pop	r15
    29d4:	ef 90       	pop	r14
    29d6:	08 95       	ret

000029d8 <f_stat>:
    29d8:	cf 92       	push	r12
    29da:	df 92       	push	r13
    29dc:	ef 92       	push	r14
    29de:	ff 92       	push	r15
    29e0:	1f 93       	push	r17
    29e2:	df 93       	push	r29
    29e4:	cf 93       	push	r28
    29e6:	cd b7       	in	r28, 0x3d	; 61
    29e8:	de b7       	in	r29, 0x3e	; 62
    29ea:	a4 97       	sbiw	r28, 0x24	; 36
    29ec:	0f b6       	in	r0, 0x3f	; 63
    29ee:	f8 94       	cli
    29f0:	de bf       	out	0x3e, r29	; 62
    29f2:	0f be       	out	0x3f, r0	; 63
    29f4:	cd bf       	out	0x3d, r28	; 61
    29f6:	9c a3       	std	Y+36, r25	; 0x24
    29f8:	8b a3       	std	Y+35, r24	; 0x23
    29fa:	6b 01       	movw	r12, r22
    29fc:	6d e0       	ldi	r22, 0x0D	; 13
    29fe:	e6 2e       	mov	r14, r22
    2a00:	f1 2c       	mov	r15, r1
    2a02:	ec 0e       	add	r14, r28
    2a04:	fd 1e       	adc	r15, r29
    2a06:	ce 01       	movw	r24, r28
    2a08:	83 96       	adiw	r24, 0x23	; 35
    2a0a:	b7 01       	movw	r22, r14
    2a0c:	40 e0       	ldi	r20, 0x00	; 0
    2a0e:	0e 94 09 09 	call	0x1212	; 0x1212 <chk_mounted>
    2a12:	18 2f       	mov	r17, r24
    2a14:	88 23       	and	r24, r24
    2a16:	b1 f4       	brne	.+44     	; 0x2a44 <f_stat+0x6c>
    2a18:	ce 01       	movw	r24, r28
    2a1a:	01 96       	adiw	r24, 0x01	; 1
    2a1c:	9a a3       	std	Y+34, r25	; 0x22
    2a1e:	89 a3       	std	Y+33, r24	; 0x21
    2a20:	6b a1       	ldd	r22, Y+35	; 0x23
    2a22:	7c a1       	ldd	r23, Y+36	; 0x24
    2a24:	c7 01       	movw	r24, r14
    2a26:	0e 94 3d 13 	call	0x267a	; 0x267a <follow_path>
    2a2a:	18 2f       	mov	r17, r24
    2a2c:	88 23       	and	r24, r24
    2a2e:	51 f4       	brne	.+20     	; 0x2a44 <f_stat+0x6c>
    2a30:	8f 8d       	ldd	r24, Y+31	; 0x1f
    2a32:	98 a1       	ldd	r25, Y+32	; 0x20
    2a34:	89 2b       	or	r24, r25
    2a36:	11 f4       	brne	.+4      	; 0x2a3c <f_stat+0x64>
    2a38:	16 e0       	ldi	r17, 0x06	; 6
    2a3a:	04 c0       	rjmp	.+8      	; 0x2a44 <f_stat+0x6c>
    2a3c:	c7 01       	movw	r24, r14
    2a3e:	b6 01       	movw	r22, r12
    2a40:	0e 94 8b 03 	call	0x716	; 0x716 <get_fileinfo>
    2a44:	81 2f       	mov	r24, r17
    2a46:	a4 96       	adiw	r28, 0x24	; 36
    2a48:	0f b6       	in	r0, 0x3f	; 63
    2a4a:	f8 94       	cli
    2a4c:	de bf       	out	0x3e, r29	; 62
    2a4e:	0f be       	out	0x3f, r0	; 63
    2a50:	cd bf       	out	0x3d, r28	; 61
    2a52:	cf 91       	pop	r28
    2a54:	df 91       	pop	r29
    2a56:	1f 91       	pop	r17
    2a58:	ff 90       	pop	r15
    2a5a:	ef 90       	pop	r14
    2a5c:	df 90       	pop	r13
    2a5e:	cf 90       	pop	r12
    2a60:	08 95       	ret

00002a62 <f_opendir>:
    2a62:	0f 93       	push	r16
    2a64:	1f 93       	push	r17
    2a66:	df 93       	push	r29
    2a68:	cf 93       	push	r28
    2a6a:	cd b7       	in	r28, 0x3d	; 61
    2a6c:	de b7       	in	r29, 0x3e	; 62
    2a6e:	2e 97       	sbiw	r28, 0x0e	; 14
    2a70:	0f b6       	in	r0, 0x3f	; 63
    2a72:	f8 94       	cli
    2a74:	de bf       	out	0x3e, r29	; 62
    2a76:	0f be       	out	0x3f, r0	; 63
    2a78:	cd bf       	out	0x3d, r28	; 61
    2a7a:	8c 01       	movw	r16, r24
    2a7c:	7e 87       	std	Y+14, r23	; 0x0e
    2a7e:	6d 87       	std	Y+13, r22	; 0x0d
    2a80:	ce 01       	movw	r24, r28
    2a82:	0d 96       	adiw	r24, 0x0d	; 13
    2a84:	b8 01       	movw	r22, r16
    2a86:	40 e0       	ldi	r20, 0x00	; 0
    2a88:	0e 94 09 09 	call	0x1212	; 0x1212 <chk_mounted>
    2a8c:	88 23       	and	r24, r24
    2a8e:	f1 f5       	brne	.+124    	; 0x2b0c <f_opendir+0xaa>
    2a90:	ce 01       	movw	r24, r28
    2a92:	01 96       	adiw	r24, 0x01	; 1
    2a94:	d8 01       	movw	r26, r16
    2a96:	55 96       	adiw	r26, 0x15	; 21
    2a98:	9c 93       	st	X, r25
    2a9a:	8e 93       	st	-X, r24
    2a9c:	54 97       	sbiw	r26, 0x14	; 20
    2a9e:	6d 85       	ldd	r22, Y+13	; 0x0d
    2aa0:	7e 85       	ldd	r23, Y+14	; 0x0e
    2aa2:	c8 01       	movw	r24, r16
    2aa4:	0e 94 3d 13 	call	0x267a	; 0x267a <follow_path>
    2aa8:	88 23       	and	r24, r24
    2aaa:	69 f5       	brne	.+90     	; 0x2b06 <f_opendir+0xa4>
    2aac:	d8 01       	movw	r26, r16
    2aae:	52 96       	adiw	r26, 0x12	; 18
    2ab0:	ed 91       	ld	r30, X+
    2ab2:	fc 91       	ld	r31, X
    2ab4:	53 97       	sbiw	r26, 0x13	; 19
    2ab6:	30 97       	sbiw	r30, 0x00	; 0
    2ab8:	b9 f0       	breq	.+46     	; 0x2ae8 <f_opendir+0x86>
    2aba:	83 85       	ldd	r24, Z+11	; 0x0b
    2abc:	84 ff       	sbrs	r24, 4
    2abe:	25 c0       	rjmp	.+74     	; 0x2b0a <f_opendir+0xa8>
    2ac0:	84 89       	ldd	r24, Z+20	; 0x14
    2ac2:	95 89       	ldd	r25, Z+21	; 0x15
    2ac4:	a0 e0       	ldi	r26, 0x00	; 0
    2ac6:	b0 e0       	ldi	r27, 0x00	; 0
    2ac8:	dc 01       	movw	r26, r24
    2aca:	99 27       	eor	r25, r25
    2acc:	88 27       	eor	r24, r24
    2ace:	22 8d       	ldd	r18, Z+26	; 0x1a
    2ad0:	33 8d       	ldd	r19, Z+27	; 0x1b
    2ad2:	40 e0       	ldi	r20, 0x00	; 0
    2ad4:	50 e0       	ldi	r21, 0x00	; 0
    2ad6:	82 2b       	or	r24, r18
    2ad8:	93 2b       	or	r25, r19
    2ada:	a4 2b       	or	r26, r20
    2adc:	b5 2b       	or	r27, r21
    2ade:	f8 01       	movw	r30, r16
    2ae0:	86 83       	std	Z+6, r24	; 0x06
    2ae2:	97 83       	std	Z+7, r25	; 0x07
    2ae4:	a0 87       	std	Z+8, r26	; 0x08
    2ae6:	b1 87       	std	Z+9, r27	; 0x09
    2ae8:	d8 01       	movw	r26, r16
    2aea:	ed 91       	ld	r30, X+
    2aec:	fc 91       	ld	r31, X
    2aee:	11 97       	sbiw	r26, 0x01	; 1
    2af0:	86 81       	ldd	r24, Z+6	; 0x06
    2af2:	97 81       	ldd	r25, Z+7	; 0x07
    2af4:	13 96       	adiw	r26, 0x03	; 3
    2af6:	9c 93       	st	X, r25
    2af8:	8e 93       	st	-X, r24
    2afa:	12 97       	sbiw	r26, 0x02	; 2
    2afc:	c8 01       	movw	r24, r16
    2afe:	60 e0       	ldi	r22, 0x00	; 0
    2b00:	70 e0       	ldi	r23, 0x00	; 0
    2b02:	0e 94 bb 0e 	call	0x1d76	; 0x1d76 <dir_sdi>
    2b06:	84 30       	cpi	r24, 0x04	; 4
    2b08:	09 f4       	brne	.+2      	; 0x2b0c <f_opendir+0xaa>
    2b0a:	85 e0       	ldi	r24, 0x05	; 5
    2b0c:	2e 96       	adiw	r28, 0x0e	; 14
    2b0e:	0f b6       	in	r0, 0x3f	; 63
    2b10:	f8 94       	cli
    2b12:	de bf       	out	0x3e, r29	; 62
    2b14:	0f be       	out	0x3f, r0	; 63
    2b16:	cd bf       	out	0x3d, r28	; 61
    2b18:	cf 91       	pop	r28
    2b1a:	df 91       	pop	r29
    2b1c:	1f 91       	pop	r17
    2b1e:	0f 91       	pop	r16
    2b20:	08 95       	ret

00002b22 <dir_register>:
    2b22:	1f 93       	push	r17
    2b24:	cf 93       	push	r28
    2b26:	df 93       	push	r29
    2b28:	ec 01       	movw	r28, r24
    2b2a:	60 e0       	ldi	r22, 0x00	; 0
    2b2c:	70 e0       	ldi	r23, 0x00	; 0
    2b2e:	0e 94 bb 0e 	call	0x1d76	; 0x1d76 <dir_sdi>
    2b32:	18 2f       	mov	r17, r24
    2b34:	88 23       	and	r24, r24
    2b36:	81 f5       	brne	.+96     	; 0x2b98 <dir_register+0x76>
    2b38:	4e 85       	ldd	r20, Y+14	; 0x0e
    2b3a:	5f 85       	ldd	r21, Y+15	; 0x0f
    2b3c:	68 89       	ldd	r22, Y+16	; 0x10
    2b3e:	79 89       	ldd	r23, Y+17	; 0x11
    2b40:	88 81       	ld	r24, Y
    2b42:	99 81       	ldd	r25, Y+1	; 0x01
    2b44:	0e 94 96 0b 	call	0x172c	; 0x172c <move_window>
    2b48:	18 2f       	mov	r17, r24
    2b4a:	88 23       	and	r24, r24
    2b4c:	29 f5       	brne	.+74     	; 0x2b98 <dir_register+0x76>
    2b4e:	ea 89       	ldd	r30, Y+18	; 0x12
    2b50:	fb 89       	ldd	r31, Y+19	; 0x13
    2b52:	e0 81       	ld	r30, Z
    2b54:	e5 3e       	cpi	r30, 0xE5	; 229
    2b56:	29 f1       	breq	.+74     	; 0x2ba2 <dir_register+0x80>
    2b58:	ee 23       	and	r30, r30
    2b5a:	19 f1       	breq	.+70     	; 0x2ba2 <dir_register+0x80>
    2b5c:	ce 01       	movw	r24, r28
    2b5e:	61 e0       	ldi	r22, 0x01	; 1
    2b60:	70 e0       	ldi	r23, 0x00	; 0
    2b62:	0e 94 c0 11 	call	0x2380	; 0x2380 <dir_next>
    2b66:	e5 cf       	rjmp	.-54     	; 0x2b32 <dir_register+0x10>
    2b68:	4a 89       	ldd	r20, Y+18	; 0x12
    2b6a:	5b 89       	ldd	r21, Y+19	; 0x13
    2b6c:	ca 01       	movw	r24, r20
    2b6e:	fc 01       	movw	r30, r24
    2b70:	80 e2       	ldi	r24, 0x20	; 32
    2b72:	90 e0       	ldi	r25, 0x00	; 0
    2b74:	01 c0       	rjmp	.+2      	; 0x2b78 <dir_register+0x56>
    2b76:	11 92       	st	Z+, r1
    2b78:	01 97       	sbiw	r24, 0x01	; 1
    2b7a:	2f ef       	ldi	r18, 0xFF	; 255
    2b7c:	8f 3f       	cpi	r24, 0xFF	; 255
    2b7e:	92 07       	cpc	r25, r18
    2b80:	d1 f7       	brne	.-12     	; 0x2b76 <dir_register+0x54>
    2b82:	6c 89       	ldd	r22, Y+20	; 0x14
    2b84:	7d 89       	ldd	r23, Y+21	; 0x15
    2b86:	ca 01       	movw	r24, r20
    2b88:	4b e0       	ldi	r20, 0x0B	; 11
    2b8a:	50 e0       	ldi	r21, 0x00	; 0
    2b8c:	0e 94 22 03 	call	0x644	; 0x644 <mem_cpy>
    2b90:	e8 81       	ld	r30, Y
    2b92:	f9 81       	ldd	r31, Y+1	; 0x01
    2b94:	81 e0       	ldi	r24, 0x01	; 1
    2b96:	84 83       	std	Z+4, r24	; 0x04
    2b98:	81 2f       	mov	r24, r17
    2b9a:	df 91       	pop	r29
    2b9c:	cf 91       	pop	r28
    2b9e:	1f 91       	pop	r17
    2ba0:	08 95       	ret
    2ba2:	4e 85       	ldd	r20, Y+14	; 0x0e
    2ba4:	5f 85       	ldd	r21, Y+15	; 0x0f
    2ba6:	68 89       	ldd	r22, Y+16	; 0x10
    2ba8:	79 89       	ldd	r23, Y+17	; 0x11
    2baa:	88 81       	ld	r24, Y
    2bac:	99 81       	ldd	r25, Y+1	; 0x01
    2bae:	0e 94 96 0b 	call	0x172c	; 0x172c <move_window>
    2bb2:	18 2f       	mov	r17, r24
    2bb4:	88 23       	and	r24, r24
    2bb6:	c1 f2       	breq	.-80     	; 0x2b68 <dir_register+0x46>
    2bb8:	ef cf       	rjmp	.-34     	; 0x2b98 <dir_register+0x76>

00002bba <f_rename>:
    2bba:	af 92       	push	r10
    2bbc:	bf 92       	push	r11
    2bbe:	cf 92       	push	r12
    2bc0:	df 92       	push	r13
    2bc2:	ef 92       	push	r14
    2bc4:	ff 92       	push	r15
    2bc6:	0f 93       	push	r16
    2bc8:	1f 93       	push	r17
    2bca:	df 93       	push	r29
    2bcc:	cf 93       	push	r28
    2bce:	cd b7       	in	r28, 0x3d	; 61
    2bd0:	de b7       	in	r29, 0x3e	; 62
    2bd2:	cf 54       	subi	r28, 0x4F	; 79
    2bd4:	d0 40       	sbci	r29, 0x00	; 0
    2bd6:	0f b6       	in	r0, 0x3f	; 63
    2bd8:	f8 94       	cli
    2bda:	de bf       	out	0x3e, r29	; 62
    2bdc:	0f be       	out	0x3f, r0	; 63
    2bde:	cd bf       	out	0x3d, r28	; 61
    2be0:	8e 01       	movw	r16, r28
    2be2:	02 5b       	subi	r16, 0xB2	; 178
    2be4:	1f 4f       	sbci	r17, 0xFF	; 255
    2be6:	d8 01       	movw	r26, r16
    2be8:	8d 93       	st	X+, r24
    2bea:	9c 93       	st	X, r25
    2bec:	6b 01       	movw	r12, r22
    2bee:	42 e2       	ldi	r20, 0x22	; 34
    2bf0:	e4 2e       	mov	r14, r20
    2bf2:	f1 2c       	mov	r15, r1
    2bf4:	ec 0e       	add	r14, r28
    2bf6:	fd 1e       	adc	r15, r29
    2bf8:	c8 01       	movw	r24, r16
    2bfa:	b7 01       	movw	r22, r14
    2bfc:	41 e0       	ldi	r20, 0x01	; 1
    2bfe:	0e 94 09 09 	call	0x1212	; 0x1212 <chk_mounted>
    2c02:	88 23       	and	r24, r24
    2c04:	09 f0       	breq	.+2      	; 0x2c08 <f_rename+0x4e>
    2c06:	ec c0       	rjmp	.+472    	; 0x2de0 <f_rename+0x226>
    2c08:	8a a1       	ldd	r24, Y+34	; 0x22
    2c0a:	9b a1       	ldd	r25, Y+35	; 0x23
    2c0c:	99 af       	std	Y+57, r25	; 0x39
    2c0e:	88 af       	std	Y+56, r24	; 0x38
    2c10:	ce 01       	movw	r24, r28
    2c12:	01 96       	adiw	r24, 0x01	; 1
    2c14:	9f ab       	std	Y+55, r25	; 0x37
    2c16:	8e ab       	std	Y+54, r24	; 0x36
    2c18:	f8 01       	movw	r30, r16
    2c1a:	60 81       	ld	r22, Z
    2c1c:	71 81       	ldd	r23, Z+1	; 0x01
    2c1e:	c7 01       	movw	r24, r14
    2c20:	0e 94 3d 13 	call	0x267a	; 0x267a <follow_path>
    2c24:	88 23       	and	r24, r24
    2c26:	09 f0       	breq	.+2      	; 0x2c2a <f_rename+0x70>
    2c28:	db c0       	rjmp	.+438    	; 0x2de0 <f_rename+0x226>
    2c2a:	6c a9       	ldd	r22, Y+52	; 0x34
    2c2c:	7d a9       	ldd	r23, Y+53	; 0x35
    2c2e:	61 15       	cp	r22, r1
    2c30:	71 05       	cpc	r23, r1
    2c32:	11 f4       	brne	.+4      	; 0x2c38 <f_rename+0x7e>
    2c34:	84 e0       	ldi	r24, 0x04	; 4
    2c36:	d4 c0       	rjmp	.+424    	; 0x2de0 <f_rename+0x226>
    2c38:	65 5f       	subi	r22, 0xF5	; 245
    2c3a:	7f 4f       	sbci	r23, 0xFF	; 255
    2c3c:	ce 01       	movw	r24, r28
    2c3e:	0d 96       	adiw	r24, 0x0d	; 13
    2c40:	45 e1       	ldi	r20, 0x15	; 21
    2c42:	50 e0       	ldi	r21, 0x00	; 0
    2c44:	0e 94 22 03 	call	0x644	; 0x644 <mem_cpy>
    2c48:	8e 01       	movw	r16, r28
    2c4a:	08 5c       	subi	r16, 0xC8	; 200
    2c4c:	1f 4f       	sbci	r17, 0xFF	; 255
    2c4e:	c8 01       	movw	r24, r16
    2c50:	b7 01       	movw	r22, r14
    2c52:	46 e1       	ldi	r20, 0x16	; 22
    2c54:	50 e0       	ldi	r21, 0x00	; 0
    2c56:	0e 94 22 03 	call	0x644	; 0x644 <mem_cpy>
    2c5a:	c8 01       	movw	r24, r16
    2c5c:	b6 01       	movw	r22, r12
    2c5e:	0e 94 3d 13 	call	0x267a	; 0x267a <follow_path>
    2c62:	88 23       	and	r24, r24
    2c64:	11 f4       	brne	.+4      	; 0x2c6a <f_rename+0xb0>
    2c66:	88 e0       	ldi	r24, 0x08	; 8
    2c68:	bb c0       	rjmp	.+374    	; 0x2de0 <f_rename+0x226>
    2c6a:	84 30       	cpi	r24, 0x04	; 4
    2c6c:	09 f0       	breq	.+2      	; 0x2c70 <f_rename+0xb6>
    2c6e:	b8 c0       	rjmp	.+368    	; 0x2de0 <f_rename+0x226>
    2c70:	c8 01       	movw	r24, r16
    2c72:	0e 94 91 15 	call	0x2b22	; 0x2b22 <dir_register>
    2c76:	88 23       	and	r24, r24
    2c78:	09 f0       	breq	.+2      	; 0x2c7c <f_rename+0xc2>
    2c7a:	b2 c0       	rjmp	.+356    	; 0x2de0 <f_rename+0x226>
    2c7c:	fe 01       	movw	r30, r28
    2c7e:	e6 5b       	subi	r30, 0xB6	; 182
    2c80:	ff 4f       	sbci	r31, 0xFF	; 255
    2c82:	c0 80       	ld	r12, Z
    2c84:	d1 80       	ldd	r13, Z+1	; 0x01
    2c86:	c6 01       	movw	r24, r12
    2c88:	0d 96       	adiw	r24, 0x0d	; 13
    2c8a:	be 01       	movw	r22, r28
    2c8c:	61 5f       	subi	r22, 0xF1	; 241
    2c8e:	7f 4f       	sbci	r23, 0xFF	; 255
    2c90:	43 e1       	ldi	r20, 0x13	; 19
    2c92:	50 e0       	ldi	r21, 0x00	; 0
    2c94:	0e 94 22 03 	call	0x644	; 0x644 <mem_cpy>
    2c98:	8d 85       	ldd	r24, Y+13	; 0x0d
    2c9a:	80 62       	ori	r24, 0x20	; 32
    2c9c:	d6 01       	movw	r26, r12
    2c9e:	1b 96       	adiw	r26, 0x0b	; 11
    2ca0:	8c 93       	st	X, r24
    2ca2:	ea a1       	ldd	r30, Y+34	; 0x22
    2ca4:	fb a1       	ldd	r31, Y+35	; 0x23
    2ca6:	81 e0       	ldi	r24, 0x01	; 1
    2ca8:	84 83       	std	Z+4, r24	; 0x04
    2caa:	28 a5       	ldd	r18, Y+40	; 0x28
    2cac:	39 a5       	ldd	r19, Y+41	; 0x29
    2cae:	4a a5       	ldd	r20, Y+42	; 0x2a
    2cb0:	5b a5       	ldd	r21, Y+43	; 0x2b
    2cb2:	fe 01       	movw	r30, r28
    2cb4:	fe 96       	adiw	r30, 0x3e	; 62
    2cb6:	80 81       	ld	r24, Z
    2cb8:	91 81       	ldd	r25, Z+1	; 0x01
    2cba:	a2 81       	ldd	r26, Z+2	; 0x02
    2cbc:	b3 81       	ldd	r27, Z+3	; 0x03
    2cbe:	28 17       	cp	r18, r24
    2cc0:	39 07       	cpc	r19, r25
    2cc2:	4a 07       	cpc	r20, r26
    2cc4:	5b 07       	cpc	r21, r27
    2cc6:	09 f4       	brne	.+2      	; 0x2cca <f_rename+0x110>
    2cc8:	7f c0       	rjmp	.+254    	; 0x2dc8 <f_rename+0x20e>
    2cca:	f6 01       	movw	r30, r12
    2ccc:	83 85       	ldd	r24, Z+11	; 0x0b
    2cce:	84 ff       	sbrs	r24, 4
    2cd0:	7b c0       	rjmp	.+246    	; 0x2dc8 <f_rename+0x20e>
    2cd2:	a8 ac       	ldd	r10, Y+56	; 0x38
    2cd4:	b9 ac       	ldd	r11, Y+57	; 0x39
    2cd6:	84 89       	ldd	r24, Z+20	; 0x14
    2cd8:	95 89       	ldd	r25, Z+21	; 0x15
    2cda:	a0 e0       	ldi	r26, 0x00	; 0
    2cdc:	b0 e0       	ldi	r27, 0x00	; 0
    2cde:	8c 01       	movw	r16, r24
    2ce0:	ff 24       	eor	r15, r15
    2ce2:	ee 24       	eor	r14, r14
    2ce4:	82 8d       	ldd	r24, Z+26	; 0x1a
    2ce6:	93 8d       	ldd	r25, Z+27	; 0x1b
    2ce8:	a0 e0       	ldi	r26, 0x00	; 0
    2cea:	b0 e0       	ldi	r27, 0x00	; 0
    2cec:	e8 2a       	or	r14, r24
    2cee:	f9 2a       	or	r15, r25
    2cf0:	0a 2b       	or	r16, r26
    2cf2:	1b 2b       	or	r17, r27
    2cf4:	8e ef       	ldi	r24, 0xFE	; 254
    2cf6:	9f ef       	ldi	r25, 0xFF	; 255
    2cf8:	af ef       	ldi	r26, 0xFF	; 255
    2cfa:	bf ef       	ldi	r27, 0xFF	; 255
    2cfc:	e8 0e       	add	r14, r24
    2cfe:	f9 1e       	adc	r15, r25
    2d00:	0a 1f       	adc	r16, r26
    2d02:	1b 1f       	adc	r17, r27
    2d04:	f5 01       	movw	r30, r10
    2d06:	86 89       	ldd	r24, Z+22	; 0x16
    2d08:	97 89       	ldd	r25, Z+23	; 0x17
    2d0a:	a0 8d       	ldd	r26, Z+24	; 0x18
    2d0c:	b1 8d       	ldd	r27, Z+25	; 0x19
    2d0e:	02 97       	sbiw	r24, 0x02	; 2
    2d10:	a1 09       	sbc	r26, r1
    2d12:	b1 09       	sbc	r27, r1
    2d14:	e8 16       	cp	r14, r24
    2d16:	f9 06       	cpc	r15, r25
    2d18:	0a 07       	cpc	r16, r26
    2d1a:	1b 07       	cpc	r17, r27
    2d1c:	08 f0       	brcs	.+2      	; 0x2d20 <f_rename+0x166>
    2d1e:	5f c0       	rjmp	.+190    	; 0x2dde <f_rename+0x224>
    2d20:	22 81       	ldd	r18, Z+2	; 0x02
    2d22:	30 e0       	ldi	r19, 0x00	; 0
    2d24:	40 e0       	ldi	r20, 0x00	; 0
    2d26:	50 e0       	ldi	r21, 0x00	; 0
    2d28:	c8 01       	movw	r24, r16
    2d2a:	b7 01       	movw	r22, r14
    2d2c:	0e 94 2e 2b 	call	0x565c	; 0x565c <__mulsi3>
    2d30:	ab 01       	movw	r20, r22
    2d32:	bc 01       	movw	r22, r24
    2d34:	f5 01       	movw	r30, r10
    2d36:	86 a1       	ldd	r24, Z+38	; 0x26
    2d38:	97 a1       	ldd	r25, Z+39	; 0x27
    2d3a:	a0 a5       	ldd	r26, Z+40	; 0x28
    2d3c:	b1 a5       	ldd	r27, Z+41	; 0x29
    2d3e:	48 0f       	add	r20, r24
    2d40:	59 1f       	adc	r21, r25
    2d42:	6a 1f       	adc	r22, r26
    2d44:	7b 1f       	adc	r23, r27
    2d46:	41 15       	cp	r20, r1
    2d48:	51 05       	cpc	r21, r1
    2d4a:	61 05       	cpc	r22, r1
    2d4c:	71 05       	cpc	r23, r1
    2d4e:	09 f4       	brne	.+2      	; 0x2d52 <f_rename+0x198>
    2d50:	46 c0       	rjmp	.+140    	; 0x2dde <f_rename+0x224>
    2d52:	c5 01       	movw	r24, r10
    2d54:	0e 94 96 0b 	call	0x172c	; 0x172c <move_window>
    2d58:	08 ad       	ldd	r16, Y+56	; 0x38
    2d5a:	19 ad       	ldd	r17, Y+57	; 0x39
    2d5c:	88 23       	and	r24, r24
    2d5e:	09 f0       	breq	.+2      	; 0x2d62 <f_rename+0x1a8>
    2d60:	3f c0       	rjmp	.+126    	; 0x2de0 <f_rename+0x226>
    2d62:	b8 01       	movw	r22, r16
    2d64:	62 5b       	subi	r22, 0xB2	; 178
    2d66:	7f 4f       	sbci	r23, 0xFF	; 255
    2d68:	db 01       	movw	r26, r22
    2d6a:	11 96       	adiw	r26, 0x01	; 1
    2d6c:	8c 91       	ld	r24, X
    2d6e:	8e 32       	cpi	r24, 0x2E	; 46
    2d70:	59 f5       	brne	.+86     	; 0x2dc8 <f_rename+0x20e>
    2d72:	f8 01       	movw	r30, r16
    2d74:	80 81       	ld	r24, Z
    2d76:	83 30       	cpi	r24, 0x03	; 3
    2d78:	a9 f4       	brne	.+42     	; 0x2da4 <f_rename+0x1ea>
    2d7a:	fe 01       	movw	r30, r28
    2d7c:	fe 96       	adiw	r30, 0x3e	; 62
    2d7e:	20 81       	ld	r18, Z
    2d80:	31 81       	ldd	r19, Z+1	; 0x01
    2d82:	42 81       	ldd	r20, Z+2	; 0x02
    2d84:	53 81       	ldd	r21, Z+3	; 0x03
    2d86:	f8 01       	movw	r30, r16
    2d88:	82 a1       	ldd	r24, Z+34	; 0x22
    2d8a:	93 a1       	ldd	r25, Z+35	; 0x23
    2d8c:	a4 a1       	ldd	r26, Z+36	; 0x24
    2d8e:	b5 a1       	ldd	r27, Z+37	; 0x25
    2d90:	28 17       	cp	r18, r24
    2d92:	39 07       	cpc	r19, r25
    2d94:	4a 07       	cpc	r20, r26
    2d96:	5b 07       	cpc	r21, r27
    2d98:	29 f4       	brne	.+10     	; 0x2da4 <f_rename+0x1ea>
    2d9a:	80 e0       	ldi	r24, 0x00	; 0
    2d9c:	90 e0       	ldi	r25, 0x00	; 0
    2d9e:	a0 e0       	ldi	r26, 0x00	; 0
    2da0:	b0 e0       	ldi	r27, 0x00	; 0
    2da2:	06 c0       	rjmp	.+12     	; 0x2db0 <f_rename+0x1f6>
    2da4:	fe 01       	movw	r30, r28
    2da6:	fe 96       	adiw	r30, 0x3e	; 62
    2da8:	80 81       	ld	r24, Z
    2daa:	91 81       	ldd	r25, Z+1	; 0x01
    2dac:	a2 81       	ldd	r26, Z+2	; 0x02
    2dae:	b3 81       	ldd	r27, Z+3	; 0x03
    2db0:	fb 01       	movw	r30, r22
    2db2:	93 8f       	std	Z+27, r25	; 0x1b
    2db4:	82 8f       	std	Z+26, r24	; 0x1a
    2db6:	cd 01       	movw	r24, r26
    2db8:	aa 27       	eor	r26, r26
    2dba:	bb 27       	eor	r27, r27
    2dbc:	95 8b       	std	Z+21, r25	; 0x15
    2dbe:	84 8b       	std	Z+20, r24	; 0x14
    2dc0:	81 e0       	ldi	r24, 0x01	; 1
    2dc2:	d8 01       	movw	r26, r16
    2dc4:	14 96       	adiw	r26, 0x04	; 4
    2dc6:	8c 93       	st	X, r24
    2dc8:	ce 01       	movw	r24, r28
    2dca:	82 96       	adiw	r24, 0x22	; 34
    2dcc:	0e 94 9f 11 	call	0x233e	; 0x233e <dir_remove>
    2dd0:	88 23       	and	r24, r24
    2dd2:	31 f4       	brne	.+12     	; 0x2de0 <f_rename+0x226>
    2dd4:	8a a1       	ldd	r24, Y+34	; 0x22
    2dd6:	9b a1       	ldd	r25, Y+35	; 0x23
    2dd8:	0e 94 0f 0c 	call	0x181e	; 0x181e <sync>
    2ddc:	01 c0       	rjmp	.+2      	; 0x2de0 <f_rename+0x226>
    2dde:	82 e0       	ldi	r24, 0x02	; 2
    2de0:	c1 5b       	subi	r28, 0xB1	; 177
    2de2:	df 4f       	sbci	r29, 0xFF	; 255
    2de4:	0f b6       	in	r0, 0x3f	; 63
    2de6:	f8 94       	cli
    2de8:	de bf       	out	0x3e, r29	; 62
    2dea:	0f be       	out	0x3f, r0	; 63
    2dec:	cd bf       	out	0x3d, r28	; 61
    2dee:	cf 91       	pop	r28
    2df0:	df 91       	pop	r29
    2df2:	1f 91       	pop	r17
    2df4:	0f 91       	pop	r16
    2df6:	ff 90       	pop	r15
    2df8:	ef 90       	pop	r14
    2dfa:	df 90       	pop	r13
    2dfc:	cf 90       	pop	r12
    2dfe:	bf 90       	pop	r11
    2e00:	af 90       	pop	r10
    2e02:	08 95       	ret

00002e04 <dir_read>:
    2e04:	cf 93       	push	r28
    2e06:	df 93       	push	r29
    2e08:	ec 01       	movw	r28, r24
    2e0a:	94 e0       	ldi	r25, 0x04	; 4
    2e0c:	1b c0       	rjmp	.+54     	; 0x2e44 <dir_read+0x40>
    2e0e:	88 81       	ld	r24, Y
    2e10:	99 81       	ldd	r25, Y+1	; 0x01
    2e12:	0e 94 96 0b 	call	0x172c	; 0x172c <move_window>
    2e16:	98 2f       	mov	r25, r24
    2e18:	88 23       	and	r24, r24
    2e1a:	f9 f4       	brne	.+62     	; 0x2e5a <dir_read+0x56>
    2e1c:	ea 89       	ldd	r30, Y+18	; 0x12
    2e1e:	fb 89       	ldd	r31, Y+19	; 0x13
    2e20:	80 81       	ld	r24, Z
    2e22:	88 23       	and	r24, r24
    2e24:	11 f1       	breq	.+68     	; 0x2e6a <dir_read+0x66>
    2e26:	85 3e       	cpi	r24, 0xE5	; 229
    2e28:	29 f0       	breq	.+10     	; 0x2e34 <dir_read+0x30>
    2e2a:	8e 32       	cpi	r24, 0x2E	; 46
    2e2c:	19 f0       	breq	.+6      	; 0x2e34 <dir_read+0x30>
    2e2e:	83 85       	ldd	r24, Z+11	; 0x0b
    2e30:	83 ff       	sbrs	r24, 3
    2e32:	17 c0       	rjmp	.+46     	; 0x2e62 <dir_read+0x5e>
    2e34:	ce 01       	movw	r24, r28
    2e36:	60 e0       	ldi	r22, 0x00	; 0
    2e38:	70 e0       	ldi	r23, 0x00	; 0
    2e3a:	0e 94 c0 11 	call	0x2380	; 0x2380 <dir_next>
    2e3e:	98 2f       	mov	r25, r24
    2e40:	88 23       	and	r24, r24
    2e42:	59 f4       	brne	.+22     	; 0x2e5a <dir_read+0x56>
    2e44:	4e 85       	ldd	r20, Y+14	; 0x0e
    2e46:	5f 85       	ldd	r21, Y+15	; 0x0f
    2e48:	68 89       	ldd	r22, Y+16	; 0x10
    2e4a:	79 89       	ldd	r23, Y+17	; 0x11
    2e4c:	41 15       	cp	r20, r1
    2e4e:	51 05       	cpc	r21, r1
    2e50:	61 05       	cpc	r22, r1
    2e52:	71 05       	cpc	r23, r1
    2e54:	e1 f6       	brne	.-72     	; 0x2e0e <dir_read+0xa>
    2e56:	99 23       	and	r25, r25
    2e58:	21 f0       	breq	.+8      	; 0x2e62 <dir_read+0x5e>
    2e5a:	1e 86       	std	Y+14, r1	; 0x0e
    2e5c:	1f 86       	std	Y+15, r1	; 0x0f
    2e5e:	18 8a       	std	Y+16, r1	; 0x10
    2e60:	19 8a       	std	Y+17, r1	; 0x11
    2e62:	89 2f       	mov	r24, r25
    2e64:	df 91       	pop	r29
    2e66:	cf 91       	pop	r28
    2e68:	08 95       	ret
    2e6a:	94 e0       	ldi	r25, 0x04	; 4
    2e6c:	f6 cf       	rjmp	.-20     	; 0x2e5a <dir_read+0x56>

00002e6e <f_readdir>:
    2e6e:	ef 92       	push	r14
    2e70:	ff 92       	push	r15
    2e72:	0f 93       	push	r16
    2e74:	1f 93       	push	r17
    2e76:	df 93       	push	r29
    2e78:	cf 93       	push	r28
    2e7a:	cd b7       	in	r28, 0x3d	; 61
    2e7c:	de b7       	in	r29, 0x3e	; 62
    2e7e:	2c 97       	sbiw	r28, 0x0c	; 12
    2e80:	0f b6       	in	r0, 0x3f	; 63
    2e82:	f8 94       	cli
    2e84:	de bf       	out	0x3e, r29	; 62
    2e86:	0f be       	out	0x3f, r0	; 63
    2e88:	cd bf       	out	0x3d, r28	; 61
    2e8a:	8c 01       	movw	r16, r24
    2e8c:	7b 01       	movw	r14, r22
    2e8e:	fc 01       	movw	r30, r24
    2e90:	62 81       	ldd	r22, Z+2	; 0x02
    2e92:	73 81       	ldd	r23, Z+3	; 0x03
    2e94:	80 81       	ld	r24, Z
    2e96:	91 81       	ldd	r25, Z+1	; 0x01
    2e98:	0e 94 b4 08 	call	0x1168	; 0x1168 <validate>
    2e9c:	88 23       	and	r24, r24
    2e9e:	61 f5       	brne	.+88     	; 0x2ef8 <f_readdir+0x8a>
    2ea0:	e1 14       	cp	r14, r1
    2ea2:	f1 04       	cpc	r15, r1
    2ea4:	31 f4       	brne	.+12     	; 0x2eb2 <f_readdir+0x44>
    2ea6:	c8 01       	movw	r24, r16
    2ea8:	60 e0       	ldi	r22, 0x00	; 0
    2eaa:	70 e0       	ldi	r23, 0x00	; 0
    2eac:	0e 94 bb 0e 	call	0x1d76	; 0x1d76 <dir_sdi>
    2eb0:	23 c0       	rjmp	.+70     	; 0x2ef8 <f_readdir+0x8a>
    2eb2:	ce 01       	movw	r24, r28
    2eb4:	01 96       	adiw	r24, 0x01	; 1
    2eb6:	f8 01       	movw	r30, r16
    2eb8:	95 8b       	std	Z+21, r25	; 0x15
    2eba:	84 8b       	std	Z+20, r24	; 0x14
    2ebc:	c8 01       	movw	r24, r16
    2ebe:	0e 94 02 17 	call	0x2e04	; 0x2e04 <dir_read>
    2ec2:	84 30       	cpi	r24, 0x04	; 4
    2ec4:	31 f4       	brne	.+12     	; 0x2ed2 <f_readdir+0x64>
    2ec6:	f8 01       	movw	r30, r16
    2ec8:	16 86       	std	Z+14, r1	; 0x0e
    2eca:	17 86       	std	Z+15, r1	; 0x0f
    2ecc:	10 8a       	std	Z+16, r1	; 0x10
    2ece:	11 8a       	std	Z+17, r1	; 0x11
    2ed0:	02 c0       	rjmp	.+4      	; 0x2ed6 <f_readdir+0x68>
    2ed2:	88 23       	and	r24, r24
    2ed4:	89 f4       	brne	.+34     	; 0x2ef8 <f_readdir+0x8a>
    2ed6:	c8 01       	movw	r24, r16
    2ed8:	b7 01       	movw	r22, r14
    2eda:	0e 94 8b 03 	call	0x716	; 0x716 <get_fileinfo>
    2ede:	c8 01       	movw	r24, r16
    2ee0:	60 e0       	ldi	r22, 0x00	; 0
    2ee2:	70 e0       	ldi	r23, 0x00	; 0
    2ee4:	0e 94 c0 11 	call	0x2380	; 0x2380 <dir_next>
    2ee8:	84 30       	cpi	r24, 0x04	; 4
    2eea:	31 f4       	brne	.+12     	; 0x2ef8 <f_readdir+0x8a>
    2eec:	f8 01       	movw	r30, r16
    2eee:	16 86       	std	Z+14, r1	; 0x0e
    2ef0:	17 86       	std	Z+15, r1	; 0x0f
    2ef2:	10 8a       	std	Z+16, r1	; 0x10
    2ef4:	11 8a       	std	Z+17, r1	; 0x11
    2ef6:	80 e0       	ldi	r24, 0x00	; 0
    2ef8:	2c 96       	adiw	r28, 0x0c	; 12
    2efa:	0f b6       	in	r0, 0x3f	; 63
    2efc:	f8 94       	cli
    2efe:	de bf       	out	0x3e, r29	; 62
    2f00:	0f be       	out	0x3f, r0	; 63
    2f02:	cd bf       	out	0x3d, r28	; 61
    2f04:	cf 91       	pop	r28
    2f06:	df 91       	pop	r29
    2f08:	1f 91       	pop	r17
    2f0a:	0f 91       	pop	r16
    2f0c:	ff 90       	pop	r15
    2f0e:	ef 90       	pop	r14
    2f10:	08 95       	ret

00002f12 <f_unlink>:
    2f12:	cf 92       	push	r12
    2f14:	df 92       	push	r13
    2f16:	ef 92       	push	r14
    2f18:	ff 92       	push	r15
    2f1a:	0f 93       	push	r16
    2f1c:	1f 93       	push	r17
    2f1e:	df 93       	push	r29
    2f20:	cf 93       	push	r28
    2f22:	cd b7       	in	r28, 0x3d	; 61
    2f24:	de b7       	in	r29, 0x3e	; 62
    2f26:	ea 97       	sbiw	r28, 0x3a	; 58
    2f28:	0f b6       	in	r0, 0x3f	; 63
    2f2a:	f8 94       	cli
    2f2c:	de bf       	out	0x3e, r29	; 62
    2f2e:	0f be       	out	0x3f, r0	; 63
    2f30:	cd bf       	out	0x3d, r28	; 61
    2f32:	9a af       	std	Y+58, r25	; 0x3a
    2f34:	89 af       	std	Y+57, r24	; 0x39
    2f36:	8e 01       	movw	r16, r28
    2f38:	03 5f       	subi	r16, 0xF3	; 243
    2f3a:	1f 4f       	sbci	r17, 0xFF	; 255
    2f3c:	ce 01       	movw	r24, r28
    2f3e:	c9 96       	adiw	r24, 0x39	; 57
    2f40:	b8 01       	movw	r22, r16
    2f42:	41 e0       	ldi	r20, 0x01	; 1
    2f44:	0e 94 09 09 	call	0x1212	; 0x1212 <chk_mounted>
    2f48:	28 2f       	mov	r18, r24
    2f4a:	88 23       	and	r24, r24
    2f4c:	09 f0       	breq	.+2      	; 0x2f50 <f_unlink+0x3e>
    2f4e:	69 c0       	rjmp	.+210    	; 0x3022 <f_unlink+0x110>
    2f50:	ce 01       	movw	r24, r28
    2f52:	01 96       	adiw	r24, 0x01	; 1
    2f54:	9a a3       	std	Y+34, r25	; 0x22
    2f56:	89 a3       	std	Y+33, r24	; 0x21
    2f58:	69 ad       	ldd	r22, Y+57	; 0x39
    2f5a:	7a ad       	ldd	r23, Y+58	; 0x3a
    2f5c:	c8 01       	movw	r24, r16
    2f5e:	0e 94 3d 13 	call	0x267a	; 0x267a <follow_path>
    2f62:	28 2f       	mov	r18, r24
    2f64:	88 23       	and	r24, r24
    2f66:	09 f0       	breq	.+2      	; 0x2f6a <f_unlink+0x58>
    2f68:	5c c0       	rjmp	.+184    	; 0x3022 <f_unlink+0x110>
    2f6a:	ef 8d       	ldd	r30, Y+31	; 0x1f
    2f6c:	f8 a1       	ldd	r31, Y+32	; 0x20
    2f6e:	30 97       	sbiw	r30, 0x00	; 0
    2f70:	11 f4       	brne	.+4      	; 0x2f76 <f_unlink+0x64>
    2f72:	26 e0       	ldi	r18, 0x06	; 6
    2f74:	03 c0       	rjmp	.+6      	; 0x2f7c <f_unlink+0x6a>
    2f76:	83 85       	ldd	r24, Z+11	; 0x0b
    2f78:	80 fd       	sbrc	r24, 0
    2f7a:	27 e0       	ldi	r18, 0x07	; 7
    2f7c:	84 89       	ldd	r24, Z+20	; 0x14
    2f7e:	95 89       	ldd	r25, Z+21	; 0x15
    2f80:	42 8d       	ldd	r20, Z+26	; 0x1a
    2f82:	53 8d       	ldd	r21, Z+27	; 0x1b
    2f84:	22 23       	and	r18, r18
    2f86:	09 f0       	breq	.+2      	; 0x2f8a <f_unlink+0x78>
    2f88:	4c c0       	rjmp	.+152    	; 0x3022 <f_unlink+0x110>
    2f8a:	a0 e0       	ldi	r26, 0x00	; 0
    2f8c:	b0 e0       	ldi	r27, 0x00	; 0
    2f8e:	8c 01       	movw	r16, r24
    2f90:	ff 24       	eor	r15, r15
    2f92:	ee 24       	eor	r14, r14
    2f94:	ca 01       	movw	r24, r20
    2f96:	a0 e0       	ldi	r26, 0x00	; 0
    2f98:	b0 e0       	ldi	r27, 0x00	; 0
    2f9a:	e8 2a       	or	r14, r24
    2f9c:	f9 2a       	or	r15, r25
    2f9e:	0a 2b       	or	r16, r26
    2fa0:	1b 2b       	or	r17, r27
    2fa2:	83 85       	ldd	r24, Z+11	; 0x0b
    2fa4:	84 ff       	sbrs	r24, 4
    2fa6:	4f c0       	rjmp	.+158    	; 0x3046 <f_unlink+0x134>
    2fa8:	82 e0       	ldi	r24, 0x02	; 2
    2faa:	e8 16       	cp	r14, r24
    2fac:	f1 04       	cpc	r15, r1
    2fae:	01 05       	cpc	r16, r1
    2fb0:	11 05       	cpc	r17, r1
    2fb2:	10 f4       	brcc	.+4      	; 0x2fb8 <f_unlink+0xa6>
    2fb4:	22 e0       	ldi	r18, 0x02	; 2
    2fb6:	35 c0       	rjmp	.+106    	; 0x3022 <f_unlink+0x110>
    2fb8:	53 e2       	ldi	r21, 0x23	; 35
    2fba:	c5 2e       	mov	r12, r21
    2fbc:	d1 2c       	mov	r13, r1
    2fbe:	cc 0e       	add	r12, r28
    2fc0:	dd 1e       	adc	r13, r29
    2fc2:	c6 01       	movw	r24, r12
    2fc4:	be 01       	movw	r22, r28
    2fc6:	63 5f       	subi	r22, 0xF3	; 243
    2fc8:	7f 4f       	sbci	r23, 0xFF	; 255
    2fca:	46 e1       	ldi	r20, 0x16	; 22
    2fcc:	50 e0       	ldi	r21, 0x00	; 0
    2fce:	0e 94 22 03 	call	0x644	; 0x644 <mem_cpy>
    2fd2:	e9 a6       	std	Y+41, r14	; 0x29
    2fd4:	fa a6       	std	Y+42, r15	; 0x2a
    2fd6:	0b a7       	std	Y+43, r16	; 0x2b
    2fd8:	1c a7       	std	Y+44, r17	; 0x2c
    2fda:	c6 01       	movw	r24, r12
    2fdc:	62 e0       	ldi	r22, 0x02	; 2
    2fde:	70 e0       	ldi	r23, 0x00	; 0
    2fe0:	0e 94 bb 0e 	call	0x1d76	; 0x1d76 <dir_sdi>
    2fe4:	28 2f       	mov	r18, r24
    2fe6:	88 23       	and	r24, r24
    2fe8:	e1 f4       	brne	.+56     	; 0x3022 <f_unlink+0x110>
    2fea:	c6 01       	movw	r24, r12
    2fec:	0e 94 02 17 	call	0x2e04	; 0x2e04 <dir_read>
    2ff0:	28 2f       	mov	r18, r24
    2ff2:	88 23       	and	r24, r24
    2ff4:	31 f1       	breq	.+76     	; 0x3042 <f_unlink+0x130>
    2ff6:	84 30       	cpi	r24, 0x04	; 4
    2ff8:	31 f1       	breq	.+76     	; 0x3046 <f_unlink+0x134>
    2ffa:	13 c0       	rjmp	.+38     	; 0x3022 <f_unlink+0x110>
    2ffc:	e1 14       	cp	r14, r1
    2ffe:	f1 04       	cpc	r15, r1
    3000:	01 05       	cpc	r16, r1
    3002:	11 05       	cpc	r17, r1
    3004:	49 f0       	breq	.+18     	; 0x3018 <f_unlink+0x106>
    3006:	8d 85       	ldd	r24, Y+13	; 0x0d
    3008:	9e 85       	ldd	r25, Y+14	; 0x0e
    300a:	b8 01       	movw	r22, r16
    300c:	a7 01       	movw	r20, r14
    300e:	0e 94 97 10 	call	0x212e	; 0x212e <remove_chain>
    3012:	28 2f       	mov	r18, r24
    3014:	88 23       	and	r24, r24
    3016:	29 f4       	brne	.+10     	; 0x3022 <f_unlink+0x110>
    3018:	8d 85       	ldd	r24, Y+13	; 0x0d
    301a:	9e 85       	ldd	r25, Y+14	; 0x0e
    301c:	0e 94 0f 0c 	call	0x181e	; 0x181e <sync>
    3020:	28 2f       	mov	r18, r24
    3022:	82 2f       	mov	r24, r18
    3024:	ea 96       	adiw	r28, 0x3a	; 58
    3026:	0f b6       	in	r0, 0x3f	; 63
    3028:	f8 94       	cli
    302a:	de bf       	out	0x3e, r29	; 62
    302c:	0f be       	out	0x3f, r0	; 63
    302e:	cd bf       	out	0x3d, r28	; 61
    3030:	cf 91       	pop	r28
    3032:	df 91       	pop	r29
    3034:	1f 91       	pop	r17
    3036:	0f 91       	pop	r16
    3038:	ff 90       	pop	r15
    303a:	ef 90       	pop	r14
    303c:	df 90       	pop	r13
    303e:	cf 90       	pop	r12
    3040:	08 95       	ret
    3042:	27 e0       	ldi	r18, 0x07	; 7
    3044:	ee cf       	rjmp	.-36     	; 0x3022 <f_unlink+0x110>
    3046:	ce 01       	movw	r24, r28
    3048:	0d 96       	adiw	r24, 0x0d	; 13
    304a:	0e 94 9f 11 	call	0x233e	; 0x233e <dir_remove>
    304e:	28 2f       	mov	r18, r24
    3050:	88 23       	and	r24, r24
    3052:	a1 f2       	breq	.-88     	; 0x2ffc <f_unlink+0xea>
    3054:	e6 cf       	rjmp	.-52     	; 0x3022 <f_unlink+0x110>

00003056 <f_mkdir>:
    3056:	2f 92       	push	r2
    3058:	3f 92       	push	r3
    305a:	4f 92       	push	r4
    305c:	5f 92       	push	r5
    305e:	6f 92       	push	r6
    3060:	7f 92       	push	r7
    3062:	8f 92       	push	r8
    3064:	9f 92       	push	r9
    3066:	af 92       	push	r10
    3068:	bf 92       	push	r11
    306a:	cf 92       	push	r12
    306c:	df 92       	push	r13
    306e:	ef 92       	push	r14
    3070:	ff 92       	push	r15
    3072:	0f 93       	push	r16
    3074:	1f 93       	push	r17
    3076:	df 93       	push	r29
    3078:	cf 93       	push	r28
    307a:	cd b7       	in	r28, 0x3d	; 61
    307c:	de b7       	in	r29, 0x3e	; 62
    307e:	aa 97       	sbiw	r28, 0x2a	; 42
    3080:	0f b6       	in	r0, 0x3f	; 63
    3082:	f8 94       	cli
    3084:	de bf       	out	0x3e, r29	; 62
    3086:	0f be       	out	0x3f, r0	; 63
    3088:	cd bf       	out	0x3d, r28	; 61
    308a:	9c a3       	std	Y+36, r25	; 0x24
    308c:	8b a3       	std	Y+35, r24	; 0x23
    308e:	0e 94 5f 00 	call	0xbe	; 0xbe <get_fattime>
    3092:	6d a3       	std	Y+37, r22	; 0x25
    3094:	7e a3       	std	Y+38, r23	; 0x26
    3096:	8f a3       	std	Y+39, r24	; 0x27
    3098:	98 a7       	std	Y+40, r25	; 0x28
    309a:	9d e0       	ldi	r25, 0x0D	; 13
    309c:	e9 2e       	mov	r14, r25
    309e:	f1 2c       	mov	r15, r1
    30a0:	ec 0e       	add	r14, r28
    30a2:	fd 1e       	adc	r15, r29
    30a4:	ce 01       	movw	r24, r28
    30a6:	83 96       	adiw	r24, 0x23	; 35
    30a8:	b7 01       	movw	r22, r14
    30aa:	41 e0       	ldi	r20, 0x01	; 1
    30ac:	0e 94 09 09 	call	0x1212	; 0x1212 <chk_mounted>
    30b0:	18 2f       	mov	r17, r24
    30b2:	88 23       	and	r24, r24
    30b4:	09 f0       	breq	.+2      	; 0x30b8 <f_mkdir+0x62>
    30b6:	1f c1       	rjmp	.+574    	; 0x32f6 <f_mkdir+0x2a0>
    30b8:	ce 01       	movw	r24, r28
    30ba:	01 96       	adiw	r24, 0x01	; 1
    30bc:	9a a3       	std	Y+34, r25	; 0x22
    30be:	89 a3       	std	Y+33, r24	; 0x21
    30c0:	6b a1       	ldd	r22, Y+35	; 0x23
    30c2:	7c a1       	ldd	r23, Y+36	; 0x24
    30c4:	c7 01       	movw	r24, r14
    30c6:	0e 94 3d 13 	call	0x267a	; 0x267a <follow_path>
    30ca:	18 2f       	mov	r17, r24
    30cc:	88 23       	and	r24, r24
    30ce:	11 f4       	brne	.+4      	; 0x30d4 <f_mkdir+0x7e>
    30d0:	18 e0       	ldi	r17, 0x08	; 8
    30d2:	11 c1       	rjmp	.+546    	; 0x32f6 <f_mkdir+0x2a0>
    30d4:	84 30       	cpi	r24, 0x04	; 4
    30d6:	09 f0       	breq	.+2      	; 0x30da <f_mkdir+0x84>
    30d8:	0e c1       	rjmp	.+540    	; 0x32f6 <f_mkdir+0x2a0>
    30da:	8d 85       	ldd	r24, Y+13	; 0x0d
    30dc:	9e 85       	ldd	r25, Y+14	; 0x0e
    30de:	40 e0       	ldi	r20, 0x00	; 0
    30e0:	50 e0       	ldi	r21, 0x00	; 0
    30e2:	60 e0       	ldi	r22, 0x00	; 0
    30e4:	70 e0       	ldi	r23, 0x00	; 0
    30e6:	0e 94 b7 0f 	call	0x1f6e	; 0x1f6e <create_chain>
    30ea:	4b 01       	movw	r8, r22
    30ec:	5c 01       	movw	r10, r24
    30ee:	61 15       	cp	r22, r1
    30f0:	71 05       	cpc	r23, r1
    30f2:	81 05       	cpc	r24, r1
    30f4:	91 05       	cpc	r25, r1
    30f6:	11 f4       	brne	.+4      	; 0x30fc <f_mkdir+0xa6>
    30f8:	17 e0       	ldi	r17, 0x07	; 7
    30fa:	dc c0       	rjmp	.+440    	; 0x32b4 <f_mkdir+0x25e>
    30fc:	61 30       	cpi	r22, 0x01	; 1
    30fe:	71 05       	cpc	r23, r1
    3100:	81 05       	cpc	r24, r1
    3102:	91 05       	cpc	r25, r1
    3104:	11 f4       	brne	.+4      	; 0x310a <f_mkdir+0xb4>
    3106:	12 e0       	ldi	r17, 0x02	; 2
    3108:	d5 c0       	rjmp	.+426    	; 0x32b4 <f_mkdir+0x25e>
    310a:	6f 3f       	cpi	r22, 0xFF	; 255
    310c:	3f ef       	ldi	r19, 0xFF	; 255
    310e:	73 07       	cpc	r23, r19
    3110:	3f ef       	ldi	r19, 0xFF	; 255
    3112:	83 07       	cpc	r24, r19
    3114:	3f ef       	ldi	r19, 0xFF	; 255
    3116:	93 07       	cpc	r25, r19
    3118:	09 f4       	brne	.+2      	; 0x311c <f_mkdir+0xc6>
    311a:	07 c1       	rjmp	.+526    	; 0x332a <f_mkdir+0x2d4>
    311c:	8d 85       	ldd	r24, Y+13	; 0x0d
    311e:	9e 85       	ldd	r25, Y+14	; 0x0e
    3120:	40 e0       	ldi	r20, 0x00	; 0
    3122:	50 e0       	ldi	r21, 0x00	; 0
    3124:	60 e0       	ldi	r22, 0x00	; 0
    3126:	70 e0       	ldi	r23, 0x00	; 0
    3128:	0e 94 96 0b 	call	0x172c	; 0x172c <move_window>
    312c:	18 2f       	mov	r17, r24
    312e:	88 23       	and	r24, r24
    3130:	09 f0       	breq	.+2      	; 0x3134 <f_mkdir+0xde>
    3132:	c0 c0       	rjmp	.+384    	; 0x32b4 <f_mkdir+0x25e>
    3134:	cd 84       	ldd	r12, Y+13	; 0x0d
    3136:	de 84       	ldd	r13, Y+14	; 0x0e
    3138:	8e ef       	ldi	r24, 0xFE	; 254
    313a:	e8 2e       	mov	r14, r24
    313c:	8f ef       	ldi	r24, 0xFF	; 255
    313e:	f8 2e       	mov	r15, r24
    3140:	8f ef       	ldi	r24, 0xFF	; 255
    3142:	08 2f       	mov	r16, r24
    3144:	8f ef       	ldi	r24, 0xFF	; 255
    3146:	18 2f       	mov	r17, r24
    3148:	e8 0c       	add	r14, r8
    314a:	f9 1c       	adc	r15, r9
    314c:	0a 1d       	adc	r16, r10
    314e:	1b 1d       	adc	r17, r11
    3150:	f6 01       	movw	r30, r12
    3152:	86 89       	ldd	r24, Z+22	; 0x16
    3154:	97 89       	ldd	r25, Z+23	; 0x17
    3156:	a0 8d       	ldd	r26, Z+24	; 0x18
    3158:	b1 8d       	ldd	r27, Z+25	; 0x19
    315a:	02 97       	sbiw	r24, 0x02	; 2
    315c:	a1 09       	sbc	r26, r1
    315e:	b1 09       	sbc	r27, r1
    3160:	e8 16       	cp	r14, r24
    3162:	f9 06       	cpc	r15, r25
    3164:	0a 07       	cpc	r16, r26
    3166:	1b 07       	cpc	r17, r27
    3168:	20 f0       	brcs	.+8      	; 0x3172 <f_mkdir+0x11c>
    316a:	44 24       	eor	r4, r4
    316c:	55 24       	eor	r5, r5
    316e:	32 01       	movw	r6, r4
    3170:	15 c0       	rjmp	.+42     	; 0x319c <f_mkdir+0x146>
    3172:	d6 01       	movw	r26, r12
    3174:	12 96       	adiw	r26, 0x02	; 2
    3176:	2c 91       	ld	r18, X
    3178:	30 e0       	ldi	r19, 0x00	; 0
    317a:	40 e0       	ldi	r20, 0x00	; 0
    317c:	50 e0       	ldi	r21, 0x00	; 0
    317e:	c8 01       	movw	r24, r16
    3180:	b7 01       	movw	r22, r14
    3182:	0e 94 2e 2b 	call	0x565c	; 0x565c <__mulsi3>
    3186:	2b 01       	movw	r4, r22
    3188:	3c 01       	movw	r6, r24
    318a:	f6 01       	movw	r30, r12
    318c:	86 a1       	ldd	r24, Z+38	; 0x26
    318e:	97 a1       	ldd	r25, Z+39	; 0x27
    3190:	a0 a5       	ldd	r26, Z+40	; 0x28
    3192:	b1 a5       	ldd	r27, Z+41	; 0x29
    3194:	48 0e       	add	r4, r24
    3196:	59 1e       	adc	r5, r25
    3198:	6a 1e       	adc	r6, r26
    319a:	7b 1e       	adc	r7, r27
    319c:	be e2       	ldi	r27, 0x2E	; 46
    319e:	eb 2e       	mov	r14, r27
    31a0:	f1 2c       	mov	r15, r1
    31a2:	ec 0c       	add	r14, r12
    31a4:	fd 1c       	adc	r15, r13
    31a6:	f7 01       	movw	r30, r14
    31a8:	80 e0       	ldi	r24, 0x00	; 0
    31aa:	92 e0       	ldi	r25, 0x02	; 2
    31ac:	01 c0       	rjmp	.+2      	; 0x31b0 <f_mkdir+0x15a>
    31ae:	11 92       	st	Z+, r1
    31b0:	01 97       	sbiw	r24, 0x01	; 1
    31b2:	2f ef       	ldi	r18, 0xFF	; 255
    31b4:	8f 3f       	cpi	r24, 0xFF	; 255
    31b6:	92 07       	cpc	r25, r18
    31b8:	d1 f7       	brne	.-12     	; 0x31ae <f_mkdir+0x158>
    31ba:	f7 01       	movw	r30, r14
    31bc:	8b e0       	ldi	r24, 0x0B	; 11
    31be:	90 e0       	ldi	r25, 0x00	; 0
    31c0:	20 e2       	ldi	r18, 0x20	; 32
    31c2:	01 c0       	rjmp	.+2      	; 0x31c6 <f_mkdir+0x170>
    31c4:	21 93       	st	Z+, r18
    31c6:	01 97       	sbiw	r24, 0x01	; 1
    31c8:	3f ef       	ldi	r19, 0xFF	; 255
    31ca:	8f 3f       	cpi	r24, 0xFF	; 255
    31cc:	93 07       	cpc	r25, r19
    31ce:	d1 f7       	brne	.-12     	; 0x31c4 <f_mkdir+0x16e>
    31d0:	1e e2       	ldi	r17, 0x2E	; 46
    31d2:	d6 01       	movw	r26, r12
    31d4:	9e 96       	adiw	r26, 0x2e	; 46
    31d6:	1c 93       	st	X, r17
    31d8:	9e 97       	sbiw	r26, 0x2e	; 46
    31da:	80 e1       	ldi	r24, 0x10	; 16
    31dc:	d9 96       	adiw	r26, 0x39	; 57
    31de:	8c 93       	st	X, r24
    31e0:	8d a1       	ldd	r24, Y+37	; 0x25
    31e2:	9e a1       	ldd	r25, Y+38	; 0x26
    31e4:	af a1       	ldd	r26, Y+39	; 0x27
    31e6:	b8 a5       	ldd	r27, Y+40	; 0x28
    31e8:	f7 01       	movw	r30, r14
    31ea:	86 8b       	std	Z+22, r24	; 0x16
    31ec:	97 8b       	std	Z+23, r25	; 0x17
    31ee:	a0 8f       	std	Z+24, r26	; 0x18
    31f0:	b1 8f       	std	Z+25, r27	; 0x19
    31f2:	9a a6       	std	Y+42, r9	; 0x2a
    31f4:	89 a6       	std	Y+41, r8	; 0x29
    31f6:	93 8e       	std	Z+27, r9	; 0x1b
    31f8:	82 8e       	std	Z+26, r8	; 0x1a
    31fa:	c5 01       	movw	r24, r10
    31fc:	aa 27       	eor	r26, r26
    31fe:	bb 27       	eor	r27, r27
    3200:	1c 01       	movw	r2, r24
    3202:	95 8b       	std	Z+21, r25	; 0x15
    3204:	84 8b       	std	Z+20, r24	; 0x14
    3206:	c7 01       	movw	r24, r14
    3208:	80 96       	adiw	r24, 0x20	; 32
    320a:	b7 01       	movw	r22, r14
    320c:	40 e2       	ldi	r20, 0x20	; 32
    320e:	50 e0       	ldi	r21, 0x00	; 0
    3210:	0e 94 22 03 	call	0x644	; 0x644 <mem_cpy>
    3214:	2f e4       	ldi	r18, 0x4F	; 79
    3216:	30 e0       	ldi	r19, 0x00	; 0
    3218:	c2 0e       	add	r12, r18
    321a:	d3 1e       	adc	r13, r19
    321c:	d6 01       	movw	r26, r12
    321e:	1c 93       	st	X, r17
    3220:	2b 89       	ldd	r18, Y+19	; 0x13
    3222:	3c 89       	ldd	r19, Y+20	; 0x14
    3224:	4d 89       	ldd	r20, Y+21	; 0x15
    3226:	5e 89       	ldd	r21, Y+22	; 0x16
    3228:	ed 85       	ldd	r30, Y+13	; 0x0d
    322a:	fe 85       	ldd	r31, Y+14	; 0x0e
    322c:	80 81       	ld	r24, Z
    322e:	83 30       	cpi	r24, 0x03	; 3
    3230:	69 f4       	brne	.+26     	; 0x324c <f_mkdir+0x1f6>
    3232:	82 a1       	ldd	r24, Z+34	; 0x22
    3234:	93 a1       	ldd	r25, Z+35	; 0x23
    3236:	a4 a1       	ldd	r26, Z+36	; 0x24
    3238:	b5 a1       	ldd	r27, Z+37	; 0x25
    323a:	28 17       	cp	r18, r24
    323c:	39 07       	cpc	r19, r25
    323e:	4a 07       	cpc	r20, r26
    3240:	5b 07       	cpc	r21, r27
    3242:	21 f4       	brne	.+8      	; 0x324c <f_mkdir+0x1f6>
    3244:	20 e0       	ldi	r18, 0x00	; 0
    3246:	30 e0       	ldi	r19, 0x00	; 0
    3248:	40 e0       	ldi	r20, 0x00	; 0
    324a:	50 e0       	ldi	r21, 0x00	; 0
    324c:	d7 01       	movw	r26, r14
    324e:	db 96       	adiw	r26, 0x3b	; 59
    3250:	3c 93       	st	X, r19
    3252:	2e 93       	st	-X, r18
    3254:	da 97       	sbiw	r26, 0x3a	; 58
    3256:	9a 01       	movw	r18, r20
    3258:	44 27       	eor	r20, r20
    325a:	55 27       	eor	r21, r21
    325c:	d5 96       	adiw	r26, 0x35	; 53
    325e:	3c 93       	st	X, r19
    3260:	2e 93       	st	-X, r18
    3262:	d4 97       	sbiw	r26, 0x34	; 52
    3264:	02 81       	ldd	r16, Z+2	; 0x02
    3266:	dd 24       	eor	r13, r13
    3268:	d3 94       	inc	r13
    326a:	21 c0       	rjmp	.+66     	; 0x32ae <f_mkdir+0x258>
    326c:	ed 85       	ldd	r30, Y+13	; 0x0d
    326e:	fe 85       	ldd	r31, Y+14	; 0x0e
    3270:	42 a6       	std	Z+42, r4	; 0x2a
    3272:	53 a6       	std	Z+43, r5	; 0x2b
    3274:	64 a6       	std	Z+44, r6	; 0x2c
    3276:	75 a6       	std	Z+45, r7	; 0x2d
    3278:	d4 82       	std	Z+4, r13	; 0x04
    327a:	cf 01       	movw	r24, r30
    327c:	40 e0       	ldi	r20, 0x00	; 0
    327e:	50 e0       	ldi	r21, 0x00	; 0
    3280:	60 e0       	ldi	r22, 0x00	; 0
    3282:	70 e0       	ldi	r23, 0x00	; 0
    3284:	0e 94 96 0b 	call	0x172c	; 0x172c <move_window>
    3288:	18 2f       	mov	r17, r24
    328a:	88 23       	and	r24, r24
    328c:	99 f4       	brne	.+38     	; 0x32b4 <f_mkdir+0x25e>
    328e:	f7 01       	movw	r30, r14
    3290:	80 e0       	ldi	r24, 0x00	; 0
    3292:	92 e0       	ldi	r25, 0x02	; 2
    3294:	01 c0       	rjmp	.+2      	; 0x3298 <f_mkdir+0x242>
    3296:	11 92       	st	Z+, r1
    3298:	01 97       	sbiw	r24, 0x01	; 1
    329a:	bf ef       	ldi	r27, 0xFF	; 255
    329c:	8f 3f       	cpi	r24, 0xFF	; 255
    329e:	9b 07       	cpc	r25, r27
    32a0:	d1 f7       	brne	.-12     	; 0x3296 <f_mkdir+0x240>
    32a2:	08 94       	sec
    32a4:	41 1c       	adc	r4, r1
    32a6:	51 1c       	adc	r5, r1
    32a8:	61 1c       	adc	r6, r1
    32aa:	71 1c       	adc	r7, r1
    32ac:	01 50       	subi	r16, 0x01	; 1
    32ae:	00 23       	and	r16, r16
    32b0:	e9 f6       	brne	.-70     	; 0x326c <f_mkdir+0x216>
    32b2:	3d c0       	rjmp	.+122    	; 0x332e <f_mkdir+0x2d8>
    32b4:	8d 85       	ldd	r24, Y+13	; 0x0d
    32b6:	9e 85       	ldd	r25, Y+14	; 0x0e
    32b8:	b5 01       	movw	r22, r10
    32ba:	a4 01       	movw	r20, r8
    32bc:	0e 94 97 10 	call	0x212e	; 0x212e <remove_chain>
    32c0:	1a c0       	rjmp	.+52     	; 0x32f6 <f_mkdir+0x2a0>
    32c2:	ef 8d       	ldd	r30, Y+31	; 0x1f
    32c4:	f8 a1       	ldd	r31, Y+32	; 0x20
    32c6:	80 e1       	ldi	r24, 0x10	; 16
    32c8:	83 87       	std	Z+11, r24	; 0x0b
    32ca:	8d a1       	ldd	r24, Y+37	; 0x25
    32cc:	9e a1       	ldd	r25, Y+38	; 0x26
    32ce:	af a1       	ldd	r26, Y+39	; 0x27
    32d0:	b8 a5       	ldd	r27, Y+40	; 0x28
    32d2:	86 8b       	std	Z+22, r24	; 0x16
    32d4:	97 8b       	std	Z+23, r25	; 0x17
    32d6:	a0 8f       	std	Z+24, r26	; 0x18
    32d8:	b1 8f       	std	Z+25, r27	; 0x19
    32da:	a9 a5       	ldd	r26, Y+41	; 0x29
    32dc:	ba a5       	ldd	r27, Y+42	; 0x2a
    32de:	b3 8f       	std	Z+27, r27	; 0x1b
    32e0:	a2 8f       	std	Z+26, r26	; 0x1a
    32e2:	35 8a       	std	Z+21, r3	; 0x15
    32e4:	24 8a       	std	Z+20, r2	; 0x14
    32e6:	ed 85       	ldd	r30, Y+13	; 0x0d
    32e8:	fe 85       	ldd	r31, Y+14	; 0x0e
    32ea:	81 e0       	ldi	r24, 0x01	; 1
    32ec:	84 83       	std	Z+4, r24	; 0x04
    32ee:	cf 01       	movw	r24, r30
    32f0:	0e 94 0f 0c 	call	0x181e	; 0x181e <sync>
    32f4:	18 2f       	mov	r17, r24
    32f6:	81 2f       	mov	r24, r17
    32f8:	aa 96       	adiw	r28, 0x2a	; 42
    32fa:	0f b6       	in	r0, 0x3f	; 63
    32fc:	f8 94       	cli
    32fe:	de bf       	out	0x3e, r29	; 62
    3300:	0f be       	out	0x3f, r0	; 63
    3302:	cd bf       	out	0x3d, r28	; 61
    3304:	cf 91       	pop	r28
    3306:	df 91       	pop	r29
    3308:	1f 91       	pop	r17
    330a:	0f 91       	pop	r16
    330c:	ff 90       	pop	r15
    330e:	ef 90       	pop	r14
    3310:	df 90       	pop	r13
    3312:	cf 90       	pop	r12
    3314:	bf 90       	pop	r11
    3316:	af 90       	pop	r10
    3318:	9f 90       	pop	r9
    331a:	8f 90       	pop	r8
    331c:	7f 90       	pop	r7
    331e:	6f 90       	pop	r6
    3320:	5f 90       	pop	r5
    3322:	4f 90       	pop	r4
    3324:	3f 90       	pop	r3
    3326:	2f 90       	pop	r2
    3328:	08 95       	ret
    332a:	11 e0       	ldi	r17, 0x01	; 1
    332c:	c3 cf       	rjmp	.-122    	; 0x32b4 <f_mkdir+0x25e>
    332e:	ce 01       	movw	r24, r28
    3330:	0d 96       	adiw	r24, 0x0d	; 13
    3332:	0e 94 91 15 	call	0x2b22	; 0x2b22 <dir_register>
    3336:	18 2f       	mov	r17, r24
    3338:	88 23       	and	r24, r24
    333a:	19 f2       	breq	.-122    	; 0x32c2 <f_mkdir+0x26c>
    333c:	bb cf       	rjmp	.-138    	; 0x32b4 <f_mkdir+0x25e>

0000333e <f_open>:
    333e:	5f 92       	push	r5
    3340:	6f 92       	push	r6
    3342:	7f 92       	push	r7
    3344:	8f 92       	push	r8
    3346:	9f 92       	push	r9
    3348:	af 92       	push	r10
    334a:	bf 92       	push	r11
    334c:	cf 92       	push	r12
    334e:	df 92       	push	r13
    3350:	ef 92       	push	r14
    3352:	ff 92       	push	r15
    3354:	0f 93       	push	r16
    3356:	1f 93       	push	r17
    3358:	df 93       	push	r29
    335a:	cf 93       	push	r28
    335c:	cd b7       	in	r28, 0x3d	; 61
    335e:	de b7       	in	r29, 0x3e	; 62
    3360:	a4 97       	sbiw	r28, 0x24	; 36
    3362:	0f b6       	in	r0, 0x3f	; 63
    3364:	f8 94       	cli
    3366:	de bf       	out	0x3e, r29	; 62
    3368:	0f be       	out	0x3f, r0	; 63
    336a:	cd bf       	out	0x3d, r28	; 61
    336c:	3c 01       	movw	r6, r24
    336e:	7c a3       	std	Y+36, r23	; 0x24
    3370:	6b a3       	std	Y+35, r22	; 0x23
    3372:	dc 01       	movw	r26, r24
    3374:	1d 92       	st	X+, r1
    3376:	1c 92       	st	X, r1
    3378:	5f e1       	ldi	r21, 0x1F	; 31
    337a:	55 2e       	mov	r5, r21
    337c:	54 22       	and	r5, r20
    337e:	8e 01       	movw	r16, r28
    3380:	03 5f       	subi	r16, 0xF3	; 243
    3382:	1f 4f       	sbci	r17, 0xFF	; 255
    3384:	4e 71       	andi	r20, 0x1E	; 30
    3386:	ce 01       	movw	r24, r28
    3388:	83 96       	adiw	r24, 0x23	; 35
    338a:	b8 01       	movw	r22, r16
    338c:	0e 94 09 09 	call	0x1212	; 0x1212 <chk_mounted>
    3390:	28 2f       	mov	r18, r24
    3392:	ce 01       	movw	r24, r28
    3394:	01 96       	adiw	r24, 0x01	; 1
    3396:	9a a3       	std	Y+34, r25	; 0x22
    3398:	89 a3       	std	Y+33, r24	; 0x21
    339a:	22 23       	and	r18, r18
    339c:	31 f4       	brne	.+12     	; 0x33aa <f_open+0x6c>
    339e:	6b a1       	ldd	r22, Y+35	; 0x23
    33a0:	7c a1       	ldd	r23, Y+36	; 0x24
    33a2:	c8 01       	movw	r24, r16
    33a4:	0e 94 3d 13 	call	0x267a	; 0x267a <follow_path>
    33a8:	28 2f       	mov	r18, r24
    33aa:	cf 8c       	ldd	r12, Y+31	; 0x1f
    33ac:	d8 a0       	ldd	r13, Y+32	; 0x20
    33ae:	22 23       	and	r18, r18
    33b0:	21 f4       	brne	.+8      	; 0x33ba <f_open+0x7c>
    33b2:	c1 14       	cp	r12, r1
    33b4:	d1 04       	cpc	r13, r1
    33b6:	09 f4       	brne	.+2      	; 0x33ba <f_open+0x7c>
    33b8:	26 e0       	ldi	r18, 0x06	; 6
    33ba:	45 2d       	mov	r20, r5
    33bc:	50 e0       	ldi	r21, 0x00	; 0
    33be:	ca 01       	movw	r24, r20
    33c0:	8c 71       	andi	r24, 0x1C	; 28
    33c2:	90 70       	andi	r25, 0x00	; 0
    33c4:	89 2b       	or	r24, r25
    33c6:	09 f4       	brne	.+2      	; 0x33ca <f_open+0x8c>
    33c8:	69 c0       	rjmp	.+210    	; 0x349c <f_open+0x15e>
    33ca:	22 23       	and	r18, r18
    33cc:	79 f0       	breq	.+30     	; 0x33ec <f_open+0xae>
    33ce:	24 30       	cpi	r18, 0x04	; 4
    33d0:	29 f4       	brne	.+10     	; 0x33dc <f_open+0x9e>
    33d2:	ce 01       	movw	r24, r28
    33d4:	0d 96       	adiw	r24, 0x0d	; 13
    33d6:	0e 94 91 15 	call	0x2b22	; 0x2b22 <dir_register>
    33da:	28 2f       	mov	r18, r24
    33dc:	cf 8c       	ldd	r12, Y+31	; 0x1f
    33de:	d8 a0       	ldd	r13, Y+32	; 0x20
    33e0:	22 23       	and	r18, r18
    33e2:	09 f0       	breq	.+2      	; 0x33e6 <f_open+0xa8>
    33e4:	b5 c0       	rjmp	.+362    	; 0x3550 <f_open+0x212>
    33e6:	b8 e0       	ldi	r27, 0x08	; 8
    33e8:	5b 2a       	or	r5, r27
    33ea:	09 c0       	rjmp	.+18     	; 0x33fe <f_open+0xc0>
    33ec:	52 fe       	sbrs	r5, 2
    33ee:	02 c0       	rjmp	.+4      	; 0x33f4 <f_open+0xb6>
    33f0:	28 e0       	ldi	r18, 0x08	; 8
    33f2:	ae c0       	rjmp	.+348    	; 0x3550 <f_open+0x212>
    33f4:	f6 01       	movw	r30, r12
    33f6:	83 85       	ldd	r24, Z+11	; 0x0b
    33f8:	81 71       	andi	r24, 0x11	; 17
    33fa:	09 f0       	breq	.+2      	; 0x33fe <f_open+0xc0>
    33fc:	c0 c0       	rjmp	.+384    	; 0x357e <f_open+0x240>
    33fe:	53 fe       	sbrs	r5, 3
    3400:	5b c0       	rjmp	.+182    	; 0x34b8 <f_open+0x17a>
    3402:	0e 94 5f 00 	call	0xbe	; 0xbe <get_fattime>
    3406:	d6 01       	movw	r26, r12
    3408:	1e 96       	adiw	r26, 0x0e	; 14
    340a:	6d 93       	st	X+, r22
    340c:	7d 93       	st	X+, r23
    340e:	8d 93       	st	X+, r24
    3410:	9c 93       	st	X, r25
    3412:	51 97       	sbiw	r26, 0x11	; 17
    3414:	1b 96       	adiw	r26, 0x0b	; 11
    3416:	1c 92       	st	X, r1
    3418:	f6 01       	movw	r30, r12
    341a:	14 8e       	std	Z+28, r1	; 0x1c
    341c:	15 8e       	std	Z+29, r1	; 0x1d
    341e:	16 8e       	std	Z+30, r1	; 0x1e
    3420:	17 8e       	std	Z+31, r1	; 0x1f
    3422:	84 89       	ldd	r24, Z+20	; 0x14
    3424:	95 89       	ldd	r25, Z+21	; 0x15
    3426:	a0 e0       	ldi	r26, 0x00	; 0
    3428:	b0 e0       	ldi	r27, 0x00	; 0
    342a:	8c 01       	movw	r16, r24
    342c:	ff 24       	eor	r15, r15
    342e:	ee 24       	eor	r14, r14
    3430:	82 8d       	ldd	r24, Z+26	; 0x1a
    3432:	93 8d       	ldd	r25, Z+27	; 0x1b
    3434:	a0 e0       	ldi	r26, 0x00	; 0
    3436:	b0 e0       	ldi	r27, 0x00	; 0
    3438:	e8 2a       	or	r14, r24
    343a:	f9 2a       	or	r15, r25
    343c:	0a 2b       	or	r16, r26
    343e:	1b 2b       	or	r17, r27
    3440:	13 8e       	std	Z+27, r1	; 0x1b
    3442:	12 8e       	std	Z+26, r1	; 0x1a
    3444:	15 8a       	std	Z+21, r1	; 0x15
    3446:	14 8a       	std	Z+20, r1	; 0x14
    3448:	ed 85       	ldd	r30, Y+13	; 0x0d
    344a:	fe 85       	ldd	r31, Y+14	; 0x0e
    344c:	81 e0       	ldi	r24, 0x01	; 1
    344e:	84 83       	std	Z+4, r24	; 0x04
    3450:	e1 14       	cp	r14, r1
    3452:	f1 04       	cpc	r15, r1
    3454:	01 05       	cpc	r16, r1
    3456:	11 05       	cpc	r17, r1
    3458:	79 f1       	breq	.+94     	; 0x34b8 <f_open+0x17a>
    345a:	82 a4       	ldd	r8, Z+42	; 0x2a
    345c:	93 a4       	ldd	r9, Z+43	; 0x2b
    345e:	a4 a4       	ldd	r10, Z+44	; 0x2c
    3460:	b5 a4       	ldd	r11, Z+45	; 0x2d
    3462:	cf 01       	movw	r24, r30
    3464:	b8 01       	movw	r22, r16
    3466:	a7 01       	movw	r20, r14
    3468:	0e 94 97 10 	call	0x212e	; 0x212e <remove_chain>
    346c:	28 2f       	mov	r18, r24
    346e:	88 23       	and	r24, r24
    3470:	09 f0       	breq	.+2      	; 0x3474 <f_open+0x136>
    3472:	6e c0       	rjmp	.+220    	; 0x3550 <f_open+0x212>
    3474:	ed 85       	ldd	r30, Y+13	; 0x0d
    3476:	fe 85       	ldd	r31, Y+14	; 0x0e
    3478:	08 94       	sec
    347a:	e1 08       	sbc	r14, r1
    347c:	f1 08       	sbc	r15, r1
    347e:	01 09       	sbc	r16, r1
    3480:	11 09       	sbc	r17, r1
    3482:	e2 86       	std	Z+10, r14	; 0x0a
    3484:	f3 86       	std	Z+11, r15	; 0x0b
    3486:	04 87       	std	Z+12, r16	; 0x0c
    3488:	15 87       	std	Z+13, r17	; 0x0d
    348a:	cf 01       	movw	r24, r30
    348c:	b5 01       	movw	r22, r10
    348e:	a4 01       	movw	r20, r8
    3490:	0e 94 96 0b 	call	0x172c	; 0x172c <move_window>
    3494:	28 2f       	mov	r18, r24
    3496:	88 23       	and	r24, r24
    3498:	79 f0       	breq	.+30     	; 0x34b8 <f_open+0x17a>
    349a:	5a c0       	rjmp	.+180    	; 0x3550 <f_open+0x212>
    349c:	22 23       	and	r18, r18
    349e:	09 f0       	breq	.+2      	; 0x34a2 <f_open+0x164>
    34a0:	57 c0       	rjmp	.+174    	; 0x3550 <f_open+0x212>
    34a2:	d6 01       	movw	r26, r12
    34a4:	1b 96       	adiw	r26, 0x0b	; 11
    34a6:	8c 91       	ld	r24, X
    34a8:	84 ff       	sbrs	r24, 4
    34aa:	02 c0       	rjmp	.+4      	; 0x34b0 <f_open+0x172>
    34ac:	24 e0       	ldi	r18, 0x04	; 4
    34ae:	50 c0       	rjmp	.+160    	; 0x3550 <f_open+0x212>
    34b0:	51 fe       	sbrs	r5, 1
    34b2:	02 c0       	rjmp	.+4      	; 0x34b8 <f_open+0x17a>
    34b4:	80 fd       	sbrc	r24, 0
    34b6:	63 c0       	rjmp	.+198    	; 0x357e <f_open+0x240>
    34b8:	53 fe       	sbrs	r5, 3
    34ba:	02 c0       	rjmp	.+4      	; 0x34c0 <f_open+0x182>
    34bc:	b0 e2       	ldi	r27, 0x20	; 32
    34be:	5b 2a       	or	r5, r27
    34c0:	6d 85       	ldd	r22, Y+13	; 0x0d
    34c2:	7e 85       	ldd	r23, Y+14	; 0x0e
    34c4:	fb 01       	movw	r30, r22
    34c6:	22 a5       	ldd	r18, Z+42	; 0x2a
    34c8:	33 a5       	ldd	r19, Z+43	; 0x2b
    34ca:	44 a5       	ldd	r20, Z+44	; 0x2c
    34cc:	55 a5       	ldd	r21, Z+45	; 0x2d
    34ce:	d3 01       	movw	r26, r6
    34d0:	5a 96       	adiw	r26, 0x1a	; 26
    34d2:	2d 93       	st	X+, r18
    34d4:	3d 93       	st	X+, r19
    34d6:	4d 93       	st	X+, r20
    34d8:	5c 93       	st	X, r21
    34da:	5d 97       	sbiw	r26, 0x1d	; 29
    34dc:	5f 96       	adiw	r26, 0x1f	; 31
    34de:	dc 92       	st	X, r13
    34e0:	ce 92       	st	-X, r12
    34e2:	5e 97       	sbiw	r26, 0x1e	; 30
    34e4:	14 96       	adiw	r26, 0x04	; 4
    34e6:	5c 92       	st	X, r5
    34e8:	f6 01       	movw	r30, r12
    34ea:	84 89       	ldd	r24, Z+20	; 0x14
    34ec:	95 89       	ldd	r25, Z+21	; 0x15
    34ee:	a0 e0       	ldi	r26, 0x00	; 0
    34f0:	b0 e0       	ldi	r27, 0x00	; 0
    34f2:	dc 01       	movw	r26, r24
    34f4:	99 27       	eor	r25, r25
    34f6:	88 27       	eor	r24, r24
    34f8:	22 8d       	ldd	r18, Z+26	; 0x1a
    34fa:	33 8d       	ldd	r19, Z+27	; 0x1b
    34fc:	40 e0       	ldi	r20, 0x00	; 0
    34fe:	50 e0       	ldi	r21, 0x00	; 0
    3500:	82 2b       	or	r24, r18
    3502:	93 2b       	or	r25, r19
    3504:	a4 2b       	or	r26, r20
    3506:	b5 2b       	or	r27, r21
    3508:	f3 01       	movw	r30, r6
    350a:	86 87       	std	Z+14, r24	; 0x0e
    350c:	97 87       	std	Z+15, r25	; 0x0f
    350e:	a0 8b       	std	Z+16, r26	; 0x10
    3510:	b1 8b       	std	Z+17, r27	; 0x11
    3512:	f6 01       	movw	r30, r12
    3514:	84 8d       	ldd	r24, Z+28	; 0x1c
    3516:	95 8d       	ldd	r25, Z+29	; 0x1d
    3518:	a6 8d       	ldd	r26, Z+30	; 0x1e
    351a:	b7 8d       	ldd	r27, Z+31	; 0x1f
    351c:	f3 01       	movw	r30, r6
    351e:	82 87       	std	Z+10, r24	; 0x0a
    3520:	93 87       	std	Z+11, r25	; 0x0b
    3522:	a4 87       	std	Z+12, r26	; 0x0c
    3524:	b5 87       	std	Z+13, r27	; 0x0d
    3526:	d3 01       	movw	r26, r6
    3528:	16 96       	adiw	r26, 0x06	; 6
    352a:	1d 92       	st	X+, r1
    352c:	1d 92       	st	X+, r1
    352e:	1d 92       	st	X+, r1
    3530:	1c 92       	st	X, r1
    3532:	19 97       	sbiw	r26, 0x09	; 9
    3534:	16 8a       	std	Z+22, r1	; 0x16
    3536:	17 8a       	std	Z+23, r1	; 0x17
    3538:	10 8e       	std	Z+24, r1	; 0x18
    353a:	11 8e       	std	Z+25, r1	; 0x19
    353c:	71 83       	std	Z+1, r23	; 0x01
    353e:	60 83       	st	Z, r22
    3540:	db 01       	movw	r26, r22
    3542:	16 96       	adiw	r26, 0x06	; 6
    3544:	8d 91       	ld	r24, X+
    3546:	9c 91       	ld	r25, X
    3548:	17 97       	sbiw	r26, 0x07	; 7
    354a:	93 83       	std	Z+3, r25	; 0x03
    354c:	82 83       	std	Z+2, r24	; 0x02
    354e:	20 e0       	ldi	r18, 0x00	; 0
    3550:	82 2f       	mov	r24, r18
    3552:	a4 96       	adiw	r28, 0x24	; 36
    3554:	0f b6       	in	r0, 0x3f	; 63
    3556:	f8 94       	cli
    3558:	de bf       	out	0x3e, r29	; 62
    355a:	0f be       	out	0x3f, r0	; 63
    355c:	cd bf       	out	0x3d, r28	; 61
    355e:	cf 91       	pop	r28
    3560:	df 91       	pop	r29
    3562:	1f 91       	pop	r17
    3564:	0f 91       	pop	r16
    3566:	ff 90       	pop	r15
    3568:	ef 90       	pop	r14
    356a:	df 90       	pop	r13
    356c:	cf 90       	pop	r12
    356e:	bf 90       	pop	r11
    3570:	af 90       	pop	r10
    3572:	9f 90       	pop	r9
    3574:	8f 90       	pop	r8
    3576:	7f 90       	pop	r7
    3578:	6f 90       	pop	r6
    357a:	5f 90       	pop	r5
    357c:	08 95       	ret
    357e:	27 e0       	ldi	r18, 0x07	; 7
    3580:	e7 cf       	rjmp	.-50     	; 0x3550 <f_open+0x212>

00003582 <f_getfree>:
    3582:	3f 92       	push	r3
    3584:	4f 92       	push	r4
    3586:	5f 92       	push	r5
    3588:	6f 92       	push	r6
    358a:	7f 92       	push	r7
    358c:	8f 92       	push	r8
    358e:	9f 92       	push	r9
    3590:	af 92       	push	r10
    3592:	bf 92       	push	r11
    3594:	cf 92       	push	r12
    3596:	df 92       	push	r13
    3598:	ef 92       	push	r14
    359a:	ff 92       	push	r15
    359c:	0f 93       	push	r16
    359e:	1f 93       	push	r17
    35a0:	df 93       	push	r29
    35a2:	cf 93       	push	r28
    35a4:	00 d0       	rcall	.+0      	; 0x35a6 <f_getfree+0x24>
    35a6:	00 d0       	rcall	.+0      	; 0x35a8 <f_getfree+0x26>
    35a8:	cd b7       	in	r28, 0x3d	; 61
    35aa:	de b7       	in	r29, 0x3e	; 62
    35ac:	9a 83       	std	Y+2, r25	; 0x02
    35ae:	89 83       	std	Y+1, r24	; 0x01
    35b0:	7c 83       	std	Y+4, r23	; 0x04
    35b2:	6b 83       	std	Y+3, r22	; 0x03
    35b4:	2a 01       	movw	r4, r20
    35b6:	ce 01       	movw	r24, r28
    35b8:	01 96       	adiw	r24, 0x01	; 1
    35ba:	ba 01       	movw	r22, r20
    35bc:	40 e0       	ldi	r20, 0x00	; 0
    35be:	0e 94 09 09 	call	0x1212	; 0x1212 <chk_mounted>
    35c2:	68 2f       	mov	r22, r24
    35c4:	88 23       	and	r24, r24
    35c6:	09 f0       	breq	.+2      	; 0x35ca <f_getfree+0x48>
    35c8:	bf c0       	rjmp	.+382    	; 0x3748 <f_getfree+0x1c6>
    35ca:	d2 01       	movw	r26, r4
    35cc:	ed 91       	ld	r30, X+
    35ce:	fc 91       	ld	r31, X
    35d0:	26 85       	ldd	r18, Z+14	; 0x0e
    35d2:	37 85       	ldd	r19, Z+15	; 0x0f
    35d4:	40 89       	ldd	r20, Z+16	; 0x10
    35d6:	51 89       	ldd	r21, Z+17	; 0x11
    35d8:	e6 88       	ldd	r14, Z+22	; 0x16
    35da:	f7 88       	ldd	r15, Z+23	; 0x17
    35dc:	00 8d       	ldd	r16, Z+24	; 0x18
    35de:	11 8d       	ldd	r17, Z+25	; 0x19
    35e0:	d8 01       	movw	r26, r16
    35e2:	c7 01       	movw	r24, r14
    35e4:	02 97       	sbiw	r24, 0x02	; 2
    35e6:	a1 09       	sbc	r26, r1
    35e8:	b1 09       	sbc	r27, r1
    35ea:	82 17       	cp	r24, r18
    35ec:	93 07       	cpc	r25, r19
    35ee:	a4 07       	cpc	r26, r20
    35f0:	b5 07       	cpc	r27, r21
    35f2:	38 f0       	brcs	.+14     	; 0x3602 <f_getfree+0x80>
    35f4:	eb 81       	ldd	r30, Y+3	; 0x03
    35f6:	fc 81       	ldd	r31, Y+4	; 0x04
    35f8:	20 83       	st	Z, r18
    35fa:	31 83       	std	Z+1, r19	; 0x01
    35fc:	42 83       	std	Z+2, r20	; 0x02
    35fe:	53 83       	std	Z+3, r21	; 0x03
    3600:	a3 c0       	rjmp	.+326    	; 0x3748 <f_getfree+0x1c6>
    3602:	30 80       	ld	r3, Z
    3604:	21 e0       	ldi	r18, 0x01	; 1
    3606:	32 16       	cp	r3, r18
    3608:	e1 f5       	brne	.+120    	; 0x3682 <f_getfree+0x100>
    360a:	aa 24       	eor	r10, r10
    360c:	bb 24       	eor	r11, r11
    360e:	65 01       	movw	r12, r10
    3610:	62 e0       	ldi	r22, 0x02	; 2
    3612:	e6 2e       	mov	r14, r22
    3614:	f1 2c       	mov	r15, r1
    3616:	01 2d       	mov	r16, r1
    3618:	11 2d       	mov	r17, r1
    361a:	d2 01       	movw	r26, r4
    361c:	8d 91       	ld	r24, X+
    361e:	9c 91       	ld	r25, X
    3620:	b8 01       	movw	r22, r16
    3622:	a7 01       	movw	r20, r14
    3624:	0e 94 e8 0d 	call	0x1bd0	; 0x1bd0 <get_fat>
    3628:	6f 3f       	cpi	r22, 0xFF	; 255
    362a:	bf ef       	ldi	r27, 0xFF	; 255
    362c:	7b 07       	cpc	r23, r27
    362e:	bf ef       	ldi	r27, 0xFF	; 255
    3630:	8b 07       	cpc	r24, r27
    3632:	bf ef       	ldi	r27, 0xFF	; 255
    3634:	9b 07       	cpc	r25, r27
    3636:	11 f4       	brne	.+4      	; 0x363c <f_getfree+0xba>
    3638:	91 e0       	ldi	r25, 0x01	; 1
    363a:	73 c0       	rjmp	.+230    	; 0x3722 <f_getfree+0x1a0>
    363c:	61 30       	cpi	r22, 0x01	; 1
    363e:	71 05       	cpc	r23, r1
    3640:	81 05       	cpc	r24, r1
    3642:	91 05       	cpc	r25, r1
    3644:	11 f4       	brne	.+4      	; 0x364a <f_getfree+0xc8>
    3646:	92 e0       	ldi	r25, 0x02	; 2
    3648:	6c c0       	rjmp	.+216    	; 0x3722 <f_getfree+0x1a0>
    364a:	61 15       	cp	r22, r1
    364c:	71 05       	cpc	r23, r1
    364e:	81 05       	cpc	r24, r1
    3650:	91 05       	cpc	r25, r1
    3652:	29 f4       	brne	.+10     	; 0x365e <f_getfree+0xdc>
    3654:	08 94       	sec
    3656:	a1 1c       	adc	r10, r1
    3658:	b1 1c       	adc	r11, r1
    365a:	c1 1c       	adc	r12, r1
    365c:	d1 1c       	adc	r13, r1
    365e:	08 94       	sec
    3660:	e1 1c       	adc	r14, r1
    3662:	f1 1c       	adc	r15, r1
    3664:	01 1d       	adc	r16, r1
    3666:	11 1d       	adc	r17, r1
    3668:	d2 01       	movw	r26, r4
    366a:	ed 91       	ld	r30, X+
    366c:	fc 91       	ld	r31, X
    366e:	86 89       	ldd	r24, Z+22	; 0x16
    3670:	97 89       	ldd	r25, Z+23	; 0x17
    3672:	a0 8d       	ldd	r26, Z+24	; 0x18
    3674:	b1 8d       	ldd	r27, Z+25	; 0x19
    3676:	e8 16       	cp	r14, r24
    3678:	f9 06       	cpc	r15, r25
    367a:	0a 07       	cpc	r16, r26
    367c:	1b 07       	cpc	r17, r27
    367e:	68 f2       	brcs	.-102    	; 0x361a <f_getfree+0x98>
    3680:	4f c0       	rjmp	.+158    	; 0x3720 <f_getfree+0x19e>
    3682:	66 8c       	ldd	r6, Z+30	; 0x1e
    3684:	77 8c       	ldd	r7, Z+31	; 0x1f
    3686:	80 a0       	ldd	r8, Z+32	; 0x20
    3688:	91 a0       	ldd	r9, Z+33	; 0x21
    368a:	aa 24       	eor	r10, r10
    368c:	bb 24       	eor	r11, r11
    368e:	65 01       	movw	r12, r10
    3690:	20 e0       	ldi	r18, 0x00	; 0
    3692:	30 e0       	ldi	r19, 0x00	; 0
    3694:	e0 e0       	ldi	r30, 0x00	; 0
    3696:	f0 e0       	ldi	r31, 0x00	; 0
    3698:	21 15       	cp	r18, r1
    369a:	31 05       	cpc	r19, r1
    369c:	a9 f4       	brne	.+42     	; 0x36c8 <f_getfree+0x146>
    369e:	f2 01       	movw	r30, r4
    36a0:	80 81       	ld	r24, Z
    36a2:	91 81       	ldd	r25, Z+1	; 0x01
    36a4:	b4 01       	movw	r22, r8
    36a6:	a3 01       	movw	r20, r6
    36a8:	0e 94 96 0b 	call	0x172c	; 0x172c <move_window>
    36ac:	98 2f       	mov	r25, r24
    36ae:	88 23       	and	r24, r24
    36b0:	c1 f5       	brne	.+112    	; 0x3722 <f_getfree+0x1a0>
    36b2:	08 94       	sec
    36b4:	61 1c       	adc	r6, r1
    36b6:	71 1c       	adc	r7, r1
    36b8:	81 1c       	adc	r8, r1
    36ba:	91 1c       	adc	r9, r1
    36bc:	d2 01       	movw	r26, r4
    36be:	ed 91       	ld	r30, X+
    36c0:	fc 91       	ld	r31, X
    36c2:	be 96       	adiw	r30, 0x2e	; 46
    36c4:	20 e0       	ldi	r18, 0x00	; 0
    36c6:	32 e0       	ldi	r19, 0x02	; 2
    36c8:	b2 e0       	ldi	r27, 0x02	; 2
    36ca:	3b 16       	cp	r3, r27
    36cc:	69 f4       	brne	.+26     	; 0x36e8 <f_getfree+0x166>
    36ce:	80 81       	ld	r24, Z
    36d0:	91 81       	ldd	r25, Z+1	; 0x01
    36d2:	89 2b       	or	r24, r25
    36d4:	29 f4       	brne	.+10     	; 0x36e0 <f_getfree+0x15e>
    36d6:	08 94       	sec
    36d8:	a1 1c       	adc	r10, r1
    36da:	b1 1c       	adc	r11, r1
    36dc:	c1 1c       	adc	r12, r1
    36de:	d1 1c       	adc	r13, r1
    36e0:	32 96       	adiw	r30, 0x02	; 2
    36e2:	22 50       	subi	r18, 0x02	; 2
    36e4:	30 40       	sbci	r19, 0x00	; 0
    36e6:	11 c0       	rjmp	.+34     	; 0x370a <f_getfree+0x188>
    36e8:	80 81       	ld	r24, Z
    36ea:	91 81       	ldd	r25, Z+1	; 0x01
    36ec:	a2 81       	ldd	r26, Z+2	; 0x02
    36ee:	b3 81       	ldd	r27, Z+3	; 0x03
    36f0:	bf 70       	andi	r27, 0x0F	; 15
    36f2:	00 97       	sbiw	r24, 0x00	; 0
    36f4:	a1 05       	cpc	r26, r1
    36f6:	b1 05       	cpc	r27, r1
    36f8:	29 f4       	brne	.+10     	; 0x3704 <f_getfree+0x182>
    36fa:	08 94       	sec
    36fc:	a1 1c       	adc	r10, r1
    36fe:	b1 1c       	adc	r11, r1
    3700:	c1 1c       	adc	r12, r1
    3702:	d1 1c       	adc	r13, r1
    3704:	34 96       	adiw	r30, 0x04	; 4
    3706:	24 50       	subi	r18, 0x04	; 4
    3708:	30 40       	sbci	r19, 0x00	; 0
    370a:	08 94       	sec
    370c:	e1 08       	sbc	r14, r1
    370e:	f1 08       	sbc	r15, r1
    3710:	01 09       	sbc	r16, r1
    3712:	11 09       	sbc	r17, r1
    3714:	e1 14       	cp	r14, r1
    3716:	f1 04       	cpc	r15, r1
    3718:	01 05       	cpc	r16, r1
    371a:	11 05       	cpc	r17, r1
    371c:	09 f0       	breq	.+2      	; 0x3720 <f_getfree+0x19e>
    371e:	bc cf       	rjmp	.-136    	; 0x3698 <f_getfree+0x116>
    3720:	90 e0       	ldi	r25, 0x00	; 0
    3722:	d2 01       	movw	r26, r4
    3724:	ed 91       	ld	r30, X+
    3726:	fc 91       	ld	r31, X
    3728:	a6 86       	std	Z+14, r10	; 0x0e
    372a:	b7 86       	std	Z+15, r11	; 0x0f
    372c:	c0 8a       	std	Z+16, r12	; 0x10
    372e:	d1 8a       	std	Z+17, r13	; 0x11
    3730:	b3 e0       	ldi	r27, 0x03	; 3
    3732:	3b 16       	cp	r3, r27
    3734:	11 f4       	brne	.+4      	; 0x373a <f_getfree+0x1b8>
    3736:	81 e0       	ldi	r24, 0x01	; 1
    3738:	85 83       	std	Z+5, r24	; 0x05
    373a:	eb 81       	ldd	r30, Y+3	; 0x03
    373c:	fc 81       	ldd	r31, Y+4	; 0x04
    373e:	a0 82       	st	Z, r10
    3740:	b1 82       	std	Z+1, r11	; 0x01
    3742:	c2 82       	std	Z+2, r12	; 0x02
    3744:	d3 82       	std	Z+3, r13	; 0x03
    3746:	69 2f       	mov	r22, r25
    3748:	86 2f       	mov	r24, r22
    374a:	0f 90       	pop	r0
    374c:	0f 90       	pop	r0
    374e:	0f 90       	pop	r0
    3750:	0f 90       	pop	r0
    3752:	cf 91       	pop	r28
    3754:	df 91       	pop	r29
    3756:	1f 91       	pop	r17
    3758:	0f 91       	pop	r16
    375a:	ff 90       	pop	r15
    375c:	ef 90       	pop	r14
    375e:	df 90       	pop	r13
    3760:	cf 90       	pop	r12
    3762:	bf 90       	pop	r11
    3764:	af 90       	pop	r10
    3766:	9f 90       	pop	r9
    3768:	8f 90       	pop	r8
    376a:	7f 90       	pop	r7
    376c:	6f 90       	pop	r6
    376e:	5f 90       	pop	r5
    3770:	4f 90       	pop	r4
    3772:	3f 90       	pop	r3
    3774:	08 95       	ret

00003776 <f_lseek>:
    3776:	2f 92       	push	r2
    3778:	3f 92       	push	r3
    377a:	4f 92       	push	r4
    377c:	5f 92       	push	r5
    377e:	6f 92       	push	r6
    3780:	7f 92       	push	r7
    3782:	8f 92       	push	r8
    3784:	9f 92       	push	r9
    3786:	af 92       	push	r10
    3788:	bf 92       	push	r11
    378a:	cf 92       	push	r12
    378c:	df 92       	push	r13
    378e:	ef 92       	push	r14
    3790:	0f 93       	push	r16
    3792:	1f 93       	push	r17
    3794:	df 93       	push	r29
    3796:	cf 93       	push	r28
    3798:	cd b7       	in	r28, 0x3d	; 61
    379a:	de b7       	in	r29, 0x3e	; 62
    379c:	28 97       	sbiw	r28, 0x08	; 8
    379e:	0f b6       	in	r0, 0x3f	; 63
    37a0:	f8 94       	cli
    37a2:	de bf       	out	0x3e, r29	; 62
    37a4:	0f be       	out	0x3f, r0	; 63
    37a6:	cd bf       	out	0x3d, r28	; 61
    37a8:	98 87       	std	Y+8, r25	; 0x08
    37aa:	8f 83       	std	Y+7, r24	; 0x07
    37ac:	5a 01       	movw	r10, r20
    37ae:	6b 01       	movw	r12, r22
    37b0:	dc 01       	movw	r26, r24
    37b2:	12 96       	adiw	r26, 0x02	; 2
    37b4:	6d 91       	ld	r22, X+
    37b6:	7c 91       	ld	r23, X
    37b8:	13 97       	sbiw	r26, 0x03	; 3
    37ba:	8d 91       	ld	r24, X+
    37bc:	9c 91       	ld	r25, X
    37be:	0e 94 b4 08 	call	0x1168	; 0x1168 <validate>
    37c2:	e8 2e       	mov	r14, r24
    37c4:	88 23       	and	r24, r24
    37c6:	09 f0       	breq	.+2      	; 0x37ca <f_lseek+0x54>
    37c8:	e7 c1       	rjmp	.+974    	; 0x3b98 <f_lseek+0x422>
    37ca:	ef 81       	ldd	r30, Y+7	; 0x07
    37cc:	f8 85       	ldd	r31, Y+8	; 0x08
    37ce:	84 81       	ldd	r24, Z+4	; 0x04
    37d0:	87 fd       	sbrc	r24, 7
    37d2:	96 c0       	rjmp	.+300    	; 0x3900 <f_lseek+0x18a>
    37d4:	af 81       	ldd	r26, Y+7	; 0x07
    37d6:	b8 85       	ldd	r27, Y+8	; 0x08
    37d8:	1a 96       	adiw	r26, 0x0a	; 10
    37da:	6d 90       	ld	r6, X+
    37dc:	7d 90       	ld	r7, X+
    37de:	8d 90       	ld	r8, X+
    37e0:	9c 90       	ld	r9, X
    37e2:	1d 97       	sbiw	r26, 0x0d	; 13
    37e4:	6a 14       	cp	r6, r10
    37e6:	7b 04       	cpc	r7, r11
    37e8:	8c 04       	cpc	r8, r12
    37ea:	9d 04       	cpc	r9, r13
    37ec:	10 f4       	brcc	.+4      	; 0x37f2 <f_lseek+0x7c>
    37ee:	81 ff       	sbrs	r24, 1
    37f0:	02 c0       	rjmp	.+4      	; 0x37f6 <f_lseek+0x80>
    37f2:	35 01       	movw	r6, r10
    37f4:	46 01       	movw	r8, r12
    37f6:	ef 81       	ldd	r30, Y+7	; 0x07
    37f8:	f8 85       	ldd	r31, Y+8	; 0x08
    37fa:	26 81       	ldd	r18, Z+6	; 0x06
    37fc:	37 81       	ldd	r19, Z+7	; 0x07
    37fe:	40 85       	ldd	r20, Z+8	; 0x08
    3800:	51 85       	ldd	r21, Z+9	; 0x09
    3802:	16 82       	std	Z+6, r1	; 0x06
    3804:	17 82       	std	Z+7, r1	; 0x07
    3806:	10 86       	std	Z+8, r1	; 0x08
    3808:	11 86       	std	Z+9, r1	; 0x09
    380a:	61 14       	cp	r6, r1
    380c:	71 04       	cpc	r7, r1
    380e:	81 04       	cpc	r8, r1
    3810:	91 04       	cpc	r9, r1
    3812:	09 f4       	brne	.+2      	; 0x3816 <f_lseek+0xa0>
    3814:	54 c1       	rjmp	.+680    	; 0x3abe <f_lseek+0x348>
    3816:	01 90       	ld	r0, Z+
    3818:	f0 81       	ld	r31, Z
    381a:	e0 2d       	mov	r30, r0
    381c:	fa 83       	std	Y+2, r31	; 0x02
    381e:	e9 83       	std	Y+1, r30	; 0x01
    3820:	82 81       	ldd	r24, Z+2	; 0x02
    3822:	a8 2e       	mov	r10, r24
    3824:	bb 24       	eor	r11, r11
    3826:	cc 24       	eor	r12, r12
    3828:	dd 24       	eor	r13, r13
    382a:	a9 e0       	ldi	r26, 0x09	; 9
    382c:	aa 0c       	add	r10, r10
    382e:	bb 1c       	adc	r11, r11
    3830:	cc 1c       	adc	r12, r12
    3832:	dd 1c       	adc	r13, r13
    3834:	aa 95       	dec	r26
    3836:	d1 f7       	brne	.-12     	; 0x382c <f_lseek+0xb6>
    3838:	21 15       	cp	r18, r1
    383a:	31 05       	cpc	r19, r1
    383c:	41 05       	cpc	r20, r1
    383e:	51 05       	cpc	r21, r1
    3840:	f1 f1       	breq	.+124    	; 0x38be <f_lseek+0x148>
    3842:	19 01       	movw	r2, r18
    3844:	2a 01       	movw	r4, r20
    3846:	08 94       	sec
    3848:	21 08       	sbc	r2, r1
    384a:	31 08       	sbc	r3, r1
    384c:	41 08       	sbc	r4, r1
    384e:	51 08       	sbc	r5, r1
    3850:	c4 01       	movw	r24, r8
    3852:	b3 01       	movw	r22, r6
    3854:	61 50       	subi	r22, 0x01	; 1
    3856:	70 40       	sbci	r23, 0x00	; 0
    3858:	80 40       	sbci	r24, 0x00	; 0
    385a:	90 40       	sbci	r25, 0x00	; 0
    385c:	a6 01       	movw	r20, r12
    385e:	95 01       	movw	r18, r10
    3860:	0e 94 59 2b 	call	0x56b2	; 0x56b2 <__udivmodsi4>
    3864:	2b 83       	std	Y+3, r18	; 0x03
    3866:	3c 83       	std	Y+4, r19	; 0x04
    3868:	4d 83       	std	Y+5, r20	; 0x05
    386a:	5e 83       	std	Y+6, r21	; 0x06
    386c:	c2 01       	movw	r24, r4
    386e:	b1 01       	movw	r22, r2
    3870:	a6 01       	movw	r20, r12
    3872:	95 01       	movw	r18, r10
    3874:	0e 94 59 2b 	call	0x56b2	; 0x56b2 <__udivmodsi4>
    3878:	8b 81       	ldd	r24, Y+3	; 0x03
    387a:	9c 81       	ldd	r25, Y+4	; 0x04
    387c:	ad 81       	ldd	r26, Y+5	; 0x05
    387e:	be 81       	ldd	r27, Y+6	; 0x06
    3880:	82 17       	cp	r24, r18
    3882:	93 07       	cpc	r25, r19
    3884:	a4 07       	cpc	r26, r20
    3886:	b5 07       	cpc	r27, r21
    3888:	d0 f0       	brcs	.+52     	; 0x38be <f_lseek+0x148>
    388a:	88 27       	eor	r24, r24
    388c:	99 27       	eor	r25, r25
    388e:	dc 01       	movw	r26, r24
    3890:	8a 19       	sub	r24, r10
    3892:	9b 09       	sbc	r25, r11
    3894:	ac 09       	sbc	r26, r12
    3896:	bd 09       	sbc	r27, r13
    3898:	82 21       	and	r24, r2
    389a:	93 21       	and	r25, r3
    389c:	a4 21       	and	r26, r4
    389e:	b5 21       	and	r27, r5
    38a0:	ef 81       	ldd	r30, Y+7	; 0x07
    38a2:	f8 85       	ldd	r31, Y+8	; 0x08
    38a4:	86 83       	std	Z+6, r24	; 0x06
    38a6:	97 83       	std	Z+7, r25	; 0x07
    38a8:	a0 87       	std	Z+8, r26	; 0x08
    38aa:	b1 87       	std	Z+9, r27	; 0x09
    38ac:	68 1a       	sub	r6, r24
    38ae:	79 0a       	sbc	r7, r25
    38b0:	8a 0a       	sbc	r8, r26
    38b2:	9b 0a       	sbc	r9, r27
    38b4:	42 89       	ldd	r20, Z+18	; 0x12
    38b6:	53 89       	ldd	r21, Z+19	; 0x13
    38b8:	64 89       	ldd	r22, Z+20	; 0x14
    38ba:	75 89       	ldd	r23, Z+21	; 0x15
    38bc:	3a c0       	rjmp	.+116    	; 0x3932 <f_lseek+0x1bc>
    38be:	af 81       	ldd	r26, Y+7	; 0x07
    38c0:	b8 85       	ldd	r27, Y+8	; 0x08
    38c2:	1e 96       	adiw	r26, 0x0e	; 14
    38c4:	4d 91       	ld	r20, X+
    38c6:	5d 91       	ld	r21, X+
    38c8:	6d 91       	ld	r22, X+
    38ca:	7c 91       	ld	r23, X
    38cc:	51 97       	sbiw	r26, 0x11	; 17
    38ce:	41 15       	cp	r20, r1
    38d0:	51 05       	cpc	r21, r1
    38d2:	61 05       	cpc	r22, r1
    38d4:	71 05       	cpc	r23, r1
    38d6:	29 f5       	brne	.+74     	; 0x3922 <f_lseek+0x1ac>
    38d8:	89 81       	ldd	r24, Y+1	; 0x01
    38da:	9a 81       	ldd	r25, Y+2	; 0x02
    38dc:	40 e0       	ldi	r20, 0x00	; 0
    38de:	50 e0       	ldi	r21, 0x00	; 0
    38e0:	60 e0       	ldi	r22, 0x00	; 0
    38e2:	70 e0       	ldi	r23, 0x00	; 0
    38e4:	0e 94 b7 0f 	call	0x1f6e	; 0x1f6e <create_chain>
    38e8:	ab 01       	movw	r20, r22
    38ea:	bc 01       	movw	r22, r24
    38ec:	41 30       	cpi	r20, 0x01	; 1
    38ee:	51 05       	cpc	r21, r1
    38f0:	61 05       	cpc	r22, r1
    38f2:	71 05       	cpc	r23, r1
    38f4:	41 f4       	brne	.+16     	; 0x3906 <f_lseek+0x190>
    38f6:	ef 81       	ldd	r30, Y+7	; 0x07
    38f8:	f8 85       	ldd	r31, Y+8	; 0x08
    38fa:	84 81       	ldd	r24, Z+4	; 0x04
    38fc:	80 68       	ori	r24, 0x80	; 128
    38fe:	84 83       	std	Z+4, r24	; 0x04
    3900:	f2 e0       	ldi	r31, 0x02	; 2
    3902:	ef 2e       	mov	r14, r31
    3904:	49 c1       	rjmp	.+658    	; 0x3b98 <f_lseek+0x422>
    3906:	4f 3f       	cpi	r20, 0xFF	; 255
    3908:	ff ef       	ldi	r31, 0xFF	; 255
    390a:	5f 07       	cpc	r21, r31
    390c:	ff ef       	ldi	r31, 0xFF	; 255
    390e:	6f 07       	cpc	r22, r31
    3910:	ff ef       	ldi	r31, 0xFF	; 255
    3912:	7f 07       	cpc	r23, r31
    3914:	b1 f1       	breq	.+108    	; 0x3982 <f_lseek+0x20c>
    3916:	ef 81       	ldd	r30, Y+7	; 0x07
    3918:	f8 85       	ldd	r31, Y+8	; 0x08
    391a:	46 87       	std	Z+14, r20	; 0x0e
    391c:	57 87       	std	Z+15, r21	; 0x0f
    391e:	60 8b       	std	Z+16, r22	; 0x10
    3920:	71 8b       	std	Z+17, r23	; 0x11
    3922:	af 81       	ldd	r26, Y+7	; 0x07
    3924:	b8 85       	ldd	r27, Y+8	; 0x08
    3926:	52 96       	adiw	r26, 0x12	; 18
    3928:	4d 93       	st	X+, r20
    392a:	5d 93       	st	X+, r21
    392c:	6d 93       	st	X+, r22
    392e:	7c 93       	st	X, r23
    3930:	55 97       	sbiw	r26, 0x15	; 21
    3932:	41 15       	cp	r20, r1
    3934:	51 05       	cpc	r21, r1
    3936:	61 05       	cpc	r22, r1
    3938:	71 05       	cpc	r23, r1
    393a:	09 f0       	breq	.+2      	; 0x393e <f_lseek+0x1c8>
    393c:	58 c0       	rjmp	.+176    	; 0x39ee <f_lseek+0x278>
    393e:	bf c0       	rjmp	.+382    	; 0x3abe <f_lseek+0x348>
    3940:	ef 81       	ldd	r30, Y+7	; 0x07
    3942:	f8 85       	ldd	r31, Y+8	; 0x08
    3944:	84 81       	ldd	r24, Z+4	; 0x04
    3946:	20 81       	ld	r18, Z
    3948:	31 81       	ldd	r19, Z+1	; 0x01
    394a:	81 ff       	sbrs	r24, 1
    394c:	0d c0       	rjmp	.+26     	; 0x3968 <f_lseek+0x1f2>
    394e:	c9 01       	movw	r24, r18
    3950:	0e 94 b7 0f 	call	0x1f6e	; 0x1f6e <create_chain>
    3954:	ab 01       	movw	r20, r22
    3956:	bc 01       	movw	r22, r24
    3958:	41 15       	cp	r20, r1
    395a:	51 05       	cpc	r21, r1
    395c:	61 05       	cpc	r22, r1
    395e:	71 05       	cpc	r23, r1
    3960:	41 f4       	brne	.+16     	; 0x3972 <f_lseek+0x1fc>
    3962:	35 01       	movw	r6, r10
    3964:	46 01       	movw	r8, r12
    3966:	49 c0       	rjmp	.+146    	; 0x39fa <f_lseek+0x284>
    3968:	c9 01       	movw	r24, r18
    396a:	0e 94 e8 0d 	call	0x1bd0	; 0x1bd0 <get_fat>
    396e:	ab 01       	movw	r20, r22
    3970:	bc 01       	movw	r22, r24
    3972:	4f 3f       	cpi	r20, 0xFF	; 255
    3974:	ff ef       	ldi	r31, 0xFF	; 255
    3976:	5f 07       	cpc	r21, r31
    3978:	ff ef       	ldi	r31, 0xFF	; 255
    397a:	6f 07       	cpc	r22, r31
    397c:	ff ef       	ldi	r31, 0xFF	; 255
    397e:	7f 07       	cpc	r23, r31
    3980:	49 f4       	brne	.+18     	; 0x3994 <f_lseek+0x21e>
    3982:	af 81       	ldd	r26, Y+7	; 0x07
    3984:	b8 85       	ldd	r27, Y+8	; 0x08
    3986:	14 96       	adiw	r26, 0x04	; 4
    3988:	8c 91       	ld	r24, X
    398a:	14 97       	sbiw	r26, 0x04	; 4
    398c:	80 68       	ori	r24, 0x80	; 128
    398e:	14 96       	adiw	r26, 0x04	; 4
    3990:	8c 93       	st	X, r24
    3992:	e1 c0       	rjmp	.+450    	; 0x3b56 <f_lseek+0x3e0>
    3994:	42 30       	cpi	r20, 0x02	; 2
    3996:	51 05       	cpc	r21, r1
    3998:	61 05       	cpc	r22, r1
    399a:	71 05       	cpc	r23, r1
    399c:	08 f4       	brcc	.+2      	; 0x39a0 <f_lseek+0x22a>
    399e:	ab cf       	rjmp	.-170    	; 0x38f6 <f_lseek+0x180>
    39a0:	af 81       	ldd	r26, Y+7	; 0x07
    39a2:	b8 85       	ldd	r27, Y+8	; 0x08
    39a4:	ed 91       	ld	r30, X+
    39a6:	fc 91       	ld	r31, X
    39a8:	86 89       	ldd	r24, Z+22	; 0x16
    39aa:	97 89       	ldd	r25, Z+23	; 0x17
    39ac:	a0 8d       	ldd	r26, Z+24	; 0x18
    39ae:	b1 8d       	ldd	r27, Z+25	; 0x19
    39b0:	48 17       	cp	r20, r24
    39b2:	59 07       	cpc	r21, r25
    39b4:	6a 07       	cpc	r22, r26
    39b6:	7b 07       	cpc	r23, r27
    39b8:	08 f0       	brcs	.+2      	; 0x39bc <f_lseek+0x246>
    39ba:	9d cf       	rjmp	.-198    	; 0x38f6 <f_lseek+0x180>
    39bc:	af 81       	ldd	r26, Y+7	; 0x07
    39be:	b8 85       	ldd	r27, Y+8	; 0x08
    39c0:	52 96       	adiw	r26, 0x12	; 18
    39c2:	4d 93       	st	X+, r20
    39c4:	5d 93       	st	X+, r21
    39c6:	6d 93       	st	X+, r22
    39c8:	7c 93       	st	X, r23
    39ca:	55 97       	sbiw	r26, 0x15	; 21
    39cc:	fd 01       	movw	r30, r26
    39ce:	86 81       	ldd	r24, Z+6	; 0x06
    39d0:	97 81       	ldd	r25, Z+7	; 0x07
    39d2:	a0 85       	ldd	r26, Z+8	; 0x08
    39d4:	b1 85       	ldd	r27, Z+9	; 0x09
    39d6:	8a 0d       	add	r24, r10
    39d8:	9b 1d       	adc	r25, r11
    39da:	ac 1d       	adc	r26, r12
    39dc:	bd 1d       	adc	r27, r13
    39de:	86 83       	std	Z+6, r24	; 0x06
    39e0:	97 83       	std	Z+7, r25	; 0x07
    39e2:	a0 87       	std	Z+8, r26	; 0x08
    39e4:	b1 87       	std	Z+9, r27	; 0x09
    39e6:	6a 18       	sub	r6, r10
    39e8:	7b 08       	sbc	r7, r11
    39ea:	8c 08       	sbc	r8, r12
    39ec:	9d 08       	sbc	r9, r13
    39ee:	a6 14       	cp	r10, r6
    39f0:	b7 04       	cpc	r11, r7
    39f2:	c8 04       	cpc	r12, r8
    39f4:	d9 04       	cpc	r13, r9
    39f6:	08 f4       	brcc	.+2      	; 0x39fa <f_lseek+0x284>
    39f8:	a3 cf       	rjmp	.-186    	; 0x3940 <f_lseek+0x1ca>
    39fa:	ef 81       	ldd	r30, Y+7	; 0x07
    39fc:	f8 85       	ldd	r31, Y+8	; 0x08
    39fe:	86 81       	ldd	r24, Z+6	; 0x06
    3a00:	97 81       	ldd	r25, Z+7	; 0x07
    3a02:	a0 85       	ldd	r26, Z+8	; 0x08
    3a04:	b1 85       	ldd	r27, Z+9	; 0x09
    3a06:	86 0d       	add	r24, r6
    3a08:	97 1d       	adc	r25, r7
    3a0a:	a8 1d       	adc	r26, r8
    3a0c:	b9 1d       	adc	r27, r9
    3a0e:	86 83       	std	Z+6, r24	; 0x06
    3a10:	97 83       	std	Z+7, r25	; 0x07
    3a12:	a0 87       	std	Z+8, r26	; 0x08
    3a14:	b1 87       	std	Z+9, r27	; 0x09
    3a16:	d4 01       	movw	r26, r8
    3a18:	c3 01       	movw	r24, r6
    3a1a:	91 70       	andi	r25, 0x01	; 1
    3a1c:	a0 70       	andi	r26, 0x00	; 0
    3a1e:	b0 70       	andi	r27, 0x00	; 0
    3a20:	00 97       	sbiw	r24, 0x00	; 0
    3a22:	a1 05       	cpc	r26, r1
    3a24:	b1 05       	cpc	r27, r1
    3a26:	09 f4       	brne	.+2      	; 0x3a2a <f_lseek+0x2b4>
    3a28:	4a c0       	rjmp	.+148    	; 0x3abe <f_lseek+0x348>
    3a2a:	00 81       	ld	r16, Z
    3a2c:	11 81       	ldd	r17, Z+1	; 0x01
    3a2e:	ee ef       	ldi	r30, 0xFE	; 254
    3a30:	ae 2e       	mov	r10, r30
    3a32:	ef ef       	ldi	r30, 0xFF	; 255
    3a34:	be 2e       	mov	r11, r30
    3a36:	ef ef       	ldi	r30, 0xFF	; 255
    3a38:	ce 2e       	mov	r12, r30
    3a3a:	ef ef       	ldi	r30, 0xFF	; 255
    3a3c:	de 2e       	mov	r13, r30
    3a3e:	a4 0e       	add	r10, r20
    3a40:	b5 1e       	adc	r11, r21
    3a42:	c6 1e       	adc	r12, r22
    3a44:	d7 1e       	adc	r13, r23
    3a46:	f8 01       	movw	r30, r16
    3a48:	86 89       	ldd	r24, Z+22	; 0x16
    3a4a:	97 89       	ldd	r25, Z+23	; 0x17
    3a4c:	a0 8d       	ldd	r26, Z+24	; 0x18
    3a4e:	b1 8d       	ldd	r27, Z+25	; 0x19
    3a50:	02 97       	sbiw	r24, 0x02	; 2
    3a52:	a1 09       	sbc	r26, r1
    3a54:	b1 09       	sbc	r27, r1
    3a56:	a8 16       	cp	r10, r24
    3a58:	b9 06       	cpc	r11, r25
    3a5a:	ca 06       	cpc	r12, r26
    3a5c:	db 06       	cpc	r13, r27
    3a5e:	c0 f4       	brcc	.+48     	; 0x3a90 <f_lseek+0x31a>
    3a60:	22 81       	ldd	r18, Z+2	; 0x02
    3a62:	30 e0       	ldi	r19, 0x00	; 0
    3a64:	40 e0       	ldi	r20, 0x00	; 0
    3a66:	50 e0       	ldi	r21, 0x00	; 0
    3a68:	c6 01       	movw	r24, r12
    3a6a:	b5 01       	movw	r22, r10
    3a6c:	0e 94 2e 2b 	call	0x565c	; 0x565c <__mulsi3>
    3a70:	9b 01       	movw	r18, r22
    3a72:	ac 01       	movw	r20, r24
    3a74:	f8 01       	movw	r30, r16
    3a76:	86 a1       	ldd	r24, Z+38	; 0x26
    3a78:	97 a1       	ldd	r25, Z+39	; 0x27
    3a7a:	a0 a5       	ldd	r26, Z+40	; 0x28
    3a7c:	b1 a5       	ldd	r27, Z+41	; 0x29
    3a7e:	28 0f       	add	r18, r24
    3a80:	39 1f       	adc	r19, r25
    3a82:	4a 1f       	adc	r20, r26
    3a84:	5b 1f       	adc	r21, r27
    3a86:	21 15       	cp	r18, r1
    3a88:	31 05       	cpc	r19, r1
    3a8a:	41 05       	cpc	r20, r1
    3a8c:	51 05       	cpc	r21, r1
    3a8e:	49 f4       	brne	.+18     	; 0x3aa2 <f_lseek+0x32c>
    3a90:	af 81       	ldd	r26, Y+7	; 0x07
    3a92:	b8 85       	ldd	r27, Y+8	; 0x08
    3a94:	14 96       	adiw	r26, 0x04	; 4
    3a96:	8c 91       	ld	r24, X
    3a98:	14 97       	sbiw	r26, 0x04	; 4
    3a9a:	80 68       	ori	r24, 0x80	; 128
    3a9c:	14 96       	adiw	r26, 0x04	; 4
    3a9e:	8c 93       	st	X, r24
    3aa0:	2f cf       	rjmp	.-418    	; 0x3900 <f_lseek+0x18a>
    3aa2:	64 01       	movw	r12, r8
    3aa4:	53 01       	movw	r10, r6
    3aa6:	79 e0       	ldi	r23, 0x09	; 9
    3aa8:	d6 94       	lsr	r13
    3aaa:	c7 94       	ror	r12
    3aac:	b7 94       	ror	r11
    3aae:	a7 94       	ror	r10
    3ab0:	7a 95       	dec	r23
    3ab2:	d1 f7       	brne	.-12     	; 0x3aa8 <f_lseek+0x332>
    3ab4:	a2 0e       	add	r10, r18
    3ab6:	b3 1e       	adc	r11, r19
    3ab8:	c4 1e       	adc	r12, r20
    3aba:	d5 1e       	adc	r13, r21
    3abc:	03 c0       	rjmp	.+6      	; 0x3ac4 <f_lseek+0x34e>
    3abe:	aa 24       	eor	r10, r10
    3ac0:	bb 24       	eor	r11, r11
    3ac2:	65 01       	movw	r12, r10
    3ac4:	ef 81       	ldd	r30, Y+7	; 0x07
    3ac6:	f8 85       	ldd	r31, Y+8	; 0x08
    3ac8:	86 81       	ldd	r24, Z+6	; 0x06
    3aca:	97 81       	ldd	r25, Z+7	; 0x07
    3acc:	a0 85       	ldd	r26, Z+8	; 0x08
    3ace:	b1 85       	ldd	r27, Z+9	; 0x09
    3ad0:	91 70       	andi	r25, 0x01	; 1
    3ad2:	a0 70       	andi	r26, 0x00	; 0
    3ad4:	b0 70       	andi	r27, 0x00	; 0
    3ad6:	00 97       	sbiw	r24, 0x00	; 0
    3ad8:	a1 05       	cpc	r26, r1
    3ada:	b1 05       	cpc	r27, r1
    3adc:	09 f4       	brne	.+2      	; 0x3ae0 <f_lseek+0x36a>
    3ade:	46 c0       	rjmp	.+140    	; 0x3b6c <f_lseek+0x3f6>
    3ae0:	26 89       	ldd	r18, Z+22	; 0x16
    3ae2:	37 89       	ldd	r19, Z+23	; 0x17
    3ae4:	40 8d       	ldd	r20, Z+24	; 0x18
    3ae6:	51 8d       	ldd	r21, Z+25	; 0x19
    3ae8:	a2 16       	cp	r10, r18
    3aea:	b3 06       	cpc	r11, r19
    3aec:	c4 06       	cpc	r12, r20
    3aee:	d5 06       	cpc	r13, r21
    3af0:	e9 f1       	breq	.+122    	; 0x3b6c <f_lseek+0x3f6>
    3af2:	84 81       	ldd	r24, Z+4	; 0x04
    3af4:	86 ff       	sbrs	r24, 6
    3af6:	1a c0       	rjmp	.+52     	; 0x3b2c <f_lseek+0x3b6>
    3af8:	01 90       	ld	r0, Z+
    3afa:	f0 81       	ld	r31, Z
    3afc:	e0 2d       	mov	r30, r0
    3afe:	6f 81       	ldd	r22, Y+7	; 0x07
    3b00:	78 85       	ldd	r23, Y+8	; 0x08
    3b02:	60 5e       	subi	r22, 0xE0	; 224
    3b04:	7f 4f       	sbci	r23, 0xFF	; 255
    3b06:	81 81       	ldd	r24, Z+1	; 0x01
    3b08:	01 e0       	ldi	r16, 0x01	; 1
    3b0a:	0e 94 5c 26 	call	0x4cb8	; 0x4cb8 <disk_write>
    3b0e:	af 81       	ldd	r26, Y+7	; 0x07
    3b10:	b8 85       	ldd	r27, Y+8	; 0x08
    3b12:	14 96       	adiw	r26, 0x04	; 4
    3b14:	9c 91       	ld	r25, X
    3b16:	14 97       	sbiw	r26, 0x04	; 4
    3b18:	88 23       	and	r24, r24
    3b1a:	21 f0       	breq	.+8      	; 0x3b24 <f_lseek+0x3ae>
    3b1c:	90 68       	ori	r25, 0x80	; 128
    3b1e:	14 96       	adiw	r26, 0x04	; 4
    3b20:	9c 93       	st	X, r25
    3b22:	19 c0       	rjmp	.+50     	; 0x3b56 <f_lseek+0x3e0>
    3b24:	9f 7b       	andi	r25, 0xBF	; 191
    3b26:	ef 81       	ldd	r30, Y+7	; 0x07
    3b28:	f8 85       	ldd	r31, Y+8	; 0x08
    3b2a:	94 83       	std	Z+4, r25	; 0x04
    3b2c:	af 81       	ldd	r26, Y+7	; 0x07
    3b2e:	b8 85       	ldd	r27, Y+8	; 0x08
    3b30:	ed 91       	ld	r30, X+
    3b32:	fc 91       	ld	r31, X
    3b34:	11 97       	sbiw	r26, 0x01	; 1
    3b36:	bd 01       	movw	r22, r26
    3b38:	60 5e       	subi	r22, 0xE0	; 224
    3b3a:	7f 4f       	sbci	r23, 0xFF	; 255
    3b3c:	81 81       	ldd	r24, Z+1	; 0x01
    3b3e:	a6 01       	movw	r20, r12
    3b40:	95 01       	movw	r18, r10
    3b42:	01 e0       	ldi	r16, 0x01	; 1
    3b44:	0e 94 04 26 	call	0x4c08	; 0x4c08 <disk_read>
    3b48:	88 23       	and	r24, r24
    3b4a:	41 f0       	breq	.+16     	; 0x3b5c <f_lseek+0x3e6>
    3b4c:	ef 81       	ldd	r30, Y+7	; 0x07
    3b4e:	f8 85       	ldd	r31, Y+8	; 0x08
    3b50:	84 81       	ldd	r24, Z+4	; 0x04
    3b52:	80 68       	ori	r24, 0x80	; 128
    3b54:	84 83       	std	Z+4, r24	; 0x04
    3b56:	ee 24       	eor	r14, r14
    3b58:	e3 94       	inc	r14
    3b5a:	1e c0       	rjmp	.+60     	; 0x3b98 <f_lseek+0x422>
    3b5c:	af 81       	ldd	r26, Y+7	; 0x07
    3b5e:	b8 85       	ldd	r27, Y+8	; 0x08
    3b60:	56 96       	adiw	r26, 0x16	; 22
    3b62:	ad 92       	st	X+, r10
    3b64:	bd 92       	st	X+, r11
    3b66:	cd 92       	st	X+, r12
    3b68:	dc 92       	st	X, r13
    3b6a:	59 97       	sbiw	r26, 0x19	; 25
    3b6c:	ef 81       	ldd	r30, Y+7	; 0x07
    3b6e:	f8 85       	ldd	r31, Y+8	; 0x08
    3b70:	26 81       	ldd	r18, Z+6	; 0x06
    3b72:	37 81       	ldd	r19, Z+7	; 0x07
    3b74:	40 85       	ldd	r20, Z+8	; 0x08
    3b76:	51 85       	ldd	r21, Z+9	; 0x09
    3b78:	82 85       	ldd	r24, Z+10	; 0x0a
    3b7a:	93 85       	ldd	r25, Z+11	; 0x0b
    3b7c:	a4 85       	ldd	r26, Z+12	; 0x0c
    3b7e:	b5 85       	ldd	r27, Z+13	; 0x0d
    3b80:	82 17       	cp	r24, r18
    3b82:	93 07       	cpc	r25, r19
    3b84:	a4 07       	cpc	r26, r20
    3b86:	b5 07       	cpc	r27, r21
    3b88:	38 f4       	brcc	.+14     	; 0x3b98 <f_lseek+0x422>
    3b8a:	22 87       	std	Z+10, r18	; 0x0a
    3b8c:	33 87       	std	Z+11, r19	; 0x0b
    3b8e:	44 87       	std	Z+12, r20	; 0x0c
    3b90:	55 87       	std	Z+13, r21	; 0x0d
    3b92:	84 81       	ldd	r24, Z+4	; 0x04
    3b94:	80 62       	ori	r24, 0x20	; 32
    3b96:	84 83       	std	Z+4, r24	; 0x04
    3b98:	8e 2d       	mov	r24, r14
    3b9a:	28 96       	adiw	r28, 0x08	; 8
    3b9c:	0f b6       	in	r0, 0x3f	; 63
    3b9e:	f8 94       	cli
    3ba0:	de bf       	out	0x3e, r29	; 62
    3ba2:	0f be       	out	0x3f, r0	; 63
    3ba4:	cd bf       	out	0x3d, r28	; 61
    3ba6:	cf 91       	pop	r28
    3ba8:	df 91       	pop	r29
    3baa:	1f 91       	pop	r17
    3bac:	0f 91       	pop	r16
    3bae:	ef 90       	pop	r14
    3bb0:	df 90       	pop	r13
    3bb2:	cf 90       	pop	r12
    3bb4:	bf 90       	pop	r11
    3bb6:	af 90       	pop	r10
    3bb8:	9f 90       	pop	r9
    3bba:	8f 90       	pop	r8
    3bbc:	7f 90       	pop	r7
    3bbe:	6f 90       	pop	r6
    3bc0:	5f 90       	pop	r5
    3bc2:	4f 90       	pop	r4
    3bc4:	3f 90       	pop	r3
    3bc6:	2f 90       	pop	r2
    3bc8:	08 95       	ret

00003bca <f_write>:
    3bca:	2f 92       	push	r2
    3bcc:	3f 92       	push	r3
    3bce:	5f 92       	push	r5
    3bd0:	6f 92       	push	r6
    3bd2:	7f 92       	push	r7
    3bd4:	8f 92       	push	r8
    3bd6:	9f 92       	push	r9
    3bd8:	af 92       	push	r10
    3bda:	bf 92       	push	r11
    3bdc:	cf 92       	push	r12
    3bde:	df 92       	push	r13
    3be0:	ef 92       	push	r14
    3be2:	ff 92       	push	r15
    3be4:	0f 93       	push	r16
    3be6:	1f 93       	push	r17
    3be8:	df 93       	push	r29
    3bea:	cf 93       	push	r28
    3bec:	00 d0       	rcall	.+0      	; 0x3bee <f_write+0x24>
    3bee:	00 d0       	rcall	.+0      	; 0x3bf0 <f_write+0x26>
    3bf0:	00 d0       	rcall	.+0      	; 0x3bf2 <f_write+0x28>
    3bf2:	cd b7       	in	r28, 0x3d	; 61
    3bf4:	de b7       	in	r29, 0x3e	; 62
    3bf6:	9e 83       	std	Y+6, r25	; 0x06
    3bf8:	8d 83       	std	Y+5, r24	; 0x05
    3bfa:	16 2f       	mov	r17, r22
    3bfc:	07 2f       	mov	r16, r23
    3bfe:	3a 01       	movw	r6, r20
    3c00:	3c 83       	std	Y+4, r19	; 0x04
    3c02:	2b 83       	std	Y+3, r18	; 0x03
    3c04:	d9 01       	movw	r26, r18
    3c06:	1d 92       	st	X+, r1
    3c08:	1c 92       	st	X, r1
    3c0a:	fc 01       	movw	r30, r24
    3c0c:	62 81       	ldd	r22, Z+2	; 0x02
    3c0e:	73 81       	ldd	r23, Z+3	; 0x03
    3c10:	80 81       	ld	r24, Z
    3c12:	91 81       	ldd	r25, Z+1	; 0x01
    3c14:	0e 94 b4 08 	call	0x1168	; 0x1168 <validate>
    3c18:	58 2e       	mov	r5, r24
    3c1a:	88 23       	and	r24, r24
    3c1c:	09 f0       	breq	.+2      	; 0x3c20 <f_write+0x56>
    3c1e:	eb c1       	rjmp	.+982    	; 0x3ff6 <f_write+0x42c>
    3c20:	ad 81       	ldd	r26, Y+5	; 0x05
    3c22:	be 81       	ldd	r27, Y+6	; 0x06
    3c24:	14 96       	adiw	r26, 0x04	; 4
    3c26:	8c 91       	ld	r24, X
    3c28:	87 fd       	sbrc	r24, 7
    3c2a:	83 c0       	rjmp	.+262    	; 0x3d32 <f_write+0x168>
    3c2c:	81 fd       	sbrc	r24, 1
    3c2e:	03 c0       	rjmp	.+6      	; 0x3c36 <f_write+0x6c>
    3c30:	77 e0       	ldi	r23, 0x07	; 7
    3c32:	57 2e       	mov	r5, r23
    3c34:	e0 c1       	rjmp	.+960    	; 0x3ff6 <f_write+0x42c>
    3c36:	ed 81       	ldd	r30, Y+5	; 0x05
    3c38:	fe 81       	ldd	r31, Y+6	; 0x06
    3c3a:	22 85       	ldd	r18, Z+10	; 0x0a
    3c3c:	33 85       	ldd	r19, Z+11	; 0x0b
    3c3e:	44 85       	ldd	r20, Z+12	; 0x0c
    3c40:	55 85       	ldd	r21, Z+13	; 0x0d
    3c42:	c3 01       	movw	r24, r6
    3c44:	a0 e0       	ldi	r26, 0x00	; 0
    3c46:	b0 e0       	ldi	r27, 0x00	; 0
    3c48:	82 0f       	add	r24, r18
    3c4a:	93 1f       	adc	r25, r19
    3c4c:	a4 1f       	adc	r26, r20
    3c4e:	b5 1f       	adc	r27, r21
    3c50:	82 17       	cp	r24, r18
    3c52:	93 07       	cpc	r25, r19
    3c54:	a4 07       	cpc	r26, r20
    3c56:	b5 07       	cpc	r27, r21
    3c58:	10 f4       	brcc	.+4      	; 0x3c5e <f_write+0x94>
    3c5a:	66 24       	eor	r6, r6
    3c5c:	77 24       	eor	r7, r7
    3c5e:	81 2f       	mov	r24, r17
    3c60:	90 2f       	mov	r25, r16
    3c62:	9c 01       	movw	r18, r24
    3c64:	19 01       	movw	r2, r18
    3c66:	2d 81       	ldd	r18, Y+5	; 0x05
    3c68:	3e 81       	ldd	r19, Y+6	; 0x06
    3c6a:	20 5e       	subi	r18, 0xE0	; 224
    3c6c:	3f 4f       	sbci	r19, 0xFF	; 255
    3c6e:	3a 83       	std	Y+2, r19	; 0x02
    3c70:	29 83       	std	Y+1, r18	; 0x01
    3c72:	9c c1       	rjmp	.+824    	; 0x3fac <f_write+0x3e2>
    3c74:	ad 81       	ldd	r26, Y+5	; 0x05
    3c76:	be 81       	ldd	r27, Y+6	; 0x06
    3c78:	16 96       	adiw	r26, 0x06	; 6
    3c7a:	2d 91       	ld	r18, X+
    3c7c:	3d 91       	ld	r19, X+
    3c7e:	4d 91       	ld	r20, X+
    3c80:	5c 91       	ld	r21, X
    3c82:	19 97       	sbiw	r26, 0x09	; 9
    3c84:	da 01       	movw	r26, r20
    3c86:	c9 01       	movw	r24, r18
    3c88:	91 70       	andi	r25, 0x01	; 1
    3c8a:	a0 70       	andi	r26, 0x00	; 0
    3c8c:	b0 70       	andi	r27, 0x00	; 0
    3c8e:	00 97       	sbiw	r24, 0x00	; 0
    3c90:	a1 05       	cpc	r26, r1
    3c92:	b1 05       	cpc	r27, r1
    3c94:	09 f0       	breq	.+2      	; 0x3c98 <f_write+0xce>
    3c96:	4c c1       	rjmp	.+664    	; 0x3f30 <f_write+0x366>
    3c98:	ad 81       	ldd	r26, Y+5	; 0x05
    3c9a:	be 81       	ldd	r27, Y+6	; 0x06
    3c9c:	ed 91       	ld	r30, X+
    3c9e:	fc 91       	ld	r31, X
    3ca0:	da 01       	movw	r26, r20
    3ca2:	c9 01       	movw	r24, r18
    3ca4:	69 e0       	ldi	r22, 0x09	; 9
    3ca6:	b6 95       	lsr	r27
    3ca8:	a7 95       	ror	r26
    3caa:	97 95       	ror	r25
    3cac:	87 95       	ror	r24
    3cae:	6a 95       	dec	r22
    3cb0:	d1 f7       	brne	.-12     	; 0x3ca6 <f_write+0xdc>
    3cb2:	92 80       	ldd	r9, Z+2	; 0x02
    3cb4:	9a 94       	dec	r9
    3cb6:	98 22       	and	r9, r24
    3cb8:	09 f0       	breq	.+2      	; 0x3cbc <f_write+0xf2>
    3cba:	4d c0       	rjmp	.+154    	; 0x3d56 <f_write+0x18c>
    3cbc:	21 15       	cp	r18, r1
    3cbe:	31 05       	cpc	r19, r1
    3cc0:	41 05       	cpc	r20, r1
    3cc2:	51 05       	cpc	r21, r1
    3cc4:	d9 f4       	brne	.+54     	; 0x3cfc <f_write+0x132>
    3cc6:	ad 81       	ldd	r26, Y+5	; 0x05
    3cc8:	be 81       	ldd	r27, Y+6	; 0x06
    3cca:	1e 96       	adiw	r26, 0x0e	; 14
    3ccc:	6d 91       	ld	r22, X+
    3cce:	7d 91       	ld	r23, X+
    3cd0:	8d 91       	ld	r24, X+
    3cd2:	9c 91       	ld	r25, X
    3cd4:	51 97       	sbiw	r26, 0x11	; 17
    3cd6:	61 15       	cp	r22, r1
    3cd8:	71 05       	cpc	r23, r1
    3cda:	81 05       	cpc	r24, r1
    3cdc:	91 05       	cpc	r25, r1
    3cde:	f9 f4       	brne	.+62     	; 0x3d1e <f_write+0x154>
    3ce0:	cf 01       	movw	r24, r30
    3ce2:	40 e0       	ldi	r20, 0x00	; 0
    3ce4:	50 e0       	ldi	r21, 0x00	; 0
    3ce6:	60 e0       	ldi	r22, 0x00	; 0
    3ce8:	70 e0       	ldi	r23, 0x00	; 0
    3cea:	0e 94 b7 0f 	call	0x1f6e	; 0x1f6e <create_chain>
    3cee:	ed 81       	ldd	r30, Y+5	; 0x05
    3cf0:	fe 81       	ldd	r31, Y+6	; 0x06
    3cf2:	66 87       	std	Z+14, r22	; 0x0e
    3cf4:	77 87       	std	Z+15, r23	; 0x0f
    3cf6:	80 8b       	std	Z+16, r24	; 0x10
    3cf8:	91 8b       	std	Z+17, r25	; 0x11
    3cfa:	0b c0       	rjmp	.+22     	; 0x3d12 <f_write+0x148>
    3cfc:	ad 81       	ldd	r26, Y+5	; 0x05
    3cfe:	be 81       	ldd	r27, Y+6	; 0x06
    3d00:	52 96       	adiw	r26, 0x12	; 18
    3d02:	4d 91       	ld	r20, X+
    3d04:	5d 91       	ld	r21, X+
    3d06:	6d 91       	ld	r22, X+
    3d08:	7c 91       	ld	r23, X
    3d0a:	55 97       	sbiw	r26, 0x15	; 21
    3d0c:	cf 01       	movw	r24, r30
    3d0e:	0e 94 b7 0f 	call	0x1f6e	; 0x1f6e <create_chain>
    3d12:	61 15       	cp	r22, r1
    3d14:	71 05       	cpc	r23, r1
    3d16:	81 05       	cpc	r24, r1
    3d18:	91 05       	cpc	r25, r1
    3d1a:	09 f4       	brne	.+2      	; 0x3d1e <f_write+0x154>
    3d1c:	4b c1       	rjmp	.+662    	; 0x3fb4 <f_write+0x3ea>
    3d1e:	61 30       	cpi	r22, 0x01	; 1
    3d20:	71 05       	cpc	r23, r1
    3d22:	81 05       	cpc	r24, r1
    3d24:	91 05       	cpc	r25, r1
    3d26:	41 f4       	brne	.+16     	; 0x3d38 <f_write+0x16e>
    3d28:	ed 81       	ldd	r30, Y+5	; 0x05
    3d2a:	fe 81       	ldd	r31, Y+6	; 0x06
    3d2c:	84 81       	ldd	r24, Z+4	; 0x04
    3d2e:	80 68       	ori	r24, 0x80	; 128
    3d30:	84 83       	std	Z+4, r24	; 0x04
    3d32:	92 e0       	ldi	r25, 0x02	; 2
    3d34:	59 2e       	mov	r5, r25
    3d36:	5f c1       	rjmp	.+702    	; 0x3ff6 <f_write+0x42c>
    3d38:	6f 3f       	cpi	r22, 0xFF	; 255
    3d3a:	ff ef       	ldi	r31, 0xFF	; 255
    3d3c:	7f 07       	cpc	r23, r31
    3d3e:	ff ef       	ldi	r31, 0xFF	; 255
    3d40:	8f 07       	cpc	r24, r31
    3d42:	ff ef       	ldi	r31, 0xFF	; 255
    3d44:	9f 07       	cpc	r25, r31
    3d46:	09 f4       	brne	.+2      	; 0x3d4a <f_write+0x180>
    3d48:	87 c0       	rjmp	.+270    	; 0x3e58 <f_write+0x28e>
    3d4a:	ed 81       	ldd	r30, Y+5	; 0x05
    3d4c:	fe 81       	ldd	r31, Y+6	; 0x06
    3d4e:	62 8b       	std	Z+18, r22	; 0x12
    3d50:	73 8b       	std	Z+19, r23	; 0x13
    3d52:	84 8b       	std	Z+20, r24	; 0x14
    3d54:	95 8b       	std	Z+21, r25	; 0x15
    3d56:	ad 81       	ldd	r26, Y+5	; 0x05
    3d58:	be 81       	ldd	r27, Y+6	; 0x06
    3d5a:	14 96       	adiw	r26, 0x04	; 4
    3d5c:	8c 91       	ld	r24, X
    3d5e:	14 97       	sbiw	r26, 0x04	; 4
    3d60:	86 ff       	sbrs	r24, 6
    3d62:	1c c0       	rjmp	.+56     	; 0x3d9c <f_write+0x1d2>
    3d64:	ed 91       	ld	r30, X+
    3d66:	fc 91       	ld	r31, X
    3d68:	11 97       	sbiw	r26, 0x01	; 1
    3d6a:	56 96       	adiw	r26, 0x16	; 22
    3d6c:	2d 91       	ld	r18, X+
    3d6e:	3d 91       	ld	r19, X+
    3d70:	4d 91       	ld	r20, X+
    3d72:	5c 91       	ld	r21, X
    3d74:	59 97       	sbiw	r26, 0x19	; 25
    3d76:	81 81       	ldd	r24, Z+1	; 0x01
    3d78:	69 81       	ldd	r22, Y+1	; 0x01
    3d7a:	7a 81       	ldd	r23, Y+2	; 0x02
    3d7c:	01 e0       	ldi	r16, 0x01	; 1
    3d7e:	0e 94 5c 26 	call	0x4cb8	; 0x4cb8 <disk_write>
    3d82:	ed 81       	ldd	r30, Y+5	; 0x05
    3d84:	fe 81       	ldd	r31, Y+6	; 0x06
    3d86:	94 81       	ldd	r25, Z+4	; 0x04
    3d88:	88 23       	and	r24, r24
    3d8a:	19 f0       	breq	.+6      	; 0x3d92 <f_write+0x1c8>
    3d8c:	90 68       	ori	r25, 0x80	; 128
    3d8e:	94 83       	std	Z+4, r25	; 0x04
    3d90:	c4 c0       	rjmp	.+392    	; 0x3f1a <f_write+0x350>
    3d92:	9f 7b       	andi	r25, 0xBF	; 191
    3d94:	ad 81       	ldd	r26, Y+5	; 0x05
    3d96:	be 81       	ldd	r27, Y+6	; 0x06
    3d98:	14 96       	adiw	r26, 0x04	; 4
    3d9a:	9c 93       	st	X, r25
    3d9c:	ed 81       	ldd	r30, Y+5	; 0x05
    3d9e:	fe 81       	ldd	r31, Y+6	; 0x06
    3da0:	00 81       	ld	r16, Z
    3da2:	11 81       	ldd	r17, Z+1	; 0x01
    3da4:	22 89       	ldd	r18, Z+18	; 0x12
    3da6:	33 89       	ldd	r19, Z+19	; 0x13
    3da8:	44 89       	ldd	r20, Z+20	; 0x14
    3daa:	55 89       	ldd	r21, Z+21	; 0x15
    3dac:	22 50       	subi	r18, 0x02	; 2
    3dae:	30 40       	sbci	r19, 0x00	; 0
    3db0:	40 40       	sbci	r20, 0x00	; 0
    3db2:	50 40       	sbci	r21, 0x00	; 0
    3db4:	f8 01       	movw	r30, r16
    3db6:	86 89       	ldd	r24, Z+22	; 0x16
    3db8:	97 89       	ldd	r25, Z+23	; 0x17
    3dba:	a0 8d       	ldd	r26, Z+24	; 0x18
    3dbc:	b1 8d       	ldd	r27, Z+25	; 0x19
    3dbe:	02 97       	sbiw	r24, 0x02	; 2
    3dc0:	a1 09       	sbc	r26, r1
    3dc2:	b1 09       	sbc	r27, r1
    3dc4:	28 17       	cp	r18, r24
    3dc6:	39 07       	cpc	r19, r25
    3dc8:	4a 07       	cpc	r20, r26
    3dca:	5b 07       	cpc	r21, r27
    3dcc:	b8 f4       	brcc	.+46     	; 0x3dfc <f_write+0x232>
    3dce:	82 80       	ldd	r8, Z+2	; 0x02
    3dd0:	68 2d       	mov	r22, r8
    3dd2:	70 e0       	ldi	r23, 0x00	; 0
    3dd4:	80 e0       	ldi	r24, 0x00	; 0
    3dd6:	90 e0       	ldi	r25, 0x00	; 0
    3dd8:	0e 94 2e 2b 	call	0x565c	; 0x565c <__mulsi3>
    3ddc:	9b 01       	movw	r18, r22
    3dde:	ac 01       	movw	r20, r24
    3de0:	f8 01       	movw	r30, r16
    3de2:	86 a1       	ldd	r24, Z+38	; 0x26
    3de4:	97 a1       	ldd	r25, Z+39	; 0x27
    3de6:	a0 a5       	ldd	r26, Z+40	; 0x28
    3de8:	b1 a5       	ldd	r27, Z+41	; 0x29
    3dea:	28 0f       	add	r18, r24
    3dec:	39 1f       	adc	r19, r25
    3dee:	4a 1f       	adc	r20, r26
    3df0:	5b 1f       	adc	r21, r27
    3df2:	21 15       	cp	r18, r1
    3df4:	31 05       	cpc	r19, r1
    3df6:	41 05       	cpc	r20, r1
    3df8:	51 05       	cpc	r21, r1
    3dfa:	49 f4       	brne	.+18     	; 0x3e0e <f_write+0x244>
    3dfc:	ad 81       	ldd	r26, Y+5	; 0x05
    3dfe:	be 81       	ldd	r27, Y+6	; 0x06
    3e00:	14 96       	adiw	r26, 0x04	; 4
    3e02:	8c 91       	ld	r24, X
    3e04:	14 97       	sbiw	r26, 0x04	; 4
    3e06:	80 68       	ori	r24, 0x80	; 128
    3e08:	14 96       	adiw	r26, 0x04	; 4
    3e0a:	8c 93       	st	X, r24
    3e0c:	92 cf       	rjmp	.-220    	; 0x3d32 <f_write+0x168>
    3e0e:	69 01       	movw	r12, r18
    3e10:	7a 01       	movw	r14, r20
    3e12:	c9 0c       	add	r12, r9
    3e14:	d1 1c       	adc	r13, r1
    3e16:	e1 1c       	adc	r14, r1
    3e18:	f1 1c       	adc	r15, r1
    3e1a:	53 01       	movw	r10, r6
    3e1c:	ab 2c       	mov	r10, r11
    3e1e:	bb 24       	eor	r11, r11
    3e20:	a6 94       	lsr	r10
    3e22:	a1 14       	cp	r10, r1
    3e24:	b1 04       	cpc	r11, r1
    3e26:	09 f4       	brne	.+2      	; 0x3e2a <f_write+0x260>
    3e28:	4f c0       	rjmp	.+158    	; 0x3ec8 <f_write+0x2fe>
    3e2a:	29 2d       	mov	r18, r9
    3e2c:	30 e0       	ldi	r19, 0x00	; 0
    3e2e:	c5 01       	movw	r24, r10
    3e30:	82 0f       	add	r24, r18
    3e32:	93 1f       	adc	r25, r19
    3e34:	68 2d       	mov	r22, r8
    3e36:	70 e0       	ldi	r23, 0x00	; 0
    3e38:	68 17       	cp	r22, r24
    3e3a:	79 07       	cpc	r23, r25
    3e3c:	18 f4       	brcc	.+6      	; 0x3e44 <f_write+0x27a>
    3e3e:	5b 01       	movw	r10, r22
    3e40:	a2 1a       	sub	r10, r18
    3e42:	b3 0a       	sbc	r11, r19
    3e44:	f8 01       	movw	r30, r16
    3e46:	81 81       	ldd	r24, Z+1	; 0x01
    3e48:	b1 01       	movw	r22, r2
    3e4a:	a7 01       	movw	r20, r14
    3e4c:	96 01       	movw	r18, r12
    3e4e:	0a 2d       	mov	r16, r10
    3e50:	0e 94 5c 26 	call	0x4cb8	; 0x4cb8 <disk_write>
    3e54:	88 23       	and	r24, r24
    3e56:	49 f0       	breq	.+18     	; 0x3e6a <f_write+0x2a0>
    3e58:	ad 81       	ldd	r26, Y+5	; 0x05
    3e5a:	be 81       	ldd	r27, Y+6	; 0x06
    3e5c:	14 96       	adiw	r26, 0x04	; 4
    3e5e:	8c 91       	ld	r24, X
    3e60:	14 97       	sbiw	r26, 0x04	; 4
    3e62:	80 68       	ori	r24, 0x80	; 128
    3e64:	14 96       	adiw	r26, 0x04	; 4
    3e66:	8c 93       	st	X, r24
    3e68:	58 c0       	rjmp	.+176    	; 0x3f1a <f_write+0x350>
    3e6a:	ed 81       	ldd	r30, Y+5	; 0x05
    3e6c:	fe 81       	ldd	r31, Y+6	; 0x06
    3e6e:	26 89       	ldd	r18, Z+22	; 0x16
    3e70:	37 89       	ldd	r19, Z+23	; 0x17
    3e72:	40 8d       	ldd	r20, Z+24	; 0x18
    3e74:	51 8d       	ldd	r21, Z+25	; 0x19
    3e76:	2c 19       	sub	r18, r12
    3e78:	3d 09       	sbc	r19, r13
    3e7a:	4e 09       	sbc	r20, r14
    3e7c:	5f 09       	sbc	r21, r15
    3e7e:	c5 01       	movw	r24, r10
    3e80:	a0 e0       	ldi	r26, 0x00	; 0
    3e82:	b0 e0       	ldi	r27, 0x00	; 0
    3e84:	28 17       	cp	r18, r24
    3e86:	39 07       	cpc	r19, r25
    3e88:	4a 07       	cpc	r20, r26
    3e8a:	5b 07       	cpc	r21, r27
    3e8c:	c0 f4       	brcc	.+48     	; 0x3ebe <f_write+0x2f4>
    3e8e:	19 e0       	ldi	r17, 0x09	; 9
    3e90:	22 0f       	add	r18, r18
    3e92:	33 1f       	adc	r19, r19
    3e94:	44 1f       	adc	r20, r20
    3e96:	55 1f       	adc	r21, r21
    3e98:	1a 95       	dec	r17
    3e9a:	d1 f7       	brne	.-12     	; 0x3e90 <f_write+0x2c6>
    3e9c:	b1 01       	movw	r22, r2
    3e9e:	62 0f       	add	r22, r18
    3ea0:	73 1f       	adc	r23, r19
    3ea2:	89 81       	ldd	r24, Y+1	; 0x01
    3ea4:	9a 81       	ldd	r25, Y+2	; 0x02
    3ea6:	40 e0       	ldi	r20, 0x00	; 0
    3ea8:	52 e0       	ldi	r21, 0x02	; 2
    3eaa:	0e 94 22 03 	call	0x644	; 0x644 <mem_cpy>
    3eae:	ad 81       	ldd	r26, Y+5	; 0x05
    3eb0:	be 81       	ldd	r27, Y+6	; 0x06
    3eb2:	14 96       	adiw	r26, 0x04	; 4
    3eb4:	8c 91       	ld	r24, X
    3eb6:	14 97       	sbiw	r26, 0x04	; 4
    3eb8:	8f 7b       	andi	r24, 0xBF	; 191
    3eba:	14 96       	adiw	r26, 0x04	; 4
    3ebc:	8c 93       	st	X, r24
    3ebe:	85 01       	movw	r16, r10
    3ec0:	10 2f       	mov	r17, r16
    3ec2:	00 27       	eor	r16, r16
    3ec4:	11 0f       	add	r17, r17
    3ec6:	55 c0       	rjmp	.+170    	; 0x3f72 <f_write+0x3a8>
    3ec8:	ed 81       	ldd	r30, Y+5	; 0x05
    3eca:	fe 81       	ldd	r31, Y+6	; 0x06
    3ecc:	86 89       	ldd	r24, Z+22	; 0x16
    3ece:	97 89       	ldd	r25, Z+23	; 0x17
    3ed0:	a0 8d       	ldd	r26, Z+24	; 0x18
    3ed2:	b1 8d       	ldd	r27, Z+25	; 0x19
    3ed4:	8c 15       	cp	r24, r12
    3ed6:	9d 05       	cpc	r25, r13
    3ed8:	ae 05       	cpc	r26, r14
    3eda:	bf 05       	cpc	r27, r15
    3edc:	09 f1       	breq	.+66     	; 0x3f20 <f_write+0x356>
    3ede:	26 81       	ldd	r18, Z+6	; 0x06
    3ee0:	37 81       	ldd	r19, Z+7	; 0x07
    3ee2:	40 85       	ldd	r20, Z+8	; 0x08
    3ee4:	51 85       	ldd	r21, Z+9	; 0x09
    3ee6:	82 85       	ldd	r24, Z+10	; 0x0a
    3ee8:	93 85       	ldd	r25, Z+11	; 0x0b
    3eea:	a4 85       	ldd	r26, Z+12	; 0x0c
    3eec:	b5 85       	ldd	r27, Z+13	; 0x0d
    3eee:	28 17       	cp	r18, r24
    3ef0:	39 07       	cpc	r19, r25
    3ef2:	4a 07       	cpc	r20, r26
    3ef4:	5b 07       	cpc	r21, r27
    3ef6:	a0 f4       	brcc	.+40     	; 0x3f20 <f_write+0x356>
    3ef8:	d8 01       	movw	r26, r16
    3efa:	11 96       	adiw	r26, 0x01	; 1
    3efc:	8c 91       	ld	r24, X
    3efe:	69 81       	ldd	r22, Y+1	; 0x01
    3f00:	7a 81       	ldd	r23, Y+2	; 0x02
    3f02:	a7 01       	movw	r20, r14
    3f04:	96 01       	movw	r18, r12
    3f06:	01 e0       	ldi	r16, 0x01	; 1
    3f08:	0e 94 04 26 	call	0x4c08	; 0x4c08 <disk_read>
    3f0c:	88 23       	and	r24, r24
    3f0e:	41 f0       	breq	.+16     	; 0x3f20 <f_write+0x356>
    3f10:	ed 81       	ldd	r30, Y+5	; 0x05
    3f12:	fe 81       	ldd	r31, Y+6	; 0x06
    3f14:	84 81       	ldd	r24, Z+4	; 0x04
    3f16:	80 68       	ori	r24, 0x80	; 128
    3f18:	84 83       	std	Z+4, r24	; 0x04
    3f1a:	55 24       	eor	r5, r5
    3f1c:	53 94       	inc	r5
    3f1e:	6b c0       	rjmp	.+214    	; 0x3ff6 <f_write+0x42c>
    3f20:	ad 81       	ldd	r26, Y+5	; 0x05
    3f22:	be 81       	ldd	r27, Y+6	; 0x06
    3f24:	56 96       	adiw	r26, 0x16	; 22
    3f26:	cd 92       	st	X+, r12
    3f28:	dd 92       	st	X+, r13
    3f2a:	ed 92       	st	X+, r14
    3f2c:	fc 92       	st	X, r15
    3f2e:	59 97       	sbiw	r26, 0x19	; 25
    3f30:	ed 81       	ldd	r30, Y+5	; 0x05
    3f32:	fe 81       	ldd	r31, Y+6	; 0x06
    3f34:	26 81       	ldd	r18, Z+6	; 0x06
    3f36:	37 81       	ldd	r19, Z+7	; 0x07
    3f38:	40 85       	ldd	r20, Z+8	; 0x08
    3f3a:	51 85       	ldd	r21, Z+9	; 0x09
    3f3c:	c9 01       	movw	r24, r18
    3f3e:	91 70       	andi	r25, 0x01	; 1
    3f40:	60 e0       	ldi	r22, 0x00	; 0
    3f42:	72 e0       	ldi	r23, 0x02	; 2
    3f44:	68 1b       	sub	r22, r24
    3f46:	79 0b       	sbc	r23, r25
    3f48:	83 01       	movw	r16, r6
    3f4a:	66 15       	cp	r22, r6
    3f4c:	77 05       	cpc	r23, r7
    3f4e:	08 f4       	brcc	.+2      	; 0x3f52 <f_write+0x388>
    3f50:	8b 01       	movw	r16, r22
    3f52:	c9 01       	movw	r24, r18
    3f54:	91 70       	andi	r25, 0x01	; 1
    3f56:	80 96       	adiw	r24, 0x20	; 32
    3f58:	ad 81       	ldd	r26, Y+5	; 0x05
    3f5a:	be 81       	ldd	r27, Y+6	; 0x06
    3f5c:	8a 0f       	add	r24, r26
    3f5e:	9b 1f       	adc	r25, r27
    3f60:	b1 01       	movw	r22, r2
    3f62:	a8 01       	movw	r20, r16
    3f64:	0e 94 22 03 	call	0x644	; 0x644 <mem_cpy>
    3f68:	ed 81       	ldd	r30, Y+5	; 0x05
    3f6a:	fe 81       	ldd	r31, Y+6	; 0x06
    3f6c:	84 81       	ldd	r24, Z+4	; 0x04
    3f6e:	80 64       	ori	r24, 0x40	; 64
    3f70:	84 83       	std	Z+4, r24	; 0x04
    3f72:	20 0e       	add	r2, r16
    3f74:	31 1e       	adc	r3, r17
    3f76:	c8 01       	movw	r24, r16
    3f78:	a0 e0       	ldi	r26, 0x00	; 0
    3f7a:	b0 e0       	ldi	r27, 0x00	; 0
    3f7c:	ed 81       	ldd	r30, Y+5	; 0x05
    3f7e:	fe 81       	ldd	r31, Y+6	; 0x06
    3f80:	26 81       	ldd	r18, Z+6	; 0x06
    3f82:	37 81       	ldd	r19, Z+7	; 0x07
    3f84:	40 85       	ldd	r20, Z+8	; 0x08
    3f86:	51 85       	ldd	r21, Z+9	; 0x09
    3f88:	28 0f       	add	r18, r24
    3f8a:	39 1f       	adc	r19, r25
    3f8c:	4a 1f       	adc	r20, r26
    3f8e:	5b 1f       	adc	r21, r27
    3f90:	26 83       	std	Z+6, r18	; 0x06
    3f92:	37 83       	std	Z+7, r19	; 0x07
    3f94:	40 87       	std	Z+8, r20	; 0x08
    3f96:	51 87       	std	Z+9, r21	; 0x09
    3f98:	eb 81       	ldd	r30, Y+3	; 0x03
    3f9a:	fc 81       	ldd	r31, Y+4	; 0x04
    3f9c:	80 81       	ld	r24, Z
    3f9e:	91 81       	ldd	r25, Z+1	; 0x01
    3fa0:	80 0f       	add	r24, r16
    3fa2:	91 1f       	adc	r25, r17
    3fa4:	91 83       	std	Z+1, r25	; 0x01
    3fa6:	80 83       	st	Z, r24
    3fa8:	60 1a       	sub	r6, r16
    3faa:	71 0a       	sbc	r7, r17
    3fac:	61 14       	cp	r6, r1
    3fae:	71 04       	cpc	r7, r1
    3fb0:	09 f0       	breq	.+2      	; 0x3fb4 <f_write+0x3ea>
    3fb2:	60 ce       	rjmp	.-832    	; 0x3c74 <f_write+0xaa>
    3fb4:	ad 81       	ldd	r26, Y+5	; 0x05
    3fb6:	be 81       	ldd	r27, Y+6	; 0x06
    3fb8:	16 96       	adiw	r26, 0x06	; 6
    3fba:	2d 91       	ld	r18, X+
    3fbc:	3d 91       	ld	r19, X+
    3fbe:	4d 91       	ld	r20, X+
    3fc0:	5c 91       	ld	r21, X
    3fc2:	19 97       	sbiw	r26, 0x09	; 9
    3fc4:	1a 96       	adiw	r26, 0x0a	; 10
    3fc6:	8d 91       	ld	r24, X+
    3fc8:	9d 91       	ld	r25, X+
    3fca:	0d 90       	ld	r0, X+
    3fcc:	bc 91       	ld	r27, X
    3fce:	a0 2d       	mov	r26, r0
    3fd0:	82 17       	cp	r24, r18
    3fd2:	93 07       	cpc	r25, r19
    3fd4:	a4 07       	cpc	r26, r20
    3fd6:	b5 07       	cpc	r27, r21
    3fd8:	30 f4       	brcc	.+12     	; 0x3fe6 <f_write+0x41c>
    3fda:	ed 81       	ldd	r30, Y+5	; 0x05
    3fdc:	fe 81       	ldd	r31, Y+6	; 0x06
    3fde:	22 87       	std	Z+10, r18	; 0x0a
    3fe0:	33 87       	std	Z+11, r19	; 0x0b
    3fe2:	44 87       	std	Z+12, r20	; 0x0c
    3fe4:	55 87       	std	Z+13, r21	; 0x0d
    3fe6:	ad 81       	ldd	r26, Y+5	; 0x05
    3fe8:	be 81       	ldd	r27, Y+6	; 0x06
    3fea:	14 96       	adiw	r26, 0x04	; 4
    3fec:	8c 91       	ld	r24, X
    3fee:	14 97       	sbiw	r26, 0x04	; 4
    3ff0:	80 62       	ori	r24, 0x20	; 32
    3ff2:	14 96       	adiw	r26, 0x04	; 4
    3ff4:	8c 93       	st	X, r24
    3ff6:	85 2d       	mov	r24, r5
    3ff8:	26 96       	adiw	r28, 0x06	; 6
    3ffa:	0f b6       	in	r0, 0x3f	; 63
    3ffc:	f8 94       	cli
    3ffe:	de bf       	out	0x3e, r29	; 62
    4000:	0f be       	out	0x3f, r0	; 63
    4002:	cd bf       	out	0x3d, r28	; 61
    4004:	cf 91       	pop	r28
    4006:	df 91       	pop	r29
    4008:	1f 91       	pop	r17
    400a:	0f 91       	pop	r16
    400c:	ff 90       	pop	r15
    400e:	ef 90       	pop	r14
    4010:	df 90       	pop	r13
    4012:	cf 90       	pop	r12
    4014:	bf 90       	pop	r11
    4016:	af 90       	pop	r10
    4018:	9f 90       	pop	r9
    401a:	8f 90       	pop	r8
    401c:	7f 90       	pop	r7
    401e:	6f 90       	pop	r6
    4020:	5f 90       	pop	r5
    4022:	3f 90       	pop	r3
    4024:	2f 90       	pop	r2
    4026:	08 95       	ret

00004028 <f_putc>:
    4028:	df 93       	push	r29
    402a:	cf 93       	push	r28
    402c:	00 d0       	rcall	.+0      	; 0x402e <f_putc+0x6>
    402e:	00 d0       	rcall	.+0      	; 0x4030 <f_putc+0x8>
    4030:	0f 92       	push	r0
    4032:	cd b7       	in	r28, 0x3d	; 61
    4034:	de b7       	in	r29, 0x3e	; 62
    4036:	8b 83       	std	Y+3, r24	; 0x03
    4038:	cb 01       	movw	r24, r22
    403a:	be 01       	movw	r22, r28
    403c:	6d 5f       	subi	r22, 0xFD	; 253
    403e:	7f 4f       	sbci	r23, 0xFF	; 255
    4040:	41 e0       	ldi	r20, 0x01	; 1
    4042:	50 e0       	ldi	r21, 0x00	; 0
    4044:	9e 01       	movw	r18, r28
    4046:	2f 5f       	subi	r18, 0xFF	; 255
    4048:	3f 4f       	sbci	r19, 0xFF	; 255
    404a:	0e 94 e5 1d 	call	0x3bca	; 0x3bca <f_write>
    404e:	89 81       	ldd	r24, Y+1	; 0x01
    4050:	9a 81       	ldd	r25, Y+2	; 0x02
    4052:	01 97       	sbiw	r24, 0x01	; 1
    4054:	19 f0       	breq	.+6      	; 0x405c <f_putc+0x34>
    4056:	2f ef       	ldi	r18, 0xFF	; 255
    4058:	3f ef       	ldi	r19, 0xFF	; 255
    405a:	02 c0       	rjmp	.+4      	; 0x4060 <f_putc+0x38>
    405c:	21 e0       	ldi	r18, 0x01	; 1
    405e:	30 e0       	ldi	r19, 0x00	; 0
    4060:	c9 01       	movw	r24, r18
    4062:	0f 90       	pop	r0
    4064:	0f 90       	pop	r0
    4066:	0f 90       	pop	r0
    4068:	0f 90       	pop	r0
    406a:	0f 90       	pop	r0
    406c:	cf 91       	pop	r28
    406e:	df 91       	pop	r29
    4070:	08 95       	ret

00004072 <f_puts>:
    4072:	ef 92       	push	r14
    4074:	ff 92       	push	r15
    4076:	0f 93       	push	r16
    4078:	1f 93       	push	r17
    407a:	cf 93       	push	r28
    407c:	df 93       	push	r29
    407e:	8c 01       	movw	r16, r24
    4080:	7b 01       	movw	r14, r22
    4082:	c0 e0       	ldi	r28, 0x00	; 0
    4084:	d0 e0       	ldi	r29, 0x00	; 0
    4086:	0c c0       	rjmp	.+24     	; 0x40a0 <f_puts+0x2e>
    4088:	b7 01       	movw	r22, r14
    408a:	0e 94 14 20 	call	0x4028	; 0x4028 <f_putc>
    408e:	8f 5f       	subi	r24, 0xFF	; 255
    4090:	9f 4f       	sbci	r25, 0xFF	; 255
    4092:	19 f4       	brne	.+6      	; 0x409a <f_puts+0x28>
    4094:	cf ef       	ldi	r28, 0xFF	; 255
    4096:	df ef       	ldi	r29, 0xFF	; 255
    4098:	07 c0       	rjmp	.+14     	; 0x40a8 <f_puts+0x36>
    409a:	0f 5f       	subi	r16, 0xFF	; 255
    409c:	1f 4f       	sbci	r17, 0xFF	; 255
    409e:	21 96       	adiw	r28, 0x01	; 1
    40a0:	f8 01       	movw	r30, r16
    40a2:	80 81       	ld	r24, Z
    40a4:	88 23       	and	r24, r24
    40a6:	81 f7       	brne	.-32     	; 0x4088 <f_puts+0x16>
    40a8:	ce 01       	movw	r24, r28
    40aa:	df 91       	pop	r29
    40ac:	cf 91       	pop	r28
    40ae:	1f 91       	pop	r17
    40b0:	0f 91       	pop	r16
    40b2:	ff 90       	pop	r15
    40b4:	ef 90       	pop	r14
    40b6:	08 95       	ret

000040b8 <f_printf>:
    40b8:	2f 92       	push	r2
    40ba:	3f 92       	push	r3
    40bc:	4f 92       	push	r4
    40be:	5f 92       	push	r5
    40c0:	6f 92       	push	r6
    40c2:	7f 92       	push	r7
    40c4:	8f 92       	push	r8
    40c6:	9f 92       	push	r9
    40c8:	af 92       	push	r10
    40ca:	bf 92       	push	r11
    40cc:	cf 92       	push	r12
    40ce:	df 92       	push	r13
    40d0:	ef 92       	push	r14
    40d2:	ff 92       	push	r15
    40d4:	0f 93       	push	r16
    40d6:	1f 93       	push	r17
    40d8:	df 93       	push	r29
    40da:	cf 93       	push	r28
    40dc:	cd b7       	in	r28, 0x3d	; 61
    40de:	de b7       	in	r29, 0x3e	; 62
    40e0:	63 97       	sbiw	r28, 0x13	; 19
    40e2:	0f b6       	in	r0, 0x3f	; 63
    40e4:	f8 94       	cli
    40e6:	de bf       	out	0x3e, r29	; 62
    40e8:	0f be       	out	0x3f, r0	; 63
    40ea:	cd bf       	out	0x3d, r28	; 61
    40ec:	8e 01       	movw	r16, r28
    40ee:	04 5d       	subi	r16, 0xD4	; 212
    40f0:	1f 4f       	sbci	r17, 0xFF	; 255
    40f2:	1a 8a       	std	Y+18, r1	; 0x12
    40f4:	19 8a       	std	Y+17, r1	; 0x11
    40f6:	20 e0       	ldi	r18, 0x00	; 0
    40f8:	30 e0       	ldi	r19, 0x00	; 0
    40fa:	aa a5       	ldd	r26, Y+42	; 0x2a
    40fc:	bb a5       	ldd	r27, Y+43	; 0x2b
    40fe:	8c 91       	ld	r24, X
    4100:	88 23       	and	r24, r24
    4102:	09 f4       	brne	.+2      	; 0x4106 <f_printf+0x4e>
    4104:	60 c1       	rjmp	.+704    	; 0x43c6 <f_printf+0x30e>
    4106:	11 96       	adiw	r26, 0x01	; 1
    4108:	bb a7       	std	Y+43, r27	; 0x2b
    410a:	aa a7       	std	Y+42, r26	; 0x2a
    410c:	85 32       	cpi	r24, 0x25	; 37
    410e:	71 f0       	breq	.+28     	; 0x412c <f_printf+0x74>
    4110:	68 a5       	ldd	r22, Y+40	; 0x28
    4112:	79 a5       	ldd	r23, Y+41	; 0x29
    4114:	0e 94 14 20 	call	0x4028	; 0x4028 <f_putc>
    4118:	9c 01       	movw	r18, r24
    411a:	bf ef       	ldi	r27, 0xFF	; 255
    411c:	8f 3f       	cpi	r24, 0xFF	; 255
    411e:	9b 07       	cpc	r25, r27
    4120:	09 f4       	brne	.+2      	; 0x4124 <f_printf+0x6c>
    4122:	82 c0       	rjmp	.+260    	; 0x4228 <f_printf+0x170>
    4124:	38 01       	movw	r6, r16
    4126:	21 e0       	ldi	r18, 0x01	; 1
    4128:	30 e0       	ldi	r19, 0x00	; 0
    412a:	41 c1       	rjmp	.+642    	; 0x43ae <f_printf+0x2f6>
    412c:	ea a5       	ldd	r30, Y+42	; 0x2a
    412e:	fb a5       	ldd	r31, Y+43	; 0x2b
    4130:	c1 90       	ld	r12, Z+
    4132:	fb a7       	std	Y+43, r31	; 0x2b
    4134:	ea a7       	std	Y+42, r30	; 0x2a
    4136:	f0 e3       	ldi	r31, 0x30	; 48
    4138:	cf 16       	cp	r12, r31
    413a:	11 f0       	breq	.+4      	; 0x4140 <f_printf+0x88>
    413c:	1b 8a       	std	Y+19, r1	; 0x13
    413e:	07 c0       	rjmp	.+14     	; 0x414e <f_printf+0x96>
    4140:	aa a5       	ldd	r26, Y+42	; 0x2a
    4142:	bb a5       	ldd	r27, Y+43	; 0x2b
    4144:	cd 90       	ld	r12, X+
    4146:	bb a7       	std	Y+43, r27	; 0x2b
    4148:	aa a7       	std	Y+42, r26	; 0x2a
    414a:	b1 e0       	ldi	r27, 0x01	; 1
    414c:	bb 8b       	std	Y+19, r27	; 0x13
    414e:	88 24       	eor	r8, r8
    4150:	99 24       	eor	r9, r9
    4152:	15 c0       	rjmp	.+42     	; 0x417e <f_printf+0xc6>
    4154:	c4 01       	movw	r24, r8
    4156:	53 e0       	ldi	r21, 0x03	; 3
    4158:	88 0f       	add	r24, r24
    415a:	99 1f       	adc	r25, r25
    415c:	5a 95       	dec	r21
    415e:	e1 f7       	brne	.-8      	; 0x4158 <f_printf+0xa0>
    4160:	88 0c       	add	r8, r8
    4162:	99 1c       	adc	r9, r9
    4164:	88 0e       	add	r8, r24
    4166:	99 1e       	adc	r9, r25
    4168:	8c 0c       	add	r8, r12
    416a:	91 1c       	adc	r9, r1
    416c:	e0 ed       	ldi	r30, 0xD0	; 208
    416e:	ff ef       	ldi	r31, 0xFF	; 255
    4170:	8e 0e       	add	r8, r30
    4172:	9f 1e       	adc	r9, r31
    4174:	aa a5       	ldd	r26, Y+42	; 0x2a
    4176:	bb a5       	ldd	r27, Y+43	; 0x2b
    4178:	cd 90       	ld	r12, X+
    417a:	bb a7       	std	Y+43, r27	; 0x2b
    417c:	aa a7       	std	Y+42, r26	; 0x2a
    417e:	8c 2d       	mov	r24, r12
    4180:	80 53       	subi	r24, 0x30	; 48
    4182:	8a 30       	cpi	r24, 0x0A	; 10
    4184:	38 f3       	brcs	.-50     	; 0x4154 <f_printf+0x9c>
    4186:	bc e6       	ldi	r27, 0x6C	; 108
    4188:	cb 16       	cp	r12, r27
    418a:	19 f0       	breq	.+6      	; 0x4192 <f_printf+0xda>
    418c:	ec e4       	ldi	r30, 0x4C	; 76
    418e:	ce 16       	cp	r12, r30
    4190:	41 f4       	brne	.+16     	; 0x41a2 <f_printf+0xea>
    4192:	fb 89       	ldd	r31, Y+19	; 0x13
    4194:	f2 60       	ori	r31, 0x02	; 2
    4196:	fb 8b       	std	Y+19, r31	; 0x13
    4198:	aa a5       	ldd	r26, Y+42	; 0x2a
    419a:	bb a5       	ldd	r27, Y+43	; 0x2b
    419c:	cd 90       	ld	r12, X+
    419e:	bb a7       	std	Y+43, r27	; 0x2b
    41a0:	aa a7       	std	Y+42, r26	; 0x2a
    41a2:	cc 20       	and	r12, r12
    41a4:	09 f4       	brne	.+2      	; 0x41a8 <f_printf+0xf0>
    41a6:	0f c1       	rjmp	.+542    	; 0x43c6 <f_printf+0x30e>
    41a8:	8c 2d       	mov	r24, r12
    41aa:	81 56       	subi	r24, 0x61	; 97
    41ac:	8a 31       	cpi	r24, 0x1A	; 26
    41ae:	10 f0       	brcs	.+4      	; 0x41b4 <f_printf+0xfc>
    41b0:	ec 2d       	mov	r30, r12
    41b2:	02 c0       	rjmp	.+4      	; 0x41b8 <f_printf+0x100>
    41b4:	ec 2d       	mov	r30, r12
    41b6:	e0 52       	subi	r30, 0x20	; 32
    41b8:	ef 34       	cpi	r30, 0x4F	; 79
    41ba:	81 f0       	breq	.+32     	; 0x41dc <f_printf+0x124>
    41bc:	e0 35       	cpi	r30, 0x50	; 80
    41be:	38 f4       	brcc	.+14     	; 0x41ce <f_printf+0x116>
    41c0:	e3 34       	cpi	r30, 0x43	; 67
    41c2:	e9 f0       	breq	.+58     	; 0x41fe <f_printf+0x146>
    41c4:	e4 34       	cpi	r30, 0x44	; 68
    41c6:	61 f0       	breq	.+24     	; 0x41e0 <f_printf+0x128>
    41c8:	e2 34       	cpi	r30, 0x42	; 66
    41ca:	41 f5       	brne	.+80     	; 0x421c <f_printf+0x164>
    41cc:	2f c0       	rjmp	.+94     	; 0x422c <f_printf+0x174>
    41ce:	e5 35       	cpi	r30, 0x55	; 85
    41d0:	39 f0       	breq	.+14     	; 0x41e0 <f_printf+0x128>
    41d2:	e8 35       	cpi	r30, 0x58	; 88
    41d4:	09 f1       	breq	.+66     	; 0x4218 <f_printf+0x160>
    41d6:	e3 35       	cpi	r30, 0x53	; 83
    41d8:	09 f5       	brne	.+66     	; 0x421c <f_printf+0x164>
    41da:	04 c0       	rjmp	.+8      	; 0x41e4 <f_printf+0x12c>
    41dc:	28 e0       	ldi	r18, 0x08	; 8
    41de:	27 c0       	rjmp	.+78     	; 0x422e <f_printf+0x176>
    41e0:	2a e0       	ldi	r18, 0x0A	; 10
    41e2:	25 c0       	rjmp	.+74     	; 0x422e <f_printf+0x176>
    41e4:	82 e0       	ldi	r24, 0x02	; 2
    41e6:	68 2e       	mov	r6, r24
    41e8:	71 2c       	mov	r7, r1
    41ea:	60 0e       	add	r6, r16
    41ec:	71 1e       	adc	r7, r17
    41ee:	f8 01       	movw	r30, r16
    41f0:	80 81       	ld	r24, Z
    41f2:	91 81       	ldd	r25, Z+1	; 0x01
    41f4:	68 a5       	ldd	r22, Y+40	; 0x28
    41f6:	79 a5       	ldd	r23, Y+41	; 0x29
    41f8:	0e 94 39 20 	call	0x4072	; 0x4072 <f_puts>
    41fc:	0b c0       	rjmp	.+22     	; 0x4214 <f_printf+0x15c>
    41fe:	b2 e0       	ldi	r27, 0x02	; 2
    4200:	6b 2e       	mov	r6, r27
    4202:	71 2c       	mov	r7, r1
    4204:	60 0e       	add	r6, r16
    4206:	71 1e       	adc	r7, r17
    4208:	d8 01       	movw	r26, r16
    420a:	8c 91       	ld	r24, X
    420c:	68 a5       	ldd	r22, Y+40	; 0x28
    420e:	79 a5       	ldd	r23, Y+41	; 0x29
    4210:	0e 94 14 20 	call	0x4028	; 0x4028 <f_putc>
    4214:	9c 01       	movw	r18, r24
    4216:	cb c0       	rjmp	.+406    	; 0x43ae <f_printf+0x2f6>
    4218:	20 e1       	ldi	r18, 0x10	; 16
    421a:	09 c0       	rjmp	.+18     	; 0x422e <f_printf+0x176>
    421c:	8c 2d       	mov	r24, r12
    421e:	68 a5       	ldd	r22, Y+40	; 0x28
    4220:	79 a5       	ldd	r23, Y+41	; 0x29
    4222:	0e 94 14 20 	call	0x4028	; 0x4028 <f_putc>
    4226:	9c 01       	movw	r18, r24
    4228:	38 01       	movw	r6, r16
    422a:	c1 c0       	rjmp	.+386    	; 0x43ae <f_printf+0x2f6>
    422c:	22 e0       	ldi	r18, 0x02	; 2
    422e:	bb 89       	ldd	r27, Y+19	; 0x13
    4230:	b1 ff       	sbrs	r27, 1
    4232:	0d c0       	rjmp	.+26     	; 0x424e <f_printf+0x196>
    4234:	a4 e0       	ldi	r26, 0x04	; 4
    4236:	6a 2e       	mov	r6, r26
    4238:	71 2c       	mov	r7, r1
    423a:	60 0e       	add	r6, r16
    423c:	71 1e       	adc	r7, r17
    423e:	d8 01       	movw	r26, r16
    4240:	ed 90       	ld	r14, X+
    4242:	fd 90       	ld	r15, X+
    4244:	0d 91       	ld	r16, X+
    4246:	1c 91       	ld	r17, X
    4248:	e4 34       	cpi	r30, 0x44	; 68
    424a:	09 f5       	brne	.+66     	; 0x428e <f_printf+0x1d6>
    424c:	13 c0       	rjmp	.+38     	; 0x4274 <f_printf+0x1bc>
    424e:	c8 01       	movw	r24, r16
    4250:	02 96       	adiw	r24, 0x02	; 2
    4252:	d8 01       	movw	r26, r16
    4254:	6d 91       	ld	r22, X+
    4256:	7c 91       	ld	r23, X
    4258:	e4 34       	cpi	r30, 0x44	; 68
    425a:	39 f4       	brne	.+14     	; 0x426a <f_printf+0x1b2>
    425c:	3c 01       	movw	r6, r24
    425e:	7b 01       	movw	r14, r22
    4260:	00 27       	eor	r16, r16
    4262:	f7 fc       	sbrc	r15, 7
    4264:	00 95       	com	r16
    4266:	10 2f       	mov	r17, r16
    4268:	05 c0       	rjmp	.+10     	; 0x4274 <f_printf+0x1bc>
    426a:	3c 01       	movw	r6, r24
    426c:	7b 01       	movw	r14, r22
    426e:	00 e0       	ldi	r16, 0x00	; 0
    4270:	10 e0       	ldi	r17, 0x00	; 0
    4272:	0d c0       	rjmp	.+26     	; 0x428e <f_printf+0x1d6>
    4274:	17 ff       	sbrs	r17, 7
    4276:	0b c0       	rjmp	.+22     	; 0x428e <f_printf+0x1d6>
    4278:	10 95       	com	r17
    427a:	00 95       	com	r16
    427c:	f0 94       	com	r15
    427e:	e0 94       	com	r14
    4280:	e1 1c       	adc	r14, r1
    4282:	f1 1c       	adc	r15, r1
    4284:	01 1d       	adc	r16, r1
    4286:	11 1d       	adc	r17, r1
    4288:	bb 89       	ldd	r27, Y+19	; 0x13
    428a:	b4 60       	ori	r27, 0x04	; 4
    428c:	bb 8b       	std	Y+19, r27	; 0x13
    428e:	aa 24       	eor	r10, r10
    4290:	bb 24       	eor	r11, r11
    4292:	22 2e       	mov	r2, r18
    4294:	33 24       	eor	r3, r3
    4296:	44 24       	eor	r4, r4
    4298:	55 24       	eor	r5, r5
    429a:	c8 01       	movw	r24, r16
    429c:	b7 01       	movw	r22, r14
    429e:	a2 01       	movw	r20, r4
    42a0:	91 01       	movw	r18, r2
    42a2:	0e 94 59 2b 	call	0x56b2	; 0x56b2 <__udivmodsi4>
    42a6:	d6 2e       	mov	r13, r22
    42a8:	c8 01       	movw	r24, r16
    42aa:	b7 01       	movw	r22, r14
    42ac:	a2 01       	movw	r20, r4
    42ae:	91 01       	movw	r18, r2
    42b0:	0e 94 59 2b 	call	0x56b2	; 0x56b2 <__udivmodsi4>
    42b4:	c9 01       	movw	r24, r18
    42b6:	da 01       	movw	r26, r20
    42b8:	7c 01       	movw	r14, r24
    42ba:	8d 01       	movw	r16, r26
    42bc:	e9 e0       	ldi	r30, 0x09	; 9
    42be:	ed 15       	cp	r30, r13
    42c0:	38 f4       	brcc	.+14     	; 0x42d0 <f_printf+0x218>
    42c2:	f7 e0       	ldi	r31, 0x07	; 7
    42c4:	df 0e       	add	r13, r31
    42c6:	28 e7       	ldi	r18, 0x78	; 120
    42c8:	c2 16       	cp	r12, r18
    42ca:	11 f4       	brne	.+4      	; 0x42d0 <f_printf+0x218>
    42cc:	30 e2       	ldi	r19, 0x20	; 32
    42ce:	d3 0e       	add	r13, r19
    42d0:	e1 e0       	ldi	r30, 0x01	; 1
    42d2:	f0 e0       	ldi	r31, 0x00	; 0
    42d4:	ec 0f       	add	r30, r28
    42d6:	fd 1f       	adc	r31, r29
    42d8:	ea 0d       	add	r30, r10
    42da:	fb 1d       	adc	r31, r11
    42dc:	40 e3       	ldi	r20, 0x30	; 48
    42de:	d4 0e       	add	r13, r20
    42e0:	d0 82       	st	Z, r13
    42e2:	08 94       	sec
    42e4:	a1 1c       	adc	r10, r1
    42e6:	b1 1c       	adc	r11, r1
    42e8:	00 97       	sbiw	r24, 0x00	; 0
    42ea:	a1 05       	cpc	r26, r1
    42ec:	b1 05       	cpc	r27, r1
    42ee:	21 f0       	breq	.+8      	; 0x42f8 <f_printf+0x240>
    42f0:	50 e1       	ldi	r21, 0x10	; 16
    42f2:	a5 16       	cp	r10, r21
    42f4:	b1 04       	cpc	r11, r1
    42f6:	89 f6       	brne	.-94     	; 0x429a <f_printf+0x1e2>
    42f8:	85 01       	movw	r16, r10
    42fa:	8b 89       	ldd	r24, Y+19	; 0x13
    42fc:	28 2f       	mov	r18, r24
    42fe:	30 e0       	ldi	r19, 0x00	; 0
    4300:	82 ff       	sbrs	r24, 2
    4302:	0a c0       	rjmp	.+20     	; 0x4318 <f_printf+0x260>
    4304:	e1 e0       	ldi	r30, 0x01	; 1
    4306:	f0 e0       	ldi	r31, 0x00	; 0
    4308:	ec 0f       	add	r30, r28
    430a:	fd 1f       	adc	r31, r29
    430c:	ea 0d       	add	r30, r10
    430e:	fb 1d       	adc	r31, r11
    4310:	9d e2       	ldi	r25, 0x2D	; 45
    4312:	90 83       	st	Z, r25
    4314:	0f 5f       	subi	r16, 0xFF	; 255
    4316:	1f 4f       	sbci	r17, 0xFF	; 255
    4318:	80 e0       	ldi	r24, 0x00	; 0
    431a:	90 e0       	ldi	r25, 0x00	; 0
    431c:	f1 e0       	ldi	r31, 0x01	; 1
    431e:	ef 2e       	mov	r14, r31
    4320:	f1 2c       	mov	r15, r1
    4322:	e2 22       	and	r14, r18
    4324:	f3 22       	and	r15, r19
    4326:	12 c0       	rjmp	.+36     	; 0x434c <f_printf+0x294>
    4328:	e1 14       	cp	r14, r1
    432a:	f1 04       	cpc	r15, r1
    432c:	11 f4       	brne	.+4      	; 0x4332 <f_printf+0x27a>
    432e:	80 e2       	ldi	r24, 0x20	; 32
    4330:	01 c0       	rjmp	.+2      	; 0x4334 <f_printf+0x27c>
    4332:	80 e3       	ldi	r24, 0x30	; 48
    4334:	68 a5       	ldd	r22, Y+40	; 0x28
    4336:	79 a5       	ldd	r23, Y+41	; 0x29
    4338:	0e 94 14 20 	call	0x4028	; 0x4028 <f_putc>
    433c:	a9 89       	ldd	r26, Y+17	; 0x11
    433e:	ba 89       	ldd	r27, Y+18	; 0x12
    4340:	11 96       	adiw	r26, 0x01	; 1
    4342:	ba 8b       	std	Y+18, r27	; 0x12
    4344:	a9 8b       	std	Y+17, r26	; 0x11
    4346:	08 94       	sec
    4348:	81 08       	sbc	r8, r1
    434a:	91 08       	sbc	r9, r1
    434c:	08 15       	cp	r16, r8
    434e:	19 05       	cpc	r17, r9
    4350:	18 f4       	brcc	.+6      	; 0x4358 <f_printf+0x2a0>
    4352:	8f 5f       	subi	r24, 0xFF	; 255
    4354:	9f 4f       	sbci	r25, 0xFF	; 255
    4356:	41 f7       	brne	.-48     	; 0x4328 <f_printf+0x270>
    4358:	01 50       	subi	r16, 0x01	; 1
    435a:	10 40       	sbci	r17, 0x00	; 0
    435c:	e1 e0       	ldi	r30, 0x01	; 1
    435e:	ee 2e       	mov	r14, r30
    4360:	f1 2c       	mov	r15, r1
    4362:	ec 0e       	add	r14, r28
    4364:	fd 1e       	adc	r15, r29
    4366:	e0 0e       	add	r14, r16
    4368:	f1 1e       	adc	r15, r17
    436a:	0f 5f       	subi	r16, 0xFF	; 255
    436c:	1f 4f       	sbci	r17, 0xFF	; 255
    436e:	01 50       	subi	r16, 0x01	; 1
    4370:	10 40       	sbci	r17, 0x00	; 0
    4372:	f7 01       	movw	r30, r14
    4374:	80 81       	ld	r24, Z
    4376:	68 a5       	ldd	r22, Y+40	; 0x28
    4378:	79 a5       	ldd	r23, Y+41	; 0x29
    437a:	0e 94 14 20 	call	0x4028	; 0x4028 <f_putc>
    437e:	9c 01       	movw	r18, r24
    4380:	49 89       	ldd	r20, Y+17	; 0x11
    4382:	5a 89       	ldd	r21, Y+18	; 0x12
    4384:	4f 5f       	subi	r20, 0xFF	; 255
    4386:	5f 4f       	sbci	r21, 0xFF	; 255
    4388:	5a 8b       	std	Y+18, r21	; 0x12
    438a:	49 8b       	std	Y+17, r20	; 0x11
    438c:	01 15       	cp	r16, r1
    438e:	11 05       	cpc	r17, r1
    4390:	41 f0       	breq	.+16     	; 0x43a2 <f_printf+0x2ea>
    4392:	08 94       	sec
    4394:	e1 08       	sbc	r14, r1
    4396:	f1 08       	sbc	r15, r1
    4398:	5f ef       	ldi	r21, 0xFF	; 255
    439a:	8f 3f       	cpi	r24, 0xFF	; 255
    439c:	95 07       	cpc	r25, r21
    439e:	39 f7       	brne	.-50     	; 0x436e <f_printf+0x2b6>
    43a0:	06 c0       	rjmp	.+12     	; 0x43ae <f_printf+0x2f6>
    43a2:	8f ef       	ldi	r24, 0xFF	; 255
    43a4:	2f 3f       	cpi	r18, 0xFF	; 255
    43a6:	38 07       	cpc	r19, r24
    43a8:	11 f0       	breq	.+4      	; 0x43ae <f_printf+0x2f6>
    43aa:	20 e0       	ldi	r18, 0x00	; 0
    43ac:	30 e0       	ldi	r19, 0x00	; 0
    43ae:	a9 89       	ldd	r26, Y+17	; 0x11
    43b0:	ba 89       	ldd	r27, Y+18	; 0x12
    43b2:	a2 0f       	add	r26, r18
    43b4:	b3 1f       	adc	r27, r19
    43b6:	ba 8b       	std	Y+18, r27	; 0x12
    43b8:	a9 8b       	std	Y+17, r26	; 0x11
    43ba:	bf ef       	ldi	r27, 0xFF	; 255
    43bc:	2f 3f       	cpi	r18, 0xFF	; 255
    43be:	3b 07       	cpc	r19, r27
    43c0:	41 f0       	breq	.+16     	; 0x43d2 <f_printf+0x31a>
    43c2:	83 01       	movw	r16, r6
    43c4:	9a ce       	rjmp	.-716    	; 0x40fa <f_printf+0x42>
    43c6:	ef ef       	ldi	r30, 0xFF	; 255
    43c8:	2f 3f       	cpi	r18, 0xFF	; 255
    43ca:	3e 07       	cpc	r19, r30
    43cc:	11 f0       	breq	.+4      	; 0x43d2 <f_printf+0x31a>
    43ce:	29 89       	ldd	r18, Y+17	; 0x11
    43d0:	3a 89       	ldd	r19, Y+18	; 0x12
    43d2:	c9 01       	movw	r24, r18
    43d4:	63 96       	adiw	r28, 0x13	; 19
    43d6:	0f b6       	in	r0, 0x3f	; 63
    43d8:	f8 94       	cli
    43da:	de bf       	out	0x3e, r29	; 62
    43dc:	0f be       	out	0x3f, r0	; 63
    43de:	cd bf       	out	0x3d, r28	; 61
    43e0:	cf 91       	pop	r28
    43e2:	df 91       	pop	r29
    43e4:	1f 91       	pop	r17
    43e6:	0f 91       	pop	r16
    43e8:	ff 90       	pop	r15
    43ea:	ef 90       	pop	r14
    43ec:	df 90       	pop	r13
    43ee:	cf 90       	pop	r12
    43f0:	bf 90       	pop	r11
    43f2:	af 90       	pop	r10
    43f4:	9f 90       	pop	r9
    43f6:	8f 90       	pop	r8
    43f8:	7f 90       	pop	r7
    43fa:	6f 90       	pop	r6
    43fc:	5f 90       	pop	r5
    43fe:	4f 90       	pop	r4
    4400:	3f 90       	pop	r3
    4402:	2f 90       	pop	r2
    4404:	08 95       	ret

00004406 <f_read>:
    4406:	3f 92       	push	r3
    4408:	4f 92       	push	r4
    440a:	5f 92       	push	r5
    440c:	6f 92       	push	r6
    440e:	7f 92       	push	r7
    4410:	8f 92       	push	r8
    4412:	9f 92       	push	r9
    4414:	af 92       	push	r10
    4416:	bf 92       	push	r11
    4418:	cf 92       	push	r12
    441a:	df 92       	push	r13
    441c:	ef 92       	push	r14
    441e:	ff 92       	push	r15
    4420:	0f 93       	push	r16
    4422:	1f 93       	push	r17
    4424:	df 93       	push	r29
    4426:	cf 93       	push	r28
    4428:	00 d0       	rcall	.+0      	; 0x442a <f_read+0x24>
    442a:	00 d0       	rcall	.+0      	; 0x442c <f_read+0x26>
    442c:	00 d0       	rcall	.+0      	; 0x442e <f_read+0x28>
    442e:	cd b7       	in	r28, 0x3d	; 61
    4430:	de b7       	in	r29, 0x3e	; 62
    4432:	9e 83       	std	Y+6, r25	; 0x06
    4434:	8d 83       	std	Y+5, r24	; 0x05
    4436:	16 2f       	mov	r17, r22
    4438:	07 2f       	mov	r16, r23
    443a:	3a 01       	movw	r6, r20
    443c:	3c 83       	std	Y+4, r19	; 0x04
    443e:	2b 83       	std	Y+3, r18	; 0x03
    4440:	d9 01       	movw	r26, r18
    4442:	1d 92       	st	X+, r1
    4444:	1c 92       	st	X, r1
    4446:	fc 01       	movw	r30, r24
    4448:	62 81       	ldd	r22, Z+2	; 0x02
    444a:	73 81       	ldd	r23, Z+3	; 0x03
    444c:	80 81       	ld	r24, Z
    444e:	91 81       	ldd	r25, Z+1	; 0x01
    4450:	0e 94 b4 08 	call	0x1168	; 0x1168 <validate>
    4454:	88 2e       	mov	r8, r24
    4456:	88 23       	and	r24, r24
    4458:	09 f0       	breq	.+2      	; 0x445c <f_read+0x56>
    445a:	9f c1       	rjmp	.+830    	; 0x479a <f_read+0x394>
    445c:	ad 81       	ldd	r26, Y+5	; 0x05
    445e:	be 81       	ldd	r27, Y+6	; 0x06
    4460:	14 96       	adiw	r26, 0x04	; 4
    4462:	8c 91       	ld	r24, X
    4464:	87 fd       	sbrc	r24, 7
    4466:	6b c0       	rjmp	.+214    	; 0x453e <f_read+0x138>
    4468:	80 fd       	sbrc	r24, 0
    446a:	03 c0       	rjmp	.+6      	; 0x4472 <f_read+0x6c>
    446c:	07 e0       	ldi	r16, 0x07	; 7
    446e:	80 2e       	mov	r8, r16
    4470:	94 c1       	rjmp	.+808    	; 0x479a <f_read+0x394>
    4472:	ed 81       	ldd	r30, Y+5	; 0x05
    4474:	fe 81       	ldd	r31, Y+6	; 0x06
    4476:	22 85       	ldd	r18, Z+10	; 0x0a
    4478:	33 85       	ldd	r19, Z+11	; 0x0b
    447a:	44 85       	ldd	r20, Z+12	; 0x0c
    447c:	55 85       	ldd	r21, Z+13	; 0x0d
    447e:	86 81       	ldd	r24, Z+6	; 0x06
    4480:	97 81       	ldd	r25, Z+7	; 0x07
    4482:	a0 85       	ldd	r26, Z+8	; 0x08
    4484:	b1 85       	ldd	r27, Z+9	; 0x09
    4486:	28 1b       	sub	r18, r24
    4488:	39 0b       	sbc	r19, r25
    448a:	4a 0b       	sbc	r20, r26
    448c:	5b 0b       	sbc	r21, r27
    448e:	c3 01       	movw	r24, r6
    4490:	a0 e0       	ldi	r26, 0x00	; 0
    4492:	b0 e0       	ldi	r27, 0x00	; 0
    4494:	28 17       	cp	r18, r24
    4496:	39 07       	cpc	r19, r25
    4498:	4a 07       	cpc	r20, r26
    449a:	5b 07       	cpc	r21, r27
    449c:	08 f4       	brcc	.+2      	; 0x44a0 <f_read+0x9a>
    449e:	39 01       	movw	r6, r18
    44a0:	81 2f       	mov	r24, r17
    44a2:	90 2f       	mov	r25, r16
    44a4:	9c 01       	movw	r18, r24
    44a6:	29 01       	movw	r4, r18
    44a8:	6d 81       	ldd	r22, Y+5	; 0x05
    44aa:	7e 81       	ldd	r23, Y+6	; 0x06
    44ac:	60 5e       	subi	r22, 0xE0	; 224
    44ae:	7f 4f       	sbci	r23, 0xFF	; 255
    44b0:	7a 83       	std	Y+2, r23	; 0x02
    44b2:	69 83       	std	Y+1, r22	; 0x01
    44b4:	6e c1       	rjmp	.+732    	; 0x4792 <f_read+0x38c>
    44b6:	ad 81       	ldd	r26, Y+5	; 0x05
    44b8:	be 81       	ldd	r27, Y+6	; 0x06
    44ba:	16 96       	adiw	r26, 0x06	; 6
    44bc:	2d 91       	ld	r18, X+
    44be:	3d 91       	ld	r19, X+
    44c0:	4d 91       	ld	r20, X+
    44c2:	5c 91       	ld	r21, X
    44c4:	19 97       	sbiw	r26, 0x09	; 9
    44c6:	da 01       	movw	r26, r20
    44c8:	c9 01       	movw	r24, r18
    44ca:	91 70       	andi	r25, 0x01	; 1
    44cc:	a0 70       	andi	r26, 0x00	; 0
    44ce:	b0 70       	andi	r27, 0x00	; 0
    44d0:	00 97       	sbiw	r24, 0x00	; 0
    44d2:	a1 05       	cpc	r26, r1
    44d4:	b1 05       	cpc	r27, r1
    44d6:	09 f0       	breq	.+2      	; 0x44da <f_read+0xd4>
    44d8:	20 c1       	rjmp	.+576    	; 0x471a <f_read+0x314>
    44da:	ad 81       	ldd	r26, Y+5	; 0x05
    44dc:	be 81       	ldd	r27, Y+6	; 0x06
    44de:	ed 91       	ld	r30, X+
    44e0:	fc 91       	ld	r31, X
    44e2:	da 01       	movw	r26, r20
    44e4:	c9 01       	movw	r24, r18
    44e6:	19 e0       	ldi	r17, 0x09	; 9
    44e8:	b6 95       	lsr	r27
    44ea:	a7 95       	ror	r26
    44ec:	97 95       	ror	r25
    44ee:	87 95       	ror	r24
    44f0:	1a 95       	dec	r17
    44f2:	d1 f7       	brne	.-12     	; 0x44e8 <f_read+0xe2>
    44f4:	92 80       	ldd	r9, Z+2	; 0x02
    44f6:	9a 94       	dec	r9
    44f8:	98 22       	and	r9, r24
    44fa:	99 f5       	brne	.+102    	; 0x4562 <f_read+0x15c>
    44fc:	21 15       	cp	r18, r1
    44fe:	31 05       	cpc	r19, r1
    4500:	41 05       	cpc	r20, r1
    4502:	51 05       	cpc	r21, r1
    4504:	39 f4       	brne	.+14     	; 0x4514 <f_read+0x10e>
    4506:	ed 81       	ldd	r30, Y+5	; 0x05
    4508:	fe 81       	ldd	r31, Y+6	; 0x06
    450a:	66 85       	ldd	r22, Z+14	; 0x0e
    450c:	77 85       	ldd	r23, Z+15	; 0x0f
    450e:	80 89       	ldd	r24, Z+16	; 0x10
    4510:	91 89       	ldd	r25, Z+17	; 0x11
    4512:	0b c0       	rjmp	.+22     	; 0x452a <f_read+0x124>
    4514:	ad 81       	ldd	r26, Y+5	; 0x05
    4516:	be 81       	ldd	r27, Y+6	; 0x06
    4518:	52 96       	adiw	r26, 0x12	; 18
    451a:	4d 91       	ld	r20, X+
    451c:	5d 91       	ld	r21, X+
    451e:	6d 91       	ld	r22, X+
    4520:	7c 91       	ld	r23, X
    4522:	55 97       	sbiw	r26, 0x15	; 21
    4524:	cf 01       	movw	r24, r30
    4526:	0e 94 e8 0d 	call	0x1bd0	; 0x1bd0 <get_fat>
    452a:	62 30       	cpi	r22, 0x02	; 2
    452c:	71 05       	cpc	r23, r1
    452e:	81 05       	cpc	r24, r1
    4530:	91 05       	cpc	r25, r1
    4532:	40 f4       	brcc	.+16     	; 0x4544 <f_read+0x13e>
    4534:	ed 81       	ldd	r30, Y+5	; 0x05
    4536:	fe 81       	ldd	r31, Y+6	; 0x06
    4538:	84 81       	ldd	r24, Z+4	; 0x04
    453a:	80 68       	ori	r24, 0x80	; 128
    453c:	84 83       	std	Z+4, r24	; 0x04
    453e:	f2 e0       	ldi	r31, 0x02	; 2
    4540:	8f 2e       	mov	r8, r31
    4542:	2b c1       	rjmp	.+598    	; 0x479a <f_read+0x394>
    4544:	6f 3f       	cpi	r22, 0xFF	; 255
    4546:	ff ef       	ldi	r31, 0xFF	; 255
    4548:	7f 07       	cpc	r23, r31
    454a:	ff ef       	ldi	r31, 0xFF	; 255
    454c:	8f 07       	cpc	r24, r31
    454e:	ff ef       	ldi	r31, 0xFF	; 255
    4550:	9f 07       	cpc	r25, r31
    4552:	09 f4       	brne	.+2      	; 0x4556 <f_read+0x150>
    4554:	d1 c0       	rjmp	.+418    	; 0x46f8 <f_read+0x2f2>
    4556:	ed 81       	ldd	r30, Y+5	; 0x05
    4558:	fe 81       	ldd	r31, Y+6	; 0x06
    455a:	62 8b       	std	Z+18, r22	; 0x12
    455c:	73 8b       	std	Z+19, r23	; 0x13
    455e:	84 8b       	std	Z+20, r24	; 0x14
    4560:	95 8b       	std	Z+21, r25	; 0x15
    4562:	ad 81       	ldd	r26, Y+5	; 0x05
    4564:	be 81       	ldd	r27, Y+6	; 0x06
    4566:	0d 91       	ld	r16, X+
    4568:	1c 91       	ld	r17, X
    456a:	11 97       	sbiw	r26, 0x01	; 1
    456c:	52 96       	adiw	r26, 0x12	; 18
    456e:	2d 91       	ld	r18, X+
    4570:	3d 91       	ld	r19, X+
    4572:	4d 91       	ld	r20, X+
    4574:	5c 91       	ld	r21, X
    4576:	55 97       	sbiw	r26, 0x15	; 21
    4578:	22 50       	subi	r18, 0x02	; 2
    457a:	30 40       	sbci	r19, 0x00	; 0
    457c:	40 40       	sbci	r20, 0x00	; 0
    457e:	50 40       	sbci	r21, 0x00	; 0
    4580:	f8 01       	movw	r30, r16
    4582:	86 89       	ldd	r24, Z+22	; 0x16
    4584:	97 89       	ldd	r25, Z+23	; 0x17
    4586:	a0 8d       	ldd	r26, Z+24	; 0x18
    4588:	b1 8d       	ldd	r27, Z+25	; 0x19
    458a:	02 97       	sbiw	r24, 0x02	; 2
    458c:	a1 09       	sbc	r26, r1
    458e:	b1 09       	sbc	r27, r1
    4590:	28 17       	cp	r18, r24
    4592:	39 07       	cpc	r19, r25
    4594:	4a 07       	cpc	r20, r26
    4596:	5b 07       	cpc	r21, r27
    4598:	b8 f4       	brcc	.+46     	; 0x45c8 <f_read+0x1c2>
    459a:	32 80       	ldd	r3, Z+2	; 0x02
    459c:	63 2d       	mov	r22, r3
    459e:	70 e0       	ldi	r23, 0x00	; 0
    45a0:	80 e0       	ldi	r24, 0x00	; 0
    45a2:	90 e0       	ldi	r25, 0x00	; 0
    45a4:	0e 94 2e 2b 	call	0x565c	; 0x565c <__mulsi3>
    45a8:	9b 01       	movw	r18, r22
    45aa:	ac 01       	movw	r20, r24
    45ac:	f8 01       	movw	r30, r16
    45ae:	86 a1       	ldd	r24, Z+38	; 0x26
    45b0:	97 a1       	ldd	r25, Z+39	; 0x27
    45b2:	a0 a5       	ldd	r26, Z+40	; 0x28
    45b4:	b1 a5       	ldd	r27, Z+41	; 0x29
    45b6:	28 0f       	add	r18, r24
    45b8:	39 1f       	adc	r19, r25
    45ba:	4a 1f       	adc	r20, r26
    45bc:	5b 1f       	adc	r21, r27
    45be:	21 15       	cp	r18, r1
    45c0:	31 05       	cpc	r19, r1
    45c2:	41 05       	cpc	r20, r1
    45c4:	51 05       	cpc	r21, r1
    45c6:	49 f4       	brne	.+18     	; 0x45da <f_read+0x1d4>
    45c8:	ad 81       	ldd	r26, Y+5	; 0x05
    45ca:	be 81       	ldd	r27, Y+6	; 0x06
    45cc:	14 96       	adiw	r26, 0x04	; 4
    45ce:	8c 91       	ld	r24, X
    45d0:	14 97       	sbiw	r26, 0x04	; 4
    45d2:	80 68       	ori	r24, 0x80	; 128
    45d4:	14 96       	adiw	r26, 0x04	; 4
    45d6:	8c 93       	st	X, r24
    45d8:	b2 cf       	rjmp	.-156    	; 0x453e <f_read+0x138>
    45da:	69 01       	movw	r12, r18
    45dc:	7a 01       	movw	r14, r20
    45de:	c9 0c       	add	r12, r9
    45e0:	d1 1c       	adc	r13, r1
    45e2:	e1 1c       	adc	r14, r1
    45e4:	f1 1c       	adc	r15, r1
    45e6:	53 01       	movw	r10, r6
    45e8:	ab 2c       	mov	r10, r11
    45ea:	bb 24       	eor	r11, r11
    45ec:	a6 94       	lsr	r10
    45ee:	a1 14       	cp	r10, r1
    45f0:	b1 04       	cpc	r11, r1
    45f2:	09 f4       	brne	.+2      	; 0x45f6 <f_read+0x1f0>
    45f4:	46 c0       	rjmp	.+140    	; 0x4682 <f_read+0x27c>
    45f6:	29 2d       	mov	r18, r9
    45f8:	30 e0       	ldi	r19, 0x00	; 0
    45fa:	c5 01       	movw	r24, r10
    45fc:	82 0f       	add	r24, r18
    45fe:	93 1f       	adc	r25, r19
    4600:	63 2d       	mov	r22, r3
    4602:	70 e0       	ldi	r23, 0x00	; 0
    4604:	68 17       	cp	r22, r24
    4606:	79 07       	cpc	r23, r25
    4608:	18 f4       	brcc	.+6      	; 0x4610 <f_read+0x20a>
    460a:	5b 01       	movw	r10, r22
    460c:	a2 1a       	sub	r10, r18
    460e:	b3 0a       	sbc	r11, r19
    4610:	f8 01       	movw	r30, r16
    4612:	81 81       	ldd	r24, Z+1	; 0x01
    4614:	b2 01       	movw	r22, r4
    4616:	a7 01       	movw	r20, r14
    4618:	96 01       	movw	r18, r12
    461a:	0a 2d       	mov	r16, r10
    461c:	0e 94 04 26 	call	0x4c08	; 0x4c08 <disk_read>
    4620:	ad 81       	ldd	r26, Y+5	; 0x05
    4622:	be 81       	ldd	r27, Y+6	; 0x06
    4624:	14 96       	adiw	r26, 0x04	; 4
    4626:	9c 91       	ld	r25, X
    4628:	14 97       	sbiw	r26, 0x04	; 4
    462a:	88 23       	and	r24, r24
    462c:	09 f0       	breq	.+2      	; 0x4630 <f_read+0x22a>
    462e:	44 c0       	rjmp	.+136    	; 0x46b8 <f_read+0x2b2>
    4630:	96 ff       	sbrs	r25, 6
    4632:	22 c0       	rjmp	.+68     	; 0x4678 <f_read+0x272>
    4634:	ed 81       	ldd	r30, Y+5	; 0x05
    4636:	fe 81       	ldd	r31, Y+6	; 0x06
    4638:	26 89       	ldd	r18, Z+22	; 0x16
    463a:	37 89       	ldd	r19, Z+23	; 0x17
    463c:	40 8d       	ldd	r20, Z+24	; 0x18
    463e:	51 8d       	ldd	r21, Z+25	; 0x19
    4640:	2c 19       	sub	r18, r12
    4642:	3d 09       	sbc	r19, r13
    4644:	4e 09       	sbc	r20, r14
    4646:	5f 09       	sbc	r21, r15
    4648:	c5 01       	movw	r24, r10
    464a:	a0 e0       	ldi	r26, 0x00	; 0
    464c:	b0 e0       	ldi	r27, 0x00	; 0
    464e:	28 17       	cp	r18, r24
    4650:	39 07       	cpc	r19, r25
    4652:	4a 07       	cpc	r20, r26
    4654:	5b 07       	cpc	r21, r27
    4656:	80 f4       	brcc	.+32     	; 0x4678 <f_read+0x272>
    4658:	79 e0       	ldi	r23, 0x09	; 9
    465a:	22 0f       	add	r18, r18
    465c:	33 1f       	adc	r19, r19
    465e:	44 1f       	adc	r20, r20
    4660:	55 1f       	adc	r21, r21
    4662:	7a 95       	dec	r23
    4664:	d1 f7       	brne	.-12     	; 0x465a <f_read+0x254>
    4666:	c2 01       	movw	r24, r4
    4668:	82 0f       	add	r24, r18
    466a:	93 1f       	adc	r25, r19
    466c:	69 81       	ldd	r22, Y+1	; 0x01
    466e:	7a 81       	ldd	r23, Y+2	; 0x02
    4670:	40 e0       	ldi	r20, 0x00	; 0
    4672:	52 e0       	ldi	r21, 0x02	; 2
    4674:	0e 94 22 03 	call	0x644	; 0x644 <mem_cpy>
    4678:	85 01       	movw	r16, r10
    467a:	10 2f       	mov	r17, r16
    467c:	00 27       	eor	r16, r16
    467e:	11 0f       	add	r17, r17
    4680:	6b c0       	rjmp	.+214    	; 0x4758 <f_read+0x352>
    4682:	ad 81       	ldd	r26, Y+5	; 0x05
    4684:	be 81       	ldd	r27, Y+6	; 0x06
    4686:	14 96       	adiw	r26, 0x04	; 4
    4688:	8c 91       	ld	r24, X
    468a:	14 97       	sbiw	r26, 0x04	; 4
    468c:	86 ff       	sbrs	r24, 6
    468e:	1c c0       	rjmp	.+56     	; 0x46c8 <f_read+0x2c2>
    4690:	56 96       	adiw	r26, 0x16	; 22
    4692:	2d 91       	ld	r18, X+
    4694:	3d 91       	ld	r19, X+
    4696:	4d 91       	ld	r20, X+
    4698:	5c 91       	ld	r21, X
    469a:	59 97       	sbiw	r26, 0x19	; 25
    469c:	f8 01       	movw	r30, r16
    469e:	81 81       	ldd	r24, Z+1	; 0x01
    46a0:	69 81       	ldd	r22, Y+1	; 0x01
    46a2:	7a 81       	ldd	r23, Y+2	; 0x02
    46a4:	01 e0       	ldi	r16, 0x01	; 1
    46a6:	0e 94 5c 26 	call	0x4cb8	; 0x4cb8 <disk_write>
    46aa:	ad 81       	ldd	r26, Y+5	; 0x05
    46ac:	be 81       	ldd	r27, Y+6	; 0x06
    46ae:	14 96       	adiw	r26, 0x04	; 4
    46b0:	9c 91       	ld	r25, X
    46b2:	14 97       	sbiw	r26, 0x04	; 4
    46b4:	88 23       	and	r24, r24
    46b6:	21 f0       	breq	.+8      	; 0x46c0 <f_read+0x2ba>
    46b8:	90 68       	ori	r25, 0x80	; 128
    46ba:	14 96       	adiw	r26, 0x04	; 4
    46bc:	9c 93       	st	X, r25
    46be:	24 c0       	rjmp	.+72     	; 0x4708 <f_read+0x302>
    46c0:	9f 7b       	andi	r25, 0xBF	; 191
    46c2:	ed 81       	ldd	r30, Y+5	; 0x05
    46c4:	fe 81       	ldd	r31, Y+6	; 0x06
    46c6:	94 83       	std	Z+4, r25	; 0x04
    46c8:	ed 81       	ldd	r30, Y+5	; 0x05
    46ca:	fe 81       	ldd	r31, Y+6	; 0x06
    46cc:	86 89       	ldd	r24, Z+22	; 0x16
    46ce:	97 89       	ldd	r25, Z+23	; 0x17
    46d0:	a0 8d       	ldd	r26, Z+24	; 0x18
    46d2:	b1 8d       	ldd	r27, Z+25	; 0x19
    46d4:	8c 15       	cp	r24, r12
    46d6:	9d 05       	cpc	r25, r13
    46d8:	ae 05       	cpc	r26, r14
    46da:	bf 05       	cpc	r27, r15
    46dc:	c1 f0       	breq	.+48     	; 0x470e <f_read+0x308>
    46de:	01 90       	ld	r0, Z+
    46e0:	f0 81       	ld	r31, Z
    46e2:	e0 2d       	mov	r30, r0
    46e4:	81 81       	ldd	r24, Z+1	; 0x01
    46e6:	69 81       	ldd	r22, Y+1	; 0x01
    46e8:	7a 81       	ldd	r23, Y+2	; 0x02
    46ea:	a7 01       	movw	r20, r14
    46ec:	96 01       	movw	r18, r12
    46ee:	01 e0       	ldi	r16, 0x01	; 1
    46f0:	0e 94 04 26 	call	0x4c08	; 0x4c08 <disk_read>
    46f4:	88 23       	and	r24, r24
    46f6:	59 f0       	breq	.+22     	; 0x470e <f_read+0x308>
    46f8:	ad 81       	ldd	r26, Y+5	; 0x05
    46fa:	be 81       	ldd	r27, Y+6	; 0x06
    46fc:	14 96       	adiw	r26, 0x04	; 4
    46fe:	8c 91       	ld	r24, X
    4700:	14 97       	sbiw	r26, 0x04	; 4
    4702:	80 68       	ori	r24, 0x80	; 128
    4704:	14 96       	adiw	r26, 0x04	; 4
    4706:	8c 93       	st	X, r24
    4708:	88 24       	eor	r8, r8
    470a:	83 94       	inc	r8
    470c:	46 c0       	rjmp	.+140    	; 0x479a <f_read+0x394>
    470e:	ed 81       	ldd	r30, Y+5	; 0x05
    4710:	fe 81       	ldd	r31, Y+6	; 0x06
    4712:	c6 8a       	std	Z+22, r12	; 0x16
    4714:	d7 8a       	std	Z+23, r13	; 0x17
    4716:	e0 8e       	std	Z+24, r14	; 0x18
    4718:	f1 8e       	std	Z+25, r15	; 0x19
    471a:	ad 81       	ldd	r26, Y+5	; 0x05
    471c:	be 81       	ldd	r27, Y+6	; 0x06
    471e:	16 96       	adiw	r26, 0x06	; 6
    4720:	2d 91       	ld	r18, X+
    4722:	3d 91       	ld	r19, X+
    4724:	4d 91       	ld	r20, X+
    4726:	5c 91       	ld	r21, X
    4728:	19 97       	sbiw	r26, 0x09	; 9
    472a:	c9 01       	movw	r24, r18
    472c:	91 70       	andi	r25, 0x01	; 1
    472e:	e0 e0       	ldi	r30, 0x00	; 0
    4730:	f2 e0       	ldi	r31, 0x02	; 2
    4732:	e8 1b       	sub	r30, r24
    4734:	f9 0b       	sbc	r31, r25
    4736:	83 01       	movw	r16, r6
    4738:	e6 15       	cp	r30, r6
    473a:	f7 05       	cpc	r31, r7
    473c:	08 f4       	brcc	.+2      	; 0x4740 <f_read+0x33a>
    473e:	8f 01       	movw	r16, r30
    4740:	b9 01       	movw	r22, r18
    4742:	71 70       	andi	r23, 0x01	; 1
    4744:	60 5e       	subi	r22, 0xE0	; 224
    4746:	7f 4f       	sbci	r23, 0xFF	; 255
    4748:	8d 81       	ldd	r24, Y+5	; 0x05
    474a:	9e 81       	ldd	r25, Y+6	; 0x06
    474c:	68 0f       	add	r22, r24
    474e:	79 1f       	adc	r23, r25
    4750:	c2 01       	movw	r24, r4
    4752:	a8 01       	movw	r20, r16
    4754:	0e 94 22 03 	call	0x644	; 0x644 <mem_cpy>
    4758:	40 0e       	add	r4, r16
    475a:	51 1e       	adc	r5, r17
    475c:	c8 01       	movw	r24, r16
    475e:	a0 e0       	ldi	r26, 0x00	; 0
    4760:	b0 e0       	ldi	r27, 0x00	; 0
    4762:	ed 81       	ldd	r30, Y+5	; 0x05
    4764:	fe 81       	ldd	r31, Y+6	; 0x06
    4766:	26 81       	ldd	r18, Z+6	; 0x06
    4768:	37 81       	ldd	r19, Z+7	; 0x07
    476a:	40 85       	ldd	r20, Z+8	; 0x08
    476c:	51 85       	ldd	r21, Z+9	; 0x09
    476e:	28 0f       	add	r18, r24
    4770:	39 1f       	adc	r19, r25
    4772:	4a 1f       	adc	r20, r26
    4774:	5b 1f       	adc	r21, r27
    4776:	26 83       	std	Z+6, r18	; 0x06
    4778:	37 83       	std	Z+7, r19	; 0x07
    477a:	40 87       	std	Z+8, r20	; 0x08
    477c:	51 87       	std	Z+9, r21	; 0x09
    477e:	eb 81       	ldd	r30, Y+3	; 0x03
    4780:	fc 81       	ldd	r31, Y+4	; 0x04
    4782:	80 81       	ld	r24, Z
    4784:	91 81       	ldd	r25, Z+1	; 0x01
    4786:	80 0f       	add	r24, r16
    4788:	91 1f       	adc	r25, r17
    478a:	91 83       	std	Z+1, r25	; 0x01
    478c:	80 83       	st	Z, r24
    478e:	60 1a       	sub	r6, r16
    4790:	71 0a       	sbc	r7, r17
    4792:	61 14       	cp	r6, r1
    4794:	71 04       	cpc	r7, r1
    4796:	09 f0       	breq	.+2      	; 0x479a <f_read+0x394>
    4798:	8e ce       	rjmp	.-740    	; 0x44b6 <f_read+0xb0>
    479a:	88 2d       	mov	r24, r8
    479c:	26 96       	adiw	r28, 0x06	; 6
    479e:	0f b6       	in	r0, 0x3f	; 63
    47a0:	f8 94       	cli
    47a2:	de bf       	out	0x3e, r29	; 62
    47a4:	0f be       	out	0x3f, r0	; 63
    47a6:	cd bf       	out	0x3d, r28	; 61
    47a8:	cf 91       	pop	r28
    47aa:	df 91       	pop	r29
    47ac:	1f 91       	pop	r17
    47ae:	0f 91       	pop	r16
    47b0:	ff 90       	pop	r15
    47b2:	ef 90       	pop	r14
    47b4:	df 90       	pop	r13
    47b6:	cf 90       	pop	r12
    47b8:	bf 90       	pop	r11
    47ba:	af 90       	pop	r10
    47bc:	9f 90       	pop	r9
    47be:	8f 90       	pop	r8
    47c0:	7f 90       	pop	r7
    47c2:	6f 90       	pop	r6
    47c4:	5f 90       	pop	r5
    47c6:	4f 90       	pop	r4
    47c8:	3f 90       	pop	r3
    47ca:	08 95       	ret

000047cc <f_gets>:
    47cc:	4f 92       	push	r4
    47ce:	5f 92       	push	r5
    47d0:	6f 92       	push	r6
    47d2:	7f 92       	push	r7
    47d4:	8f 92       	push	r8
    47d6:	9f 92       	push	r9
    47d8:	af 92       	push	r10
    47da:	bf 92       	push	r11
    47dc:	cf 92       	push	r12
    47de:	df 92       	push	r13
    47e0:	ef 92       	push	r14
    47e2:	ff 92       	push	r15
    47e4:	0f 93       	push	r16
    47e6:	1f 93       	push	r17
    47e8:	df 93       	push	r29
    47ea:	cf 93       	push	r28
    47ec:	00 d0       	rcall	.+0      	; 0x47ee <f_gets+0x22>
    47ee:	00 d0       	rcall	.+0      	; 0x47f0 <f_gets+0x24>
    47f0:	cd b7       	in	r28, 0x3d	; 61
    47f2:	de b7       	in	r29, 0x3e	; 62
    47f4:	6c 01       	movw	r12, r24
    47f6:	5b 01       	movw	r10, r22
    47f8:	4a 01       	movw	r8, r20
    47fa:	7c 01       	movw	r14, r24
    47fc:	00 e0       	ldi	r16, 0x00	; 0
    47fe:	10 e0       	ldi	r17, 0x00	; 0
    4800:	08 94       	sec
    4802:	a1 08       	sbc	r10, r1
    4804:	b1 08       	sbc	r11, r1
    4806:	83 e0       	ldi	r24, 0x03	; 3
    4808:	48 2e       	mov	r4, r24
    480a:	51 2c       	mov	r5, r1
    480c:	4c 0e       	add	r4, r28
    480e:	5d 1e       	adc	r5, r29
    4810:	3e 01       	movw	r6, r28
    4812:	08 94       	sec
    4814:	61 1c       	adc	r6, r1
    4816:	71 1c       	adc	r7, r1
    4818:	13 c0       	rjmp	.+38     	; 0x4840 <f_gets+0x74>
    481a:	c4 01       	movw	r24, r8
    481c:	b3 01       	movw	r22, r6
    481e:	41 e0       	ldi	r20, 0x01	; 1
    4820:	50 e0       	ldi	r21, 0x00	; 0
    4822:	92 01       	movw	r18, r4
    4824:	0e 94 03 22 	call	0x4406	; 0x4406 <f_read>
    4828:	8b 81       	ldd	r24, Y+3	; 0x03
    482a:	9c 81       	ldd	r25, Y+4	; 0x04
    482c:	01 97       	sbiw	r24, 0x01	; 1
    482e:	59 f4       	brne	.+22     	; 0x4846 <f_gets+0x7a>
    4830:	89 81       	ldd	r24, Y+1	; 0x01
    4832:	f7 01       	movw	r30, r14
    4834:	81 93       	st	Z+, r24
    4836:	7f 01       	movw	r14, r30
    4838:	0f 5f       	subi	r16, 0xFF	; 255
    483a:	1f 4f       	sbci	r17, 0xFF	; 255
    483c:	8a 30       	cpi	r24, 0x0A	; 10
    483e:	19 f0       	breq	.+6      	; 0x4846 <f_gets+0x7a>
    4840:	0a 15       	cp	r16, r10
    4842:	1b 05       	cpc	r17, r11
    4844:	54 f3       	brlt	.-44     	; 0x481a <f_gets+0x4e>
    4846:	f7 01       	movw	r30, r14
    4848:	10 82       	st	Z, r1
    484a:	01 2b       	or	r16, r17
    484c:	11 f4       	brne	.+4      	; 0x4852 <f_gets+0x86>
    484e:	cc 24       	eor	r12, r12
    4850:	dd 24       	eor	r13, r13
    4852:	c6 01       	movw	r24, r12
    4854:	0f 90       	pop	r0
    4856:	0f 90       	pop	r0
    4858:	0f 90       	pop	r0
    485a:	0f 90       	pop	r0
    485c:	cf 91       	pop	r28
    485e:	df 91       	pop	r29
    4860:	1f 91       	pop	r17
    4862:	0f 91       	pop	r16
    4864:	ff 90       	pop	r15
    4866:	ef 90       	pop	r14
    4868:	df 90       	pop	r13
    486a:	cf 90       	pop	r12
    486c:	bf 90       	pop	r11
    486e:	af 90       	pop	r10
    4870:	9f 90       	pop	r9
    4872:	8f 90       	pop	r8
    4874:	7f 90       	pop	r7
    4876:	6f 90       	pop	r6
    4878:	5f 90       	pop	r5
    487a:	4f 90       	pop	r4
    487c:	08 95       	ret

0000487e <wait_ready>:
    487e:	82 e3       	ldi	r24, 0x32	; 50
    4880:	80 93 5a 06 	sts	0x065A, r24
    4884:	8f ef       	ldi	r24, 0xFF	; 255
    4886:	8f b9       	out	0x0f, r24	; 15
    4888:	77 9b       	sbis	0x0e, 7	; 14
    488a:	fe cf       	rjmp	.-4      	; 0x4888 <wait_ready+0xa>
    488c:	8f b1       	in	r24, 0x0f	; 15
    488e:	2f ef       	ldi	r18, 0xFF	; 255
    4890:	2f b9       	out	0x0f, r18	; 15
    4892:	77 9b       	sbis	0x0e, 7	; 14
    4894:	fe cf       	rjmp	.-4      	; 0x4892 <wait_ready+0x14>
    4896:	9f b1       	in	r25, 0x0f	; 15
    4898:	9f 3f       	cpi	r25, 0xFF	; 255
    489a:	21 f0       	breq	.+8      	; 0x48a4 <wait_ready+0x26>
    489c:	80 91 5a 06 	lds	r24, 0x065A
    48a0:	88 23       	and	r24, r24
    48a2:	b1 f7       	brne	.-20     	; 0x4890 <wait_ready+0x12>
    48a4:	89 2f       	mov	r24, r25
    48a6:	08 95       	ret

000048a8 <select>:
    48a8:	c4 98       	cbi	0x18, 4	; 24
    48aa:	0e 94 3f 24 	call	0x487e	; 0x487e <wait_ready>
    48ae:	8f 3f       	cpi	r24, 0xFF	; 255
    48b0:	11 f4       	brne	.+4      	; 0x48b6 <select+0xe>
    48b2:	81 e0       	ldi	r24, 0x01	; 1
    48b4:	08 95       	ret
    48b6:	c4 9a       	sbi	0x18, 4	; 24
    48b8:	8f ef       	ldi	r24, 0xFF	; 255
    48ba:	8f b9       	out	0x0f, r24	; 15
    48bc:	77 9b       	sbis	0x0e, 7	; 14
    48be:	fe cf       	rjmp	.-4      	; 0x48bc <select+0x14>
    48c0:	8f b1       	in	r24, 0x0f	; 15
    48c2:	80 e0       	ldi	r24, 0x00	; 0
    48c4:	08 95       	ret

000048c6 <rcvr_datablock>:
    48c6:	fc 01       	movw	r30, r24
    48c8:	20 e0       	ldi	r18, 0x00	; 0
    48ca:	30 e0       	ldi	r19, 0x00	; 0
    48cc:	5f ef       	ldi	r21, 0xFF	; 255
    48ce:	a0 e0       	ldi	r26, 0x00	; 0
    48d0:	bc e6       	ldi	r27, 0x6C	; 108
    48d2:	5f b9       	out	0x0f, r21	; 15
    48d4:	77 9b       	sbis	0x0e, 7	; 14
    48d6:	fe cf       	rjmp	.-4      	; 0x48d4 <rcvr_datablock+0xe>
    48d8:	4f b1       	in	r20, 0x0f	; 15
    48da:	cd 01       	movw	r24, r26
    48dc:	01 97       	sbiw	r24, 0x01	; 1
    48de:	f1 f7       	brne	.-4      	; 0x48dc <rcvr_datablock+0x16>
    48e0:	2f 5f       	subi	r18, 0xFF	; 255
    48e2:	3f 4f       	sbci	r19, 0xFF	; 255
    48e4:	24 31       	cpi	r18, 0x14	; 20
    48e6:	31 05       	cpc	r19, r1
    48e8:	11 f0       	breq	.+4      	; 0x48ee <rcvr_datablock+0x28>
    48ea:	4f 3f       	cpi	r20, 0xFF	; 255
    48ec:	91 f3       	breq	.-28     	; 0x48d2 <rcvr_datablock+0xc>
    48ee:	4e 3f       	cpi	r20, 0xFE	; 254
    48f0:	11 f0       	breq	.+4      	; 0x48f6 <rcvr_datablock+0x30>
    48f2:	80 e0       	ldi	r24, 0x00	; 0
    48f4:	08 95       	ret
    48f6:	9f ef       	ldi	r25, 0xFF	; 255
    48f8:	9f b9       	out	0x0f, r25	; 15
    48fa:	77 9b       	sbis	0x0e, 7	; 14
    48fc:	fe cf       	rjmp	.-4      	; 0x48fa <rcvr_datablock+0x34>
    48fe:	8f b1       	in	r24, 0x0f	; 15
    4900:	80 83       	st	Z, r24
    4902:	9f b9       	out	0x0f, r25	; 15
    4904:	77 9b       	sbis	0x0e, 7	; 14
    4906:	fe cf       	rjmp	.-4      	; 0x4904 <rcvr_datablock+0x3e>
    4908:	8f b1       	in	r24, 0x0f	; 15
    490a:	81 83       	std	Z+1, r24	; 0x01
    490c:	9f b9       	out	0x0f, r25	; 15
    490e:	77 9b       	sbis	0x0e, 7	; 14
    4910:	fe cf       	rjmp	.-4      	; 0x490e <rcvr_datablock+0x48>
    4912:	8f b1       	in	r24, 0x0f	; 15
    4914:	82 83       	std	Z+2, r24	; 0x02
    4916:	9f b9       	out	0x0f, r25	; 15
    4918:	77 9b       	sbis	0x0e, 7	; 14
    491a:	fe cf       	rjmp	.-4      	; 0x4918 <rcvr_datablock+0x52>
    491c:	8f b1       	in	r24, 0x0f	; 15
    491e:	83 83       	std	Z+3, r24	; 0x03
    4920:	64 50       	subi	r22, 0x04	; 4
    4922:	70 40       	sbci	r23, 0x00	; 0
    4924:	11 f0       	breq	.+4      	; 0x492a <rcvr_datablock+0x64>
    4926:	34 96       	adiw	r30, 0x04	; 4
    4928:	e7 cf       	rjmp	.-50     	; 0x48f8 <rcvr_datablock+0x32>
    492a:	8f ef       	ldi	r24, 0xFF	; 255
    492c:	8f b9       	out	0x0f, r24	; 15
    492e:	77 9b       	sbis	0x0e, 7	; 14
    4930:	fe cf       	rjmp	.-4      	; 0x492e <rcvr_datablock+0x68>
    4932:	8f b1       	in	r24, 0x0f	; 15
    4934:	8f ef       	ldi	r24, 0xFF	; 255
    4936:	8f b9       	out	0x0f, r24	; 15
    4938:	77 9b       	sbis	0x0e, 7	; 14
    493a:	fe cf       	rjmp	.-4      	; 0x4938 <rcvr_datablock+0x72>
    493c:	8f b1       	in	r24, 0x0f	; 15
    493e:	81 e0       	ldi	r24, 0x01	; 1
    4940:	08 95       	ret

00004942 <xmit_datablock>:
    4942:	1f 93       	push	r17
    4944:	cf 93       	push	r28
    4946:	df 93       	push	r29
    4948:	ec 01       	movw	r28, r24
    494a:	16 2f       	mov	r17, r22
    494c:	0e 94 3f 24 	call	0x487e	; 0x487e <wait_ready>
    4950:	8f 3f       	cpi	r24, 0xFF	; 255
    4952:	11 f0       	breq	.+4      	; 0x4958 <xmit_datablock+0x16>
    4954:	90 e0       	ldi	r25, 0x00	; 0
    4956:	28 c0       	rjmp	.+80     	; 0x49a8 <xmit_datablock+0x66>
    4958:	1f b9       	out	0x0f, r17	; 15
    495a:	77 9b       	sbis	0x0e, 7	; 14
    495c:	fe cf       	rjmp	.-4      	; 0x495a <xmit_datablock+0x18>
    495e:	1d 3f       	cpi	r17, 0xFD	; 253
    4960:	11 f4       	brne	.+4      	; 0x4966 <xmit_datablock+0x24>
    4962:	91 e0       	ldi	r25, 0x01	; 1
    4964:	21 c0       	rjmp	.+66     	; 0x49a8 <xmit_datablock+0x66>
    4966:	90 e0       	ldi	r25, 0x00	; 0
    4968:	88 81       	ld	r24, Y
    496a:	8f b9       	out	0x0f, r24	; 15
    496c:	77 9b       	sbis	0x0e, 7	; 14
    496e:	fe cf       	rjmp	.-4      	; 0x496c <xmit_datablock+0x2a>
    4970:	89 81       	ldd	r24, Y+1	; 0x01
    4972:	8f b9       	out	0x0f, r24	; 15
    4974:	77 9b       	sbis	0x0e, 7	; 14
    4976:	fe cf       	rjmp	.-4      	; 0x4974 <xmit_datablock+0x32>
    4978:	91 50       	subi	r25, 0x01	; 1
    497a:	11 f0       	breq	.+4      	; 0x4980 <xmit_datablock+0x3e>
    497c:	22 96       	adiw	r28, 0x02	; 2
    497e:	f4 cf       	rjmp	.-24     	; 0x4968 <xmit_datablock+0x26>
    4980:	8f ef       	ldi	r24, 0xFF	; 255
    4982:	8f b9       	out	0x0f, r24	; 15
    4984:	77 9b       	sbis	0x0e, 7	; 14
    4986:	fe cf       	rjmp	.-4      	; 0x4984 <xmit_datablock+0x42>
    4988:	8f ef       	ldi	r24, 0xFF	; 255
    498a:	8f b9       	out	0x0f, r24	; 15
    498c:	77 9b       	sbis	0x0e, 7	; 14
    498e:	fe cf       	rjmp	.-4      	; 0x498c <xmit_datablock+0x4a>
    4990:	8f ef       	ldi	r24, 0xFF	; 255
    4992:	8f b9       	out	0x0f, r24	; 15
    4994:	77 9b       	sbis	0x0e, 7	; 14
    4996:	fe cf       	rjmp	.-4      	; 0x4994 <xmit_datablock+0x52>
    4998:	8f b1       	in	r24, 0x0f	; 15
    499a:	90 e0       	ldi	r25, 0x00	; 0
    499c:	8f 71       	andi	r24, 0x1F	; 31
    499e:	85 30       	cpi	r24, 0x05	; 5
    49a0:	09 f0       	breq	.+2      	; 0x49a4 <xmit_datablock+0x62>
    49a2:	91 e0       	ldi	r25, 0x01	; 1
    49a4:	81 e0       	ldi	r24, 0x01	; 1
    49a6:	98 27       	eor	r25, r24
    49a8:	89 2f       	mov	r24, r25
    49aa:	df 91       	pop	r29
    49ac:	cf 91       	pop	r28
    49ae:	1f 91       	pop	r17
    49b0:	08 95       	ret

000049b2 <send_cmd>:
    49b2:	df 92       	push	r13
    49b4:	ef 92       	push	r14
    49b6:	ff 92       	push	r15
    49b8:	0f 93       	push	r16
    49ba:	1f 93       	push	r17
    49bc:	d8 2e       	mov	r13, r24
    49be:	7a 01       	movw	r14, r20
    49c0:	8b 01       	movw	r16, r22
    49c2:	87 ff       	sbrs	r24, 7
    49c4:	0c c0       	rjmp	.+24     	; 0x49de <send_cmd+0x2c>
    49c6:	87 e7       	ldi	r24, 0x77	; 119
    49c8:	40 e0       	ldi	r20, 0x00	; 0
    49ca:	50 e0       	ldi	r21, 0x00	; 0
    49cc:	60 e0       	ldi	r22, 0x00	; 0
    49ce:	70 e0       	ldi	r23, 0x00	; 0
    49d0:	0e 94 d9 24 	call	0x49b2	; 0x49b2 <send_cmd>
    49d4:	82 30       	cpi	r24, 0x02	; 2
    49d6:	08 f0       	brcs	.+2      	; 0x49da <send_cmd+0x28>
    49d8:	48 c0       	rjmp	.+144    	; 0x4a6a <send_cmd+0xb8>
    49da:	8f e7       	ldi	r24, 0x7F	; 127
    49dc:	d8 22       	and	r13, r24
    49de:	c4 9a       	sbi	0x18, 4	; 24
    49e0:	8f ef       	ldi	r24, 0xFF	; 255
    49e2:	8f b9       	out	0x0f, r24	; 15
    49e4:	77 9b       	sbis	0x0e, 7	; 14
    49e6:	fe cf       	rjmp	.-4      	; 0x49e4 <send_cmd+0x32>
    49e8:	8f b1       	in	r24, 0x0f	; 15
    49ea:	0e 94 54 24 	call	0x48a8	; 0x48a8 <select>
    49ee:	88 23       	and	r24, r24
    49f0:	11 f4       	brne	.+4      	; 0x49f6 <send_cmd+0x44>
    49f2:	8f ef       	ldi	r24, 0xFF	; 255
    49f4:	3a c0       	rjmp	.+116    	; 0x4a6a <send_cmd+0xb8>
    49f6:	df b8       	out	0x0f, r13	; 15
    49f8:	77 9b       	sbis	0x0e, 7	; 14
    49fa:	fe cf       	rjmp	.-4      	; 0x49f8 <send_cmd+0x46>
    49fc:	81 2f       	mov	r24, r17
    49fe:	99 27       	eor	r25, r25
    4a00:	aa 27       	eor	r26, r26
    4a02:	bb 27       	eor	r27, r27
    4a04:	8f b9       	out	0x0f, r24	; 15
    4a06:	77 9b       	sbis	0x0e, 7	; 14
    4a08:	fe cf       	rjmp	.-4      	; 0x4a06 <send_cmd+0x54>
    4a0a:	c8 01       	movw	r24, r16
    4a0c:	aa 27       	eor	r26, r26
    4a0e:	bb 27       	eor	r27, r27
    4a10:	8f b9       	out	0x0f, r24	; 15
    4a12:	77 9b       	sbis	0x0e, 7	; 14
    4a14:	fe cf       	rjmp	.-4      	; 0x4a12 <send_cmd+0x60>
    4a16:	bb 27       	eor	r27, r27
    4a18:	a1 2f       	mov	r26, r17
    4a1a:	90 2f       	mov	r25, r16
    4a1c:	8f 2d       	mov	r24, r15
    4a1e:	8f b9       	out	0x0f, r24	; 15
    4a20:	77 9b       	sbis	0x0e, 7	; 14
    4a22:	fe cf       	rjmp	.-4      	; 0x4a20 <send_cmd+0x6e>
    4a24:	ef b8       	out	0x0f, r14	; 15
    4a26:	77 9b       	sbis	0x0e, 7	; 14
    4a28:	fe cf       	rjmp	.-4      	; 0x4a26 <send_cmd+0x74>
    4a2a:	80 e4       	ldi	r24, 0x40	; 64
    4a2c:	d8 16       	cp	r13, r24
    4a2e:	11 f4       	brne	.+4      	; 0x4a34 <send_cmd+0x82>
    4a30:	85 e9       	ldi	r24, 0x95	; 149
    4a32:	06 c0       	rjmp	.+12     	; 0x4a40 <send_cmd+0x8e>
    4a34:	88 e4       	ldi	r24, 0x48	; 72
    4a36:	d8 16       	cp	r13, r24
    4a38:	11 f4       	brne	.+4      	; 0x4a3e <send_cmd+0x8c>
    4a3a:	87 e8       	ldi	r24, 0x87	; 135
    4a3c:	01 c0       	rjmp	.+2      	; 0x4a40 <send_cmd+0x8e>
    4a3e:	81 e0       	ldi	r24, 0x01	; 1
    4a40:	8f b9       	out	0x0f, r24	; 15
    4a42:	77 9b       	sbis	0x0e, 7	; 14
    4a44:	fe cf       	rjmp	.-4      	; 0x4a42 <send_cmd+0x90>
    4a46:	8c e4       	ldi	r24, 0x4C	; 76
    4a48:	d8 16       	cp	r13, r24
    4a4a:	29 f4       	brne	.+10     	; 0x4a56 <send_cmd+0xa4>
    4a4c:	8f ef       	ldi	r24, 0xFF	; 255
    4a4e:	8f b9       	out	0x0f, r24	; 15
    4a50:	77 9b       	sbis	0x0e, 7	; 14
    4a52:	fe cf       	rjmp	.-4      	; 0x4a50 <send_cmd+0x9e>
    4a54:	8f b1       	in	r24, 0x0f	; 15
    4a56:	9a e0       	ldi	r25, 0x0A	; 10
    4a58:	2f ef       	ldi	r18, 0xFF	; 255
    4a5a:	2f b9       	out	0x0f, r18	; 15
    4a5c:	77 9b       	sbis	0x0e, 7	; 14
    4a5e:	fe cf       	rjmp	.-4      	; 0x4a5c <send_cmd+0xaa>
    4a60:	8f b1       	in	r24, 0x0f	; 15
    4a62:	87 ff       	sbrs	r24, 7
    4a64:	02 c0       	rjmp	.+4      	; 0x4a6a <send_cmd+0xb8>
    4a66:	91 50       	subi	r25, 0x01	; 1
    4a68:	c1 f7       	brne	.-16     	; 0x4a5a <send_cmd+0xa8>
    4a6a:	1f 91       	pop	r17
    4a6c:	0f 91       	pop	r16
    4a6e:	ff 90       	pop	r15
    4a70:	ef 90       	pop	r14
    4a72:	df 90       	pop	r13
    4a74:	08 95       	ret

00004a76 <disk_initialize>:
    4a76:	ef 92       	push	r14
    4a78:	ff 92       	push	r15
    4a7a:	0f 93       	push	r16
    4a7c:	1f 93       	push	r17
    4a7e:	df 93       	push	r29
    4a80:	cf 93       	push	r28
    4a82:	00 d0       	rcall	.+0      	; 0x4a84 <disk_initialize+0xe>
    4a84:	00 d0       	rcall	.+0      	; 0x4a86 <disk_initialize+0x10>
    4a86:	cd b7       	in	r28, 0x3d	; 61
    4a88:	de b7       	in	r29, 0x3e	; 62
    4a8a:	88 23       	and	r24, r24
    4a8c:	11 f0       	breq	.+4      	; 0x4a92 <disk_initialize+0x1c>
    4a8e:	81 e0       	ldi	r24, 0x01	; 1
    4a90:	a9 c0       	rjmp	.+338    	; 0x4be4 <disk_initialize+0x16e>
    4a92:	80 91 cd 01 	lds	r24, 0x01CD
    4a96:	81 fd       	sbrc	r24, 1
    4a98:	a3 c0       	rjmp	.+326    	; 0x4be0 <disk_initialize+0x16a>
    4a9a:	69 9a       	sbi	0x0d, 1	; 13
    4a9c:	8a e0       	ldi	r24, 0x0A	; 10
    4a9e:	9f ef       	ldi	r25, 0xFF	; 255
    4aa0:	9f b9       	out	0x0f, r25	; 15
    4aa2:	77 9b       	sbis	0x0e, 7	; 14
    4aa4:	fe cf       	rjmp	.-4      	; 0x4aa2 <disk_initialize+0x2c>
    4aa6:	2f b1       	in	r18, 0x0f	; 15
    4aa8:	81 50       	subi	r24, 0x01	; 1
    4aaa:	d1 f7       	brne	.-12     	; 0x4aa0 <disk_initialize+0x2a>
    4aac:	80 e4       	ldi	r24, 0x40	; 64
    4aae:	40 e0       	ldi	r20, 0x00	; 0
    4ab0:	50 e0       	ldi	r21, 0x00	; 0
    4ab2:	60 e0       	ldi	r22, 0x00	; 0
    4ab4:	70 e0       	ldi	r23, 0x00	; 0
    4ab6:	0e 94 d9 24 	call	0x49b2	; 0x49b2 <send_cmd>
    4aba:	81 30       	cpi	r24, 0x01	; 1
    4abc:	09 f0       	breq	.+2      	; 0x4ac0 <disk_initialize+0x4a>
    4abe:	7c c0       	rjmp	.+248    	; 0x4bb8 <disk_initialize+0x142>
    4ac0:	84 e6       	ldi	r24, 0x64	; 100
    4ac2:	80 93 59 06 	sts	0x0659, r24
    4ac6:	88 e4       	ldi	r24, 0x48	; 72
    4ac8:	4a ea       	ldi	r20, 0xAA	; 170
    4aca:	51 e0       	ldi	r21, 0x01	; 1
    4acc:	60 e0       	ldi	r22, 0x00	; 0
    4ace:	70 e0       	ldi	r23, 0x00	; 0
    4ad0:	0e 94 d9 24 	call	0x49b2	; 0x49b2 <send_cmd>
    4ad4:	81 30       	cpi	r24, 0x01	; 1
    4ad6:	09 f0       	breq	.+2      	; 0x4ada <disk_initialize+0x64>
    4ad8:	48 c0       	rjmp	.+144    	; 0x4b6a <disk_initialize+0xf4>
    4ada:	7e 01       	movw	r14, r28
    4adc:	08 94       	sec
    4ade:	e1 1c       	adc	r14, r1
    4ae0:	f1 1c       	adc	r15, r1
    4ae2:	87 01       	movw	r16, r14
    4ae4:	9f ef       	ldi	r25, 0xFF	; 255
    4ae6:	9e 01       	movw	r18, r28
    4ae8:	2b 5f       	subi	r18, 0xFB	; 251
    4aea:	3f 4f       	sbci	r19, 0xFF	; 255
    4aec:	9f b9       	out	0x0f, r25	; 15
    4aee:	77 9b       	sbis	0x0e, 7	; 14
    4af0:	fe cf       	rjmp	.-4      	; 0x4aee <disk_initialize+0x78>
    4af2:	8f b1       	in	r24, 0x0f	; 15
    4af4:	f8 01       	movw	r30, r16
    4af6:	81 93       	st	Z+, r24
    4af8:	8f 01       	movw	r16, r30
    4afa:	e2 17       	cp	r30, r18
    4afc:	f3 07       	cpc	r31, r19
    4afe:	b1 f7       	brne	.-20     	; 0x4aec <disk_initialize+0x76>
    4b00:	8b 81       	ldd	r24, Y+3	; 0x03
    4b02:	81 30       	cpi	r24, 0x01	; 1
    4b04:	09 f0       	breq	.+2      	; 0x4b08 <disk_initialize+0x92>
    4b06:	58 c0       	rjmp	.+176    	; 0x4bb8 <disk_initialize+0x142>
    4b08:	8c 81       	ldd	r24, Y+4	; 0x04
    4b0a:	8a 3a       	cpi	r24, 0xAA	; 170
    4b0c:	09 f0       	breq	.+2      	; 0x4b10 <disk_initialize+0x9a>
    4b0e:	54 c0       	rjmp	.+168    	; 0x4bb8 <disk_initialize+0x142>
    4b10:	80 91 59 06 	lds	r24, 0x0659
    4b14:	88 23       	and	r24, r24
    4b16:	49 f0       	breq	.+18     	; 0x4b2a <disk_initialize+0xb4>
    4b18:	89 ee       	ldi	r24, 0xE9	; 233
    4b1a:	40 e0       	ldi	r20, 0x00	; 0
    4b1c:	50 e0       	ldi	r21, 0x00	; 0
    4b1e:	60 e0       	ldi	r22, 0x00	; 0
    4b20:	70 e4       	ldi	r23, 0x40	; 64
    4b22:	0e 94 d9 24 	call	0x49b2	; 0x49b2 <send_cmd>
    4b26:	88 23       	and	r24, r24
    4b28:	99 f7       	brne	.-26     	; 0x4b10 <disk_initialize+0x9a>
    4b2a:	80 91 59 06 	lds	r24, 0x0659
    4b2e:	88 23       	and	r24, r24
    4b30:	09 f4       	brne	.+2      	; 0x4b34 <disk_initialize+0xbe>
    4b32:	42 c0       	rjmp	.+132    	; 0x4bb8 <disk_initialize+0x142>
    4b34:	8a e7       	ldi	r24, 0x7A	; 122
    4b36:	40 e0       	ldi	r20, 0x00	; 0
    4b38:	50 e0       	ldi	r21, 0x00	; 0
    4b3a:	60 e0       	ldi	r22, 0x00	; 0
    4b3c:	70 e0       	ldi	r23, 0x00	; 0
    4b3e:	0e 94 d9 24 	call	0x49b2	; 0x49b2 <send_cmd>
    4b42:	88 23       	and	r24, r24
    4b44:	c9 f5       	brne	.+114    	; 0x4bb8 <disk_initialize+0x142>
    4b46:	9f ef       	ldi	r25, 0xFF	; 255
    4b48:	9f b9       	out	0x0f, r25	; 15
    4b4a:	77 9b       	sbis	0x0e, 7	; 14
    4b4c:	fe cf       	rjmp	.-4      	; 0x4b4a <disk_initialize+0xd4>
    4b4e:	8f b1       	in	r24, 0x0f	; 15
    4b50:	f7 01       	movw	r30, r14
    4b52:	81 93       	st	Z+, r24
    4b54:	7f 01       	movw	r14, r30
    4b56:	e0 17       	cp	r30, r16
    4b58:	f1 07       	cpc	r31, r17
    4b5a:	b1 f7       	brne	.-20     	; 0x4b48 <disk_initialize+0xd2>
    4b5c:	89 81       	ldd	r24, Y+1	; 0x01
    4b5e:	86 fd       	sbrc	r24, 6
    4b60:	02 c0       	rjmp	.+4      	; 0x4b66 <disk_initialize+0xf0>
    4b62:	14 e0       	ldi	r17, 0x04	; 4
    4b64:	2a c0       	rjmp	.+84     	; 0x4bba <disk_initialize+0x144>
    4b66:	1c e0       	ldi	r17, 0x0C	; 12
    4b68:	28 c0       	rjmp	.+80     	; 0x4bba <disk_initialize+0x144>
    4b6a:	89 ee       	ldi	r24, 0xE9	; 233
    4b6c:	40 e0       	ldi	r20, 0x00	; 0
    4b6e:	50 e0       	ldi	r21, 0x00	; 0
    4b70:	60 e0       	ldi	r22, 0x00	; 0
    4b72:	70 e0       	ldi	r23, 0x00	; 0
    4b74:	0e 94 d9 24 	call	0x49b2	; 0x49b2 <send_cmd>
    4b78:	82 30       	cpi	r24, 0x02	; 2
    4b7a:	18 f0       	brcs	.+6      	; 0x4b82 <disk_initialize+0x10c>
    4b7c:	01 e4       	ldi	r16, 0x41	; 65
    4b7e:	11 e0       	ldi	r17, 0x01	; 1
    4b80:	02 c0       	rjmp	.+4      	; 0x4b86 <disk_initialize+0x110>
    4b82:	09 ee       	ldi	r16, 0xE9	; 233
    4b84:	12 e0       	ldi	r17, 0x02	; 2
    4b86:	80 91 59 06 	lds	r24, 0x0659
    4b8a:	88 23       	and	r24, r24
    4b8c:	49 f0       	breq	.+18     	; 0x4ba0 <disk_initialize+0x12a>
    4b8e:	80 2f       	mov	r24, r16
    4b90:	40 e0       	ldi	r20, 0x00	; 0
    4b92:	50 e0       	ldi	r21, 0x00	; 0
    4b94:	60 e0       	ldi	r22, 0x00	; 0
    4b96:	70 e0       	ldi	r23, 0x00	; 0
    4b98:	0e 94 d9 24 	call	0x49b2	; 0x49b2 <send_cmd>
    4b9c:	88 23       	and	r24, r24
    4b9e:	99 f7       	brne	.-26     	; 0x4b86 <disk_initialize+0x110>
    4ba0:	80 91 59 06 	lds	r24, 0x0659
    4ba4:	88 23       	and	r24, r24
    4ba6:	41 f0       	breq	.+16     	; 0x4bb8 <disk_initialize+0x142>
    4ba8:	80 e5       	ldi	r24, 0x50	; 80
    4baa:	40 e0       	ldi	r20, 0x00	; 0
    4bac:	52 e0       	ldi	r21, 0x02	; 2
    4bae:	60 e0       	ldi	r22, 0x00	; 0
    4bb0:	70 e0       	ldi	r23, 0x00	; 0
    4bb2:	0e 94 d9 24 	call	0x49b2	; 0x49b2 <send_cmd>
    4bb6:	81 11       	cpse	r24, r1
    4bb8:	10 e0       	ldi	r17, 0x00	; 0
    4bba:	10 93 5b 06 	sts	0x065B, r17
    4bbe:	c4 9a       	sbi	0x18, 4	; 24
    4bc0:	8f ef       	ldi	r24, 0xFF	; 255
    4bc2:	8f b9       	out	0x0f, r24	; 15
    4bc4:	77 9b       	sbis	0x0e, 7	; 14
    4bc6:	fe cf       	rjmp	.-4      	; 0x4bc4 <disk_initialize+0x14e>
    4bc8:	8f b1       	in	r24, 0x0f	; 15
    4bca:	11 23       	and	r17, r17
    4bcc:	49 f0       	breq	.+18     	; 0x4be0 <disk_initialize+0x16a>
    4bce:	80 91 cd 01 	lds	r24, 0x01CD
    4bd2:	8e 7f       	andi	r24, 0xFE	; 254
    4bd4:	80 93 cd 01 	sts	0x01CD, r24
    4bd8:	8d b1       	in	r24, 0x0d	; 13
    4bda:	8c 7f       	andi	r24, 0xFC	; 252
    4bdc:	8d b9       	out	0x0d, r24	; 13
    4bde:	af 98       	cbi	0x15, 7	; 21
    4be0:	80 91 cd 01 	lds	r24, 0x01CD
    4be4:	0f 90       	pop	r0
    4be6:	0f 90       	pop	r0
    4be8:	0f 90       	pop	r0
    4bea:	0f 90       	pop	r0
    4bec:	cf 91       	pop	r28
    4bee:	df 91       	pop	r29
    4bf0:	1f 91       	pop	r17
    4bf2:	0f 91       	pop	r16
    4bf4:	ff 90       	pop	r15
    4bf6:	ef 90       	pop	r14
    4bf8:	08 95       	ret

00004bfa <disk_status>:
    4bfa:	88 23       	and	r24, r24
    4bfc:	11 f0       	breq	.+4      	; 0x4c02 <disk_status+0x8>
    4bfe:	81 e0       	ldi	r24, 0x01	; 1
    4c00:	08 95       	ret
    4c02:	80 91 cd 01 	lds	r24, 0x01CD
    4c06:	08 95       	ret

00004c08 <disk_read>:
    4c08:	0f 93       	push	r16
    4c0a:	cf 93       	push	r28
    4c0c:	df 93       	push	r29
    4c0e:	eb 01       	movw	r28, r22
    4c10:	88 23       	and	r24, r24
    4c12:	09 f0       	breq	.+2      	; 0x4c16 <disk_read+0xe>
    4c14:	4b c0       	rjmp	.+150    	; 0x4cac <disk_read+0xa4>
    4c16:	00 23       	and	r16, r16
    4c18:	09 f4       	brne	.+2      	; 0x4c1c <disk_read+0x14>
    4c1a:	48 c0       	rjmp	.+144    	; 0x4cac <disk_read+0xa4>
    4c1c:	80 91 cd 01 	lds	r24, 0x01CD
    4c20:	80 ff       	sbrs	r24, 0
    4c22:	02 c0       	rjmp	.+4      	; 0x4c28 <disk_read+0x20>
    4c24:	03 e0       	ldi	r16, 0x03	; 3
    4c26:	43 c0       	rjmp	.+134    	; 0x4cae <disk_read+0xa6>
    4c28:	80 91 5b 06 	lds	r24, 0x065B
    4c2c:	83 fd       	sbrc	r24, 3
    4c2e:	07 c0       	rjmp	.+14     	; 0x4c3e <disk_read+0x36>
    4c30:	69 e0       	ldi	r22, 0x09	; 9
    4c32:	22 0f       	add	r18, r18
    4c34:	33 1f       	adc	r19, r19
    4c36:	44 1f       	adc	r20, r20
    4c38:	55 1f       	adc	r21, r21
    4c3a:	6a 95       	dec	r22
    4c3c:	d1 f7       	brne	.-12     	; 0x4c32 <disk_read+0x2a>
    4c3e:	01 30       	cpi	r16, 0x01	; 1
    4c40:	89 f4       	brne	.+34     	; 0x4c64 <disk_read+0x5c>
    4c42:	81 e5       	ldi	r24, 0x51	; 81
    4c44:	ba 01       	movw	r22, r20
    4c46:	a9 01       	movw	r20, r18
    4c48:	0e 94 d9 24 	call	0x49b2	; 0x49b2 <send_cmd>
    4c4c:	88 23       	and	r24, r24
    4c4e:	21 f5       	brne	.+72     	; 0x4c98 <disk_read+0x90>
    4c50:	ce 01       	movw	r24, r28
    4c52:	60 e0       	ldi	r22, 0x00	; 0
    4c54:	72 e0       	ldi	r23, 0x02	; 2
    4c56:	0e 94 63 24 	call	0x48c6	; 0x48c6 <rcvr_datablock>
    4c5a:	00 e0       	ldi	r16, 0x00	; 0
    4c5c:	88 23       	and	r24, r24
    4c5e:	e1 f4       	brne	.+56     	; 0x4c98 <disk_read+0x90>
    4c60:	01 e0       	ldi	r16, 0x01	; 1
    4c62:	1a c0       	rjmp	.+52     	; 0x4c98 <disk_read+0x90>
    4c64:	82 e5       	ldi	r24, 0x52	; 82
    4c66:	ba 01       	movw	r22, r20
    4c68:	a9 01       	movw	r20, r18
    4c6a:	0e 94 d9 24 	call	0x49b2	; 0x49b2 <send_cmd>
    4c6e:	88 23       	and	r24, r24
    4c70:	99 f4       	brne	.+38     	; 0x4c98 <disk_read+0x90>
    4c72:	ce 01       	movw	r24, r28
    4c74:	60 e0       	ldi	r22, 0x00	; 0
    4c76:	72 e0       	ldi	r23, 0x02	; 2
    4c78:	0e 94 63 24 	call	0x48c6	; 0x48c6 <rcvr_datablock>
    4c7c:	88 23       	and	r24, r24
    4c7e:	29 f0       	breq	.+10     	; 0x4c8a <disk_read+0x82>
    4c80:	01 50       	subi	r16, 0x01	; 1
    4c82:	19 f0       	breq	.+6      	; 0x4c8a <disk_read+0x82>
    4c84:	c0 50       	subi	r28, 0x00	; 0
    4c86:	de 4f       	sbci	r29, 0xFE	; 254
    4c88:	f4 cf       	rjmp	.-24     	; 0x4c72 <disk_read+0x6a>
    4c8a:	8c e4       	ldi	r24, 0x4C	; 76
    4c8c:	40 e0       	ldi	r20, 0x00	; 0
    4c8e:	50 e0       	ldi	r21, 0x00	; 0
    4c90:	60 e0       	ldi	r22, 0x00	; 0
    4c92:	70 e0       	ldi	r23, 0x00	; 0
    4c94:	0e 94 d9 24 	call	0x49b2	; 0x49b2 <send_cmd>
    4c98:	c4 9a       	sbi	0x18, 4	; 24
    4c9a:	8f ef       	ldi	r24, 0xFF	; 255
    4c9c:	8f b9       	out	0x0f, r24	; 15
    4c9e:	77 9b       	sbis	0x0e, 7	; 14
    4ca0:	fe cf       	rjmp	.-4      	; 0x4c9e <disk_read+0x96>
    4ca2:	8f b1       	in	r24, 0x0f	; 15
    4ca4:	00 23       	and	r16, r16
    4ca6:	19 f0       	breq	.+6      	; 0x4cae <disk_read+0xa6>
    4ca8:	01 e0       	ldi	r16, 0x01	; 1
    4caa:	01 c0       	rjmp	.+2      	; 0x4cae <disk_read+0xa6>
    4cac:	04 e0       	ldi	r16, 0x04	; 4
    4cae:	80 2f       	mov	r24, r16
    4cb0:	df 91       	pop	r29
    4cb2:	cf 91       	pop	r28
    4cb4:	0f 91       	pop	r16
    4cb6:	08 95       	ret

00004cb8 <disk_write>:
    4cb8:	cf 92       	push	r12
    4cba:	df 92       	push	r13
    4cbc:	ef 92       	push	r14
    4cbe:	ff 92       	push	r15
    4cc0:	0f 93       	push	r16
    4cc2:	cf 93       	push	r28
    4cc4:	df 93       	push	r29
    4cc6:	eb 01       	movw	r28, r22
    4cc8:	69 01       	movw	r12, r18
    4cca:	7a 01       	movw	r14, r20
    4ccc:	88 23       	and	r24, r24
    4cce:	09 f0       	breq	.+2      	; 0x4cd2 <disk_write+0x1a>
    4cd0:	59 c0       	rjmp	.+178    	; 0x4d84 <disk_write+0xcc>
    4cd2:	00 23       	and	r16, r16
    4cd4:	09 f4       	brne	.+2      	; 0x4cd8 <disk_write+0x20>
    4cd6:	56 c0       	rjmp	.+172    	; 0x4d84 <disk_write+0xcc>
    4cd8:	80 91 cd 01 	lds	r24, 0x01CD
    4cdc:	80 ff       	sbrs	r24, 0
    4cde:	02 c0       	rjmp	.+4      	; 0x4ce4 <disk_write+0x2c>
    4ce0:	03 e0       	ldi	r16, 0x03	; 3
    4ce2:	51 c0       	rjmp	.+162    	; 0x4d86 <disk_write+0xce>
    4ce4:	80 91 cd 01 	lds	r24, 0x01CD
    4ce8:	82 ff       	sbrs	r24, 2
    4cea:	02 c0       	rjmp	.+4      	; 0x4cf0 <disk_write+0x38>
    4cec:	02 e0       	ldi	r16, 0x02	; 2
    4cee:	4b c0       	rjmp	.+150    	; 0x4d86 <disk_write+0xce>
    4cf0:	80 91 5b 06 	lds	r24, 0x065B
    4cf4:	90 e0       	ldi	r25, 0x00	; 0
    4cf6:	83 fd       	sbrc	r24, 3
    4cf8:	07 c0       	rjmp	.+14     	; 0x4d08 <disk_write+0x50>
    4cfa:	79 e0       	ldi	r23, 0x09	; 9
    4cfc:	cc 0c       	add	r12, r12
    4cfe:	dd 1c       	adc	r13, r13
    4d00:	ee 1c       	adc	r14, r14
    4d02:	ff 1c       	adc	r15, r15
    4d04:	7a 95       	dec	r23
    4d06:	d1 f7       	brne	.-12     	; 0x4cfc <disk_write+0x44>
    4d08:	01 30       	cpi	r16, 0x01	; 1
    4d0a:	69 f4       	brne	.+26     	; 0x4d26 <disk_write+0x6e>
    4d0c:	88 e5       	ldi	r24, 0x58	; 88
    4d0e:	b7 01       	movw	r22, r14
    4d10:	a6 01       	movw	r20, r12
    4d12:	0e 94 d9 24 	call	0x49b2	; 0x49b2 <send_cmd>
    4d16:	88 23       	and	r24, r24
    4d18:	59 f5       	brne	.+86     	; 0x4d70 <disk_write+0xb8>
    4d1a:	ce 01       	movw	r24, r28
    4d1c:	6e ef       	ldi	r22, 0xFE	; 254
    4d1e:	0e 94 a1 24 	call	0x4942	; 0x4942 <xmit_datablock>
    4d22:	00 e0       	ldi	r16, 0x00	; 0
    4d24:	22 c0       	rjmp	.+68     	; 0x4d6a <disk_write+0xb2>
    4d26:	86 70       	andi	r24, 0x06	; 6
    4d28:	90 70       	andi	r25, 0x00	; 0
    4d2a:	89 2b       	or	r24, r25
    4d2c:	39 f0       	breq	.+14     	; 0x4d3c <disk_write+0x84>
    4d2e:	40 2f       	mov	r20, r16
    4d30:	50 e0       	ldi	r21, 0x00	; 0
    4d32:	60 e0       	ldi	r22, 0x00	; 0
    4d34:	70 e0       	ldi	r23, 0x00	; 0
    4d36:	87 ed       	ldi	r24, 0xD7	; 215
    4d38:	0e 94 d9 24 	call	0x49b2	; 0x49b2 <send_cmd>
    4d3c:	89 e5       	ldi	r24, 0x59	; 89
    4d3e:	b7 01       	movw	r22, r14
    4d40:	a6 01       	movw	r20, r12
    4d42:	0e 94 d9 24 	call	0x49b2	; 0x49b2 <send_cmd>
    4d46:	88 23       	and	r24, r24
    4d48:	99 f4       	brne	.+38     	; 0x4d70 <disk_write+0xb8>
    4d4a:	ce 01       	movw	r24, r28
    4d4c:	6c ef       	ldi	r22, 0xFC	; 252
    4d4e:	0e 94 a1 24 	call	0x4942	; 0x4942 <xmit_datablock>
    4d52:	88 23       	and	r24, r24
    4d54:	29 f0       	breq	.+10     	; 0x4d60 <disk_write+0xa8>
    4d56:	01 50       	subi	r16, 0x01	; 1
    4d58:	19 f0       	breq	.+6      	; 0x4d60 <disk_write+0xa8>
    4d5a:	c0 50       	subi	r28, 0x00	; 0
    4d5c:	de 4f       	sbci	r29, 0xFE	; 254
    4d5e:	f5 cf       	rjmp	.-22     	; 0x4d4a <disk_write+0x92>
    4d60:	80 e0       	ldi	r24, 0x00	; 0
    4d62:	90 e0       	ldi	r25, 0x00	; 0
    4d64:	6d ef       	ldi	r22, 0xFD	; 253
    4d66:	0e 94 a1 24 	call	0x4942	; 0x4942 <xmit_datablock>
    4d6a:	88 23       	and	r24, r24
    4d6c:	09 f4       	brne	.+2      	; 0x4d70 <disk_write+0xb8>
    4d6e:	01 e0       	ldi	r16, 0x01	; 1
    4d70:	c4 9a       	sbi	0x18, 4	; 24
    4d72:	8f ef       	ldi	r24, 0xFF	; 255
    4d74:	8f b9       	out	0x0f, r24	; 15
    4d76:	77 9b       	sbis	0x0e, 7	; 14
    4d78:	fe cf       	rjmp	.-4      	; 0x4d76 <disk_write+0xbe>
    4d7a:	8f b1       	in	r24, 0x0f	; 15
    4d7c:	00 23       	and	r16, r16
    4d7e:	19 f0       	breq	.+6      	; 0x4d86 <disk_write+0xce>
    4d80:	01 e0       	ldi	r16, 0x01	; 1
    4d82:	01 c0       	rjmp	.+2      	; 0x4d86 <disk_write+0xce>
    4d84:	04 e0       	ldi	r16, 0x04	; 4
    4d86:	80 2f       	mov	r24, r16
    4d88:	df 91       	pop	r29
    4d8a:	cf 91       	pop	r28
    4d8c:	0f 91       	pop	r16
    4d8e:	ff 90       	pop	r15
    4d90:	ef 90       	pop	r14
    4d92:	df 90       	pop	r13
    4d94:	cf 90       	pop	r12
    4d96:	08 95       	ret

00004d98 <disk_ioctl>:
    4d98:	ff 92       	push	r15
    4d9a:	0f 93       	push	r16
    4d9c:	1f 93       	push	r17
    4d9e:	df 93       	push	r29
    4da0:	cf 93       	push	r28
    4da2:	cd b7       	in	r28, 0x3d	; 61
    4da4:	de b7       	in	r29, 0x3e	; 62
    4da6:	60 97       	sbiw	r28, 0x10	; 16
    4da8:	0f b6       	in	r0, 0x3f	; 63
    4daa:	f8 94       	cli
    4dac:	de bf       	out	0x3e, r29	; 62
    4dae:	0f be       	out	0x3f, r0	; 63
    4db0:	cd bf       	out	0x3d, r28	; 61
    4db2:	8a 01       	movw	r16, r20
    4db4:	88 23       	and	r24, r24
    4db6:	09 f0       	breq	.+2      	; 0x4dba <disk_ioctl+0x22>
    4db8:	7e c1       	rjmp	.+764    	; 0x50b6 <disk_ioctl+0x31e>
    4dba:	65 30       	cpi	r22, 0x05	; 5
    4dbc:	61 f4       	brne	.+24     	; 0x4dd6 <disk_ioctl+0x3e>
    4dbe:	fa 01       	movw	r30, r20
    4dc0:	80 81       	ld	r24, Z
    4dc2:	82 30       	cpi	r24, 0x02	; 2
    4dc4:	30 f0       	brcs	.+12     	; 0x4dd2 <disk_ioctl+0x3a>
    4dc6:	82 30       	cpi	r24, 0x02	; 2
    4dc8:	09 f0       	breq	.+2      	; 0x4dcc <disk_ioctl+0x34>
    4dca:	75 c1       	rjmp	.+746    	; 0x50b6 <disk_ioctl+0x31e>
    4dcc:	81 e0       	ldi	r24, 0x01	; 1
    4dce:	fa 01       	movw	r30, r20
    4dd0:	81 83       	std	Z+1, r24	; 0x01
    4dd2:	90 e0       	ldi	r25, 0x00	; 0
    4dd4:	71 c1       	rjmp	.+738    	; 0x50b8 <disk_ioctl+0x320>
    4dd6:	80 91 cd 01 	lds	r24, 0x01CD
    4dda:	80 ff       	sbrs	r24, 0
    4ddc:	02 c0       	rjmp	.+4      	; 0x4de2 <disk_ioctl+0x4a>
    4dde:	93 e0       	ldi	r25, 0x03	; 3
    4de0:	6b c1       	rjmp	.+726    	; 0x50b8 <disk_ioctl+0x320>
    4de2:	6a 30       	cpi	r22, 0x0A	; 10
    4de4:	09 f4       	brne	.+2      	; 0x4de8 <disk_ioctl+0x50>
    4de6:	1d c1       	rjmp	.+570    	; 0x5022 <disk_ioctl+0x28a>
    4de8:	6b 30       	cpi	r22, 0x0B	; 11
    4dea:	50 f4       	brcc	.+20     	; 0x4e00 <disk_ioctl+0x68>
    4dec:	61 30       	cpi	r22, 0x01	; 1
    4dee:	11 f1       	breq	.+68     	; 0x4e34 <disk_ioctl+0x9c>
    4df0:	61 30       	cpi	r22, 0x01	; 1
    4df2:	a0 f0       	brcs	.+40     	; 0x4e1c <disk_ioctl+0x84>
    4df4:	62 30       	cpi	r22, 0x02	; 2
    4df6:	09 f4       	brne	.+2      	; 0x4dfa <disk_ioctl+0x62>
    4df8:	7e c0       	rjmp	.+252    	; 0x4ef6 <disk_ioctl+0x15e>
    4dfa:	63 30       	cpi	r22, 0x03	; 3
    4dfc:	69 f4       	brne	.+26     	; 0x4e18 <disk_ioctl+0x80>
    4dfe:	81 c0       	rjmp	.+258    	; 0x4f02 <disk_ioctl+0x16a>
    4e00:	6c 30       	cpi	r22, 0x0C	; 12
    4e02:	09 f4       	brne	.+2      	; 0x4e06 <disk_ioctl+0x6e>
    4e04:	15 c1       	rjmp	.+554    	; 0x5030 <disk_ioctl+0x298>
    4e06:	6c 30       	cpi	r22, 0x0C	; 12
    4e08:	08 f4       	brcc	.+2      	; 0x4e0c <disk_ioctl+0x74>
    4e0a:	10 c1       	rjmp	.+544    	; 0x502c <disk_ioctl+0x294>
    4e0c:	6d 30       	cpi	r22, 0x0D	; 13
    4e0e:	09 f4       	brne	.+2      	; 0x4e12 <disk_ioctl+0x7a>
    4e10:	1c c1       	rjmp	.+568    	; 0x504a <disk_ioctl+0x2b2>
    4e12:	6e 30       	cpi	r22, 0x0E	; 14
    4e14:	09 f4       	brne	.+2      	; 0x4e18 <disk_ioctl+0x80>
    4e16:	31 c1       	rjmp	.+610    	; 0x507a <disk_ioctl+0x2e2>
    4e18:	94 e0       	ldi	r25, 0x04	; 4
    4e1a:	46 c1       	rjmp	.+652    	; 0x50a8 <disk_ioctl+0x310>
    4e1c:	0e 94 54 24 	call	0x48a8	; 0x48a8 <select>
    4e20:	88 23       	and	r24, r24
    4e22:	09 f4       	brne	.+2      	; 0x4e26 <disk_ioctl+0x8e>
    4e24:	40 c1       	rjmp	.+640    	; 0x50a6 <disk_ioctl+0x30e>
    4e26:	c4 9a       	sbi	0x18, 4	; 24
    4e28:	8f ef       	ldi	r24, 0xFF	; 255
    4e2a:	8f b9       	out	0x0f, r24	; 15
    4e2c:	77 9b       	sbis	0x0e, 7	; 14
    4e2e:	fe cf       	rjmp	.-4      	; 0x4e2c <disk_ioctl+0x94>
    4e30:	8f b1       	in	r24, 0x0f	; 15
    4e32:	f5 c0       	rjmp	.+490    	; 0x501e <disk_ioctl+0x286>
    4e34:	89 e4       	ldi	r24, 0x49	; 73
    4e36:	40 e0       	ldi	r20, 0x00	; 0
    4e38:	50 e0       	ldi	r21, 0x00	; 0
    4e3a:	60 e0       	ldi	r22, 0x00	; 0
    4e3c:	70 e0       	ldi	r23, 0x00	; 0
    4e3e:	0e 94 d9 24 	call	0x49b2	; 0x49b2 <send_cmd>
    4e42:	88 23       	and	r24, r24
    4e44:	09 f0       	breq	.+2      	; 0x4e48 <disk_ioctl+0xb0>
    4e46:	2f c1       	rjmp	.+606    	; 0x50a6 <disk_ioctl+0x30e>
    4e48:	ce 01       	movw	r24, r28
    4e4a:	01 96       	adiw	r24, 0x01	; 1
    4e4c:	60 e1       	ldi	r22, 0x10	; 16
    4e4e:	70 e0       	ldi	r23, 0x00	; 0
    4e50:	0e 94 63 24 	call	0x48c6	; 0x48c6 <rcvr_datablock>
    4e54:	88 23       	and	r24, r24
    4e56:	09 f4       	brne	.+2      	; 0x4e5a <disk_ioctl+0xc2>
    4e58:	26 c1       	rjmp	.+588    	; 0x50a6 <disk_ioctl+0x30e>
    4e5a:	89 81       	ldd	r24, Y+1	; 0x01
    4e5c:	82 95       	swap	r24
    4e5e:	86 95       	lsr	r24
    4e60:	86 95       	lsr	r24
    4e62:	83 70       	andi	r24, 0x03	; 3
    4e64:	7a 85       	ldd	r23, Y+10	; 0x0a
    4e66:	49 85       	ldd	r20, Y+9	; 0x09
    4e68:	81 30       	cpi	r24, 0x01	; 1
    4e6a:	89 f4       	brne	.+34     	; 0x4e8e <disk_ioctl+0xf6>
    4e6c:	87 2f       	mov	r24, r23
    4e6e:	90 e0       	ldi	r25, 0x00	; 0
    4e70:	01 96       	adiw	r24, 0x01	; 1
    4e72:	34 2f       	mov	r19, r20
    4e74:	20 e0       	ldi	r18, 0x00	; 0
    4e76:	82 0f       	add	r24, r18
    4e78:	93 1f       	adc	r25, r19
    4e7a:	a0 e0       	ldi	r26, 0x00	; 0
    4e7c:	b0 e0       	ldi	r27, 0x00	; 0
    4e7e:	2a e0       	ldi	r18, 0x0A	; 10
    4e80:	88 0f       	add	r24, r24
    4e82:	99 1f       	adc	r25, r25
    4e84:	aa 1f       	adc	r26, r26
    4e86:	bb 1f       	adc	r27, r27
    4e88:	2a 95       	dec	r18
    4e8a:	d1 f7       	brne	.-12     	; 0x4e80 <disk_ioctl+0xe8>
    4e8c:	c3 c0       	rjmp	.+390    	; 0x5014 <disk_ioctl+0x27c>
    4e8e:	42 95       	swap	r20
    4e90:	46 95       	lsr	r20
    4e92:	46 95       	lsr	r20
    4e94:	43 70       	andi	r20, 0x03	; 3
    4e96:	28 85       	ldd	r18, Y+8	; 0x08
    4e98:	30 e0       	ldi	r19, 0x00	; 0
    4e9a:	22 0f       	add	r18, r18
    4e9c:	33 1f       	adc	r19, r19
    4e9e:	22 0f       	add	r18, r18
    4ea0:	33 1f       	adc	r19, r19
    4ea2:	24 0f       	add	r18, r20
    4ea4:	31 1d       	adc	r19, r1
    4ea6:	2f 5f       	subi	r18, 0xFF	; 255
    4ea8:	3f 4f       	sbci	r19, 0xFF	; 255
    4eaa:	8f 81       	ldd	r24, Y+7	; 0x07
    4eac:	90 e0       	ldi	r25, 0x00	; 0
    4eae:	83 70       	andi	r24, 0x03	; 3
    4eb0:	90 70       	andi	r25, 0x00	; 0
    4eb2:	98 2f       	mov	r25, r24
    4eb4:	88 27       	eor	r24, r24
    4eb6:	99 0f       	add	r25, r25
    4eb8:	99 0f       	add	r25, r25
    4eba:	28 0f       	add	r18, r24
    4ebc:	39 1f       	adc	r19, r25
    4ebe:	40 e0       	ldi	r20, 0x00	; 0
    4ec0:	50 e0       	ldi	r21, 0x00	; 0
    4ec2:	8e 81       	ldd	r24, Y+6	; 0x06
    4ec4:	8f 70       	andi	r24, 0x0F	; 15
    4ec6:	6b 85       	ldd	r22, Y+11	; 0x0b
    4ec8:	66 1f       	adc	r22, r22
    4eca:	66 27       	eor	r22, r22
    4ecc:	66 1f       	adc	r22, r22
    4ece:	86 0f       	add	r24, r22
    4ed0:	8e 5f       	subi	r24, 0xFE	; 254
    4ed2:	73 70       	andi	r23, 0x03	; 3
    4ed4:	77 0f       	add	r23, r23
    4ed6:	87 0f       	add	r24, r23
    4ed8:	90 e0       	ldi	r25, 0x00	; 0
    4eda:	09 97       	sbiw	r24, 0x09	; 9
    4edc:	04 c0       	rjmp	.+8      	; 0x4ee6 <disk_ioctl+0x14e>
    4ede:	22 0f       	add	r18, r18
    4ee0:	33 1f       	adc	r19, r19
    4ee2:	44 1f       	adc	r20, r20
    4ee4:	55 1f       	adc	r21, r21
    4ee6:	8a 95       	dec	r24
    4ee8:	d2 f7       	brpl	.-12     	; 0x4ede <disk_ioctl+0x146>
    4eea:	f8 01       	movw	r30, r16
    4eec:	20 83       	st	Z, r18
    4eee:	31 83       	std	Z+1, r19	; 0x01
    4ef0:	42 83       	std	Z+2, r20	; 0x02
    4ef2:	53 83       	std	Z+3, r21	; 0x03
    4ef4:	94 c0       	rjmp	.+296    	; 0x501e <disk_ioctl+0x286>
    4ef6:	80 e0       	ldi	r24, 0x00	; 0
    4ef8:	92 e0       	ldi	r25, 0x02	; 2
    4efa:	fa 01       	movw	r30, r20
    4efc:	91 83       	std	Z+1, r25	; 0x01
    4efe:	80 83       	st	Z, r24
    4f00:	8e c0       	rjmp	.+284    	; 0x501e <disk_ioctl+0x286>
    4f02:	80 91 5b 06 	lds	r24, 0x065B
    4f06:	f8 2e       	mov	r15, r24
    4f08:	82 ff       	sbrs	r24, 2
    4f0a:	2f c0       	rjmp	.+94     	; 0x4f6a <disk_ioctl+0x1d2>
    4f0c:	8d ec       	ldi	r24, 0xCD	; 205
    4f0e:	40 e0       	ldi	r20, 0x00	; 0
    4f10:	50 e0       	ldi	r21, 0x00	; 0
    4f12:	60 e0       	ldi	r22, 0x00	; 0
    4f14:	70 e0       	ldi	r23, 0x00	; 0
    4f16:	0e 94 d9 24 	call	0x49b2	; 0x49b2 <send_cmd>
    4f1a:	88 23       	and	r24, r24
    4f1c:	09 f0       	breq	.+2      	; 0x4f20 <disk_ioctl+0x188>
    4f1e:	c3 c0       	rjmp	.+390    	; 0x50a6 <disk_ioctl+0x30e>
    4f20:	8f ef       	ldi	r24, 0xFF	; 255
    4f22:	8f b9       	out	0x0f, r24	; 15
    4f24:	77 9b       	sbis	0x0e, 7	; 14
    4f26:	fe cf       	rjmp	.-4      	; 0x4f24 <disk_ioctl+0x18c>
    4f28:	8f b1       	in	r24, 0x0f	; 15
    4f2a:	ce 01       	movw	r24, r28
    4f2c:	01 96       	adiw	r24, 0x01	; 1
    4f2e:	60 e1       	ldi	r22, 0x10	; 16
    4f30:	70 e0       	ldi	r23, 0x00	; 0
    4f32:	0e 94 63 24 	call	0x48c6	; 0x48c6 <rcvr_datablock>
    4f36:	88 23       	and	r24, r24
    4f38:	09 f4       	brne	.+2      	; 0x4f3c <disk_ioctl+0x1a4>
    4f3a:	b5 c0       	rjmp	.+362    	; 0x50a6 <disk_ioctl+0x30e>
    4f3c:	80 e3       	ldi	r24, 0x30	; 48
    4f3e:	9f ef       	ldi	r25, 0xFF	; 255
    4f40:	9f b9       	out	0x0f, r25	; 15
    4f42:	77 9b       	sbis	0x0e, 7	; 14
    4f44:	fe cf       	rjmp	.-4      	; 0x4f42 <disk_ioctl+0x1aa>
    4f46:	2f b1       	in	r18, 0x0f	; 15
    4f48:	81 50       	subi	r24, 0x01	; 1
    4f4a:	d1 f7       	brne	.-12     	; 0x4f40 <disk_ioctl+0x1a8>
    4f4c:	2b 85       	ldd	r18, Y+11	; 0x0b
    4f4e:	22 95       	swap	r18
    4f50:	2f 70       	andi	r18, 0x0F	; 15
    4f52:	80 e1       	ldi	r24, 0x10	; 16
    4f54:	90 e0       	ldi	r25, 0x00	; 0
    4f56:	a0 e0       	ldi	r26, 0x00	; 0
    4f58:	b0 e0       	ldi	r27, 0x00	; 0
    4f5a:	04 c0       	rjmp	.+8      	; 0x4f64 <disk_ioctl+0x1cc>
    4f5c:	88 0f       	add	r24, r24
    4f5e:	99 1f       	adc	r25, r25
    4f60:	aa 1f       	adc	r26, r26
    4f62:	bb 1f       	adc	r27, r27
    4f64:	2a 95       	dec	r18
    4f66:	d2 f7       	brpl	.-12     	; 0x4f5c <disk_ioctl+0x1c4>
    4f68:	55 c0       	rjmp	.+170    	; 0x5014 <disk_ioctl+0x27c>
    4f6a:	89 e4       	ldi	r24, 0x49	; 73
    4f6c:	40 e0       	ldi	r20, 0x00	; 0
    4f6e:	50 e0       	ldi	r21, 0x00	; 0
    4f70:	60 e0       	ldi	r22, 0x00	; 0
    4f72:	70 e0       	ldi	r23, 0x00	; 0
    4f74:	0e 94 d9 24 	call	0x49b2	; 0x49b2 <send_cmd>
    4f78:	88 23       	and	r24, r24
    4f7a:	09 f0       	breq	.+2      	; 0x4f7e <disk_ioctl+0x1e6>
    4f7c:	94 c0       	rjmp	.+296    	; 0x50a6 <disk_ioctl+0x30e>
    4f7e:	ce 01       	movw	r24, r28
    4f80:	01 96       	adiw	r24, 0x01	; 1
    4f82:	60 e1       	ldi	r22, 0x10	; 16
    4f84:	70 e0       	ldi	r23, 0x00	; 0
    4f86:	0e 94 63 24 	call	0x48c6	; 0x48c6 <rcvr_datablock>
    4f8a:	88 23       	and	r24, r24
    4f8c:	09 f4       	brne	.+2      	; 0x4f90 <disk_ioctl+0x1f8>
    4f8e:	8b c0       	rjmp	.+278    	; 0x50a6 <disk_ioctl+0x30e>
    4f90:	4b 85       	ldd	r20, Y+11	; 0x0b
    4f92:	8c 85       	ldd	r24, Y+12	; 0x0c
    4f94:	f1 fe       	sbrs	r15, 1
    4f96:	1b c0       	rjmp	.+54     	; 0x4fce <disk_ioctl+0x236>
    4f98:	88 1f       	adc	r24, r24
    4f9a:	88 27       	eor	r24, r24
    4f9c:	88 1f       	adc	r24, r24
    4f9e:	90 e0       	ldi	r25, 0x00	; 0
    4fa0:	01 96       	adiw	r24, 0x01	; 1
    4fa2:	24 2f       	mov	r18, r20
    4fa4:	30 e0       	ldi	r19, 0x00	; 0
    4fa6:	2f 73       	andi	r18, 0x3F	; 63
    4fa8:	30 70       	andi	r19, 0x00	; 0
    4faa:	22 0f       	add	r18, r18
    4fac:	33 1f       	adc	r19, r19
    4fae:	82 0f       	add	r24, r18
    4fb0:	93 1f       	adc	r25, r19
    4fb2:	2e 85       	ldd	r18, Y+14	; 0x0e
    4fb4:	22 95       	swap	r18
    4fb6:	26 95       	lsr	r18
    4fb8:	26 95       	lsr	r18
    4fba:	23 70       	andi	r18, 0x03	; 3
    4fbc:	30 e0       	ldi	r19, 0x00	; 0
    4fbe:	21 50       	subi	r18, 0x01	; 1
    4fc0:	30 40       	sbci	r19, 0x00	; 0
    4fc2:	02 c0       	rjmp	.+4      	; 0x4fc8 <disk_ioctl+0x230>
    4fc4:	88 0f       	add	r24, r24
    4fc6:	99 1f       	adc	r25, r25
    4fc8:	2a 95       	dec	r18
    4fca:	e2 f7       	brpl	.-8      	; 0x4fc4 <disk_ioctl+0x22c>
    4fcc:	21 c0       	rjmp	.+66     	; 0x5010 <disk_ioctl+0x278>
    4fce:	28 2f       	mov	r18, r24
    4fd0:	30 e0       	ldi	r19, 0x00	; 0
    4fd2:	23 70       	andi	r18, 0x03	; 3
    4fd4:	30 70       	andi	r19, 0x00	; 0
    4fd6:	f3 e0       	ldi	r31, 0x03	; 3
    4fd8:	22 0f       	add	r18, r18
    4fda:	33 1f       	adc	r19, r19
    4fdc:	fa 95       	dec	r31
    4fde:	e1 f7       	brne	.-8      	; 0x4fd8 <disk_ioctl+0x240>
    4fe0:	82 95       	swap	r24
    4fe2:	86 95       	lsr	r24
    4fe4:	87 70       	andi	r24, 0x07	; 7
    4fe6:	28 0f       	add	r18, r24
    4fe8:	31 1d       	adc	r19, r1
    4fea:	2f 5f       	subi	r18, 0xFF	; 255
    4fec:	3f 4f       	sbci	r19, 0xFF	; 255
    4fee:	84 2f       	mov	r24, r20
    4ff0:	90 e0       	ldi	r25, 0x00	; 0
    4ff2:	8c 77       	andi	r24, 0x7C	; 124
    4ff4:	90 70       	andi	r25, 0x00	; 0
    4ff6:	95 95       	asr	r25
    4ff8:	87 95       	ror	r24
    4ffa:	95 95       	asr	r25
    4ffc:	87 95       	ror	r24
    4ffe:	01 96       	adiw	r24, 0x01	; 1
    5000:	ac 01       	movw	r20, r24
    5002:	24 9f       	mul	r18, r20
    5004:	c0 01       	movw	r24, r0
    5006:	25 9f       	mul	r18, r21
    5008:	90 0d       	add	r25, r0
    500a:	34 9f       	mul	r19, r20
    500c:	90 0d       	add	r25, r0
    500e:	11 24       	eor	r1, r1
    5010:	a0 e0       	ldi	r26, 0x00	; 0
    5012:	b0 e0       	ldi	r27, 0x00	; 0
    5014:	f8 01       	movw	r30, r16
    5016:	80 83       	st	Z, r24
    5018:	91 83       	std	Z+1, r25	; 0x01
    501a:	a2 83       	std	Z+2, r26	; 0x02
    501c:	b3 83       	std	Z+3, r27	; 0x03
    501e:	90 e0       	ldi	r25, 0x00	; 0
    5020:	43 c0       	rjmp	.+134    	; 0x50a8 <disk_ioctl+0x310>
    5022:	80 91 5b 06 	lds	r24, 0x065B
    5026:	fa 01       	movw	r30, r20
    5028:	80 83       	st	Z, r24
    502a:	f9 cf       	rjmp	.-14     	; 0x501e <disk_ioctl+0x286>
    502c:	89 e4       	ldi	r24, 0x49	; 73
    502e:	01 c0       	rjmp	.+2      	; 0x5032 <disk_ioctl+0x29a>
    5030:	8a e4       	ldi	r24, 0x4A	; 74
    5032:	40 e0       	ldi	r20, 0x00	; 0
    5034:	50 e0       	ldi	r21, 0x00	; 0
    5036:	60 e0       	ldi	r22, 0x00	; 0
    5038:	70 e0       	ldi	r23, 0x00	; 0
    503a:	0e 94 d9 24 	call	0x49b2	; 0x49b2 <send_cmd>
    503e:	88 23       	and	r24, r24
    5040:	91 f5       	brne	.+100    	; 0x50a6 <disk_ioctl+0x30e>
    5042:	c8 01       	movw	r24, r16
    5044:	60 e1       	ldi	r22, 0x10	; 16
    5046:	70 e0       	ldi	r23, 0x00	; 0
    5048:	29 c0       	rjmp	.+82     	; 0x509c <disk_ioctl+0x304>
    504a:	8a e7       	ldi	r24, 0x7A	; 122
    504c:	40 e0       	ldi	r20, 0x00	; 0
    504e:	50 e0       	ldi	r21, 0x00	; 0
    5050:	60 e0       	ldi	r22, 0x00	; 0
    5052:	70 e0       	ldi	r23, 0x00	; 0
    5054:	0e 94 d9 24 	call	0x49b2	; 0x49b2 <send_cmd>
    5058:	88 23       	and	r24, r24
    505a:	29 f5       	brne	.+74     	; 0x50a6 <disk_ioctl+0x30e>
    505c:	f8 01       	movw	r30, r16
    505e:	9f ef       	ldi	r25, 0xFF	; 255
    5060:	98 01       	movw	r18, r16
    5062:	2d 5f       	subi	r18, 0xFD	; 253
    5064:	3f 4f       	sbci	r19, 0xFF	; 255
    5066:	9f b9       	out	0x0f, r25	; 15
    5068:	77 9b       	sbis	0x0e, 7	; 14
    506a:	fe cf       	rjmp	.-4      	; 0x5068 <disk_ioctl+0x2d0>
    506c:	8f b1       	in	r24, 0x0f	; 15
    506e:	80 83       	st	Z, r24
    5070:	e2 17       	cp	r30, r18
    5072:	f3 07       	cpc	r31, r19
    5074:	a1 f2       	breq	.-88     	; 0x501e <disk_ioctl+0x286>
    5076:	31 96       	adiw	r30, 0x01	; 1
    5078:	f6 cf       	rjmp	.-20     	; 0x5066 <disk_ioctl+0x2ce>
    507a:	8d ec       	ldi	r24, 0xCD	; 205
    507c:	40 e0       	ldi	r20, 0x00	; 0
    507e:	50 e0       	ldi	r21, 0x00	; 0
    5080:	60 e0       	ldi	r22, 0x00	; 0
    5082:	70 e0       	ldi	r23, 0x00	; 0
    5084:	0e 94 d9 24 	call	0x49b2	; 0x49b2 <send_cmd>
    5088:	88 23       	and	r24, r24
    508a:	69 f4       	brne	.+26     	; 0x50a6 <disk_ioctl+0x30e>
    508c:	8f ef       	ldi	r24, 0xFF	; 255
    508e:	8f b9       	out	0x0f, r24	; 15
    5090:	77 9b       	sbis	0x0e, 7	; 14
    5092:	fe cf       	rjmp	.-4      	; 0x5090 <disk_ioctl+0x2f8>
    5094:	8f b1       	in	r24, 0x0f	; 15
    5096:	c8 01       	movw	r24, r16
    5098:	60 e4       	ldi	r22, 0x40	; 64
    509a:	70 e0       	ldi	r23, 0x00	; 0
    509c:	0e 94 63 24 	call	0x48c6	; 0x48c6 <rcvr_datablock>
    50a0:	90 e0       	ldi	r25, 0x00	; 0
    50a2:	88 23       	and	r24, r24
    50a4:	09 f4       	brne	.+2      	; 0x50a8 <disk_ioctl+0x310>
    50a6:	91 e0       	ldi	r25, 0x01	; 1
    50a8:	c4 9a       	sbi	0x18, 4	; 24
    50aa:	8f ef       	ldi	r24, 0xFF	; 255
    50ac:	8f b9       	out	0x0f, r24	; 15
    50ae:	77 9b       	sbis	0x0e, 7	; 14
    50b0:	fe cf       	rjmp	.-4      	; 0x50ae <disk_ioctl+0x316>
    50b2:	8f b1       	in	r24, 0x0f	; 15
    50b4:	01 c0       	rjmp	.+2      	; 0x50b8 <disk_ioctl+0x320>
    50b6:	94 e0       	ldi	r25, 0x04	; 4
    50b8:	89 2f       	mov	r24, r25
    50ba:	60 96       	adiw	r28, 0x10	; 16
    50bc:	0f b6       	in	r0, 0x3f	; 63
    50be:	f8 94       	cli
    50c0:	de bf       	out	0x3e, r29	; 62
    50c2:	0f be       	out	0x3f, r0	; 63
    50c4:	cd bf       	out	0x3d, r28	; 61
    50c6:	cf 91       	pop	r28
    50c8:	df 91       	pop	r29
    50ca:	1f 91       	pop	r17
    50cc:	0f 91       	pop	r16
    50ce:	ff 90       	pop	r15
    50d0:	08 95       	ret

000050d2 <disk_timerproc>:
    50d2:	80 91 59 06 	lds	r24, 0x0659
    50d6:	88 23       	and	r24, r24
    50d8:	19 f0       	breq	.+6      	; 0x50e0 <disk_timerproc+0xe>
    50da:	81 50       	subi	r24, 0x01	; 1
    50dc:	80 93 59 06 	sts	0x0659, r24
    50e0:	80 91 5a 06 	lds	r24, 0x065A
    50e4:	88 23       	and	r24, r24
    50e6:	19 f0       	breq	.+6      	; 0x50ee <disk_timerproc+0x1c>
    50e8:	81 50       	subi	r24, 0x01	; 1
    50ea:	80 93 5a 06 	sts	0x065A, r24
    50ee:	20 91 58 06 	lds	r18, 0x0658
    50f2:	83 b3       	in	r24, 0x13	; 19
    50f4:	83 b3       	in	r24, 0x13	; 19
    50f6:	84 70       	andi	r24, 0x04	; 4
    50f8:	80 93 58 06 	sts	0x0658, r24
    50fc:	28 17       	cp	r18, r24
    50fe:	61 f4       	brne	.+24     	; 0x5118 <disk_timerproc+0x46>
    5100:	80 91 cd 01 	lds	r24, 0x01CD
    5104:	98 2f       	mov	r25, r24
    5106:	9b 7f       	andi	r25, 0xFB	; 251
    5108:	22 ff       	sbrs	r18, 2
    510a:	03 c0       	rjmp	.+6      	; 0x5112 <disk_timerproc+0x40>
    510c:	89 2f       	mov	r24, r25
    510e:	83 60       	ori	r24, 0x03	; 3
    5110:	01 c0       	rjmp	.+2      	; 0x5114 <disk_timerproc+0x42>
    5112:	89 7f       	andi	r24, 0xF9	; 249
    5114:	80 93 cd 01 	sts	0x01CD, r24
    5118:	08 95       	ret

0000511a <lcd_sendHalf>:
    511a:	80 ff       	sbrs	r24, 0
    511c:	02 c0       	rjmp	.+4      	; 0x5122 <lcd_sendHalf+0x8>
    511e:	db 9a       	sbi	0x1b, 3	; 27
    5120:	01 c0       	rjmp	.+2      	; 0x5124 <lcd_sendHalf+0xa>
    5122:	db 98       	cbi	0x1b, 3	; 27
    5124:	81 ff       	sbrs	r24, 1
    5126:	02 c0       	rjmp	.+4      	; 0x512c <lcd_sendHalf+0x12>
    5128:	dc 9a       	sbi	0x1b, 4	; 27
    512a:	01 c0       	rjmp	.+2      	; 0x512e <lcd_sendHalf+0x14>
    512c:	dc 98       	cbi	0x1b, 4	; 27
    512e:	82 ff       	sbrs	r24, 2
    5130:	02 c0       	rjmp	.+4      	; 0x5136 <lcd_sendHalf+0x1c>
    5132:	dd 9a       	sbi	0x1b, 5	; 27
    5134:	01 c0       	rjmp	.+2      	; 0x5138 <lcd_sendHalf+0x1e>
    5136:	dd 98       	cbi	0x1b, 5	; 27
    5138:	83 ff       	sbrs	r24, 3
    513a:	02 c0       	rjmp	.+4      	; 0x5140 <lcd_sendHalf+0x26>
    513c:	de 9a       	sbi	0x1b, 6	; 27
    513e:	08 95       	ret
    5140:	de 98       	cbi	0x1b, 6	; 27
    5142:	08 95       	ret

00005144 <lcd_readHalf>:
    5144:	89 b3       	in	r24, 0x19	; 25
    5146:	90 e0       	ldi	r25, 0x00	; 0
    5148:	23 e0       	ldi	r18, 0x03	; 3
    514a:	96 95       	lsr	r25
    514c:	87 95       	ror	r24
    514e:	2a 95       	dec	r18
    5150:	e1 f7       	brne	.-8      	; 0x514a <lcd_readHalf+0x6>
    5152:	81 70       	andi	r24, 0x01	; 1
    5154:	cc 99       	sbic	0x19, 4	; 25
    5156:	82 60       	ori	r24, 0x02	; 2
    5158:	cd 99       	sbic	0x19, 5	; 25
    515a:	84 60       	ori	r24, 0x04	; 4
    515c:	ce 99       	sbic	0x19, 6	; 25
    515e:	88 60       	ori	r24, 0x08	; 8
    5160:	08 95       	ret

00005162 <_lcd_read_byte>:
    5162:	1f 93       	push	r17
    5164:	d6 98       	cbi	0x1a, 6	; 26
    5166:	d5 98       	cbi	0x1a, 5	; 26
    5168:	d4 98       	cbi	0x1a, 4	; 26
    516a:	d3 98       	cbi	0x1a, 3	; 26
    516c:	d9 9a       	sbi	0x1b, 1	; 27
    516e:	da 9a       	sbi	0x1b, 2	; 27
    5170:	0e 94 a2 28 	call	0x5144	; 0x5144 <lcd_readHalf>
    5174:	18 2f       	mov	r17, r24
    5176:	12 95       	swap	r17
    5178:	10 7f       	andi	r17, 0xF0	; 240
    517a:	da 98       	cbi	0x1b, 2	; 27
    517c:	da 9a       	sbi	0x1b, 2	; 27
    517e:	0e 94 a2 28 	call	0x5144	; 0x5144 <lcd_readHalf>
    5182:	da 98       	cbi	0x1b, 2	; 27
    5184:	81 2b       	or	r24, r17
    5186:	1f 91       	pop	r17
    5188:	08 95       	ret

0000518a <check_BF>:
    518a:	d8 98       	cbi	0x1b, 0	; 27
    518c:	0e 94 b1 28 	call	0x5162	; 0x5162 <_lcd_read_byte>
    5190:	08 95       	ret

00005192 <_lcd_write_byte>:
    5192:	1f 93       	push	r17
    5194:	18 2f       	mov	r17, r24
    5196:	d6 9a       	sbi	0x1a, 6	; 26
    5198:	d5 9a       	sbi	0x1a, 5	; 26
    519a:	d4 9a       	sbi	0x1a, 4	; 26
    519c:	d3 9a       	sbi	0x1a, 3	; 26
    519e:	d9 98       	cbi	0x1b, 1	; 27
    51a0:	da 9a       	sbi	0x1b, 2	; 27
    51a2:	82 95       	swap	r24
    51a4:	8f 70       	andi	r24, 0x0F	; 15
    51a6:	0e 94 8d 28 	call	0x511a	; 0x511a <lcd_sendHalf>
    51aa:	da 98       	cbi	0x1b, 2	; 27
    51ac:	da 9a       	sbi	0x1b, 2	; 27
    51ae:	81 2f       	mov	r24, r17
    51b0:	0e 94 8d 28 	call	0x511a	; 0x511a <lcd_sendHalf>
    51b4:	da 98       	cbi	0x1b, 2	; 27
    51b6:	0e 94 c5 28 	call	0x518a	; 0x518a <check_BF>
    51ba:	87 fd       	sbrc	r24, 7
    51bc:	fc cf       	rjmp	.-8      	; 0x51b6 <_lcd_write_byte+0x24>
    51be:	1f 91       	pop	r17
    51c0:	08 95       	ret

000051c2 <lcd_write_cmd>:
    51c2:	d8 98       	cbi	0x1b, 0	; 27
    51c4:	0e 94 c9 28 	call	0x5192	; 0x5192 <_lcd_write_byte>
    51c8:	08 95       	ret

000051ca <lcd_write_data>:
    51ca:	d8 9a       	sbi	0x1b, 0	; 27
    51cc:	0e 94 c9 28 	call	0x5192	; 0x5192 <_lcd_write_byte>
    51d0:	08 95       	ret

000051d2 <lcd_char>:
    51d2:	98 2f       	mov	r25, r24
    51d4:	80 58       	subi	r24, 0x80	; 128
    51d6:	88 30       	cpi	r24, 0x08	; 8
    51d8:	08 f4       	brcc	.+2      	; 0x51dc <lcd_char+0xa>
    51da:	97 70       	andi	r25, 0x07	; 7
    51dc:	89 2f       	mov	r24, r25
    51de:	0e 94 e5 28 	call	0x51ca	; 0x51ca <lcd_write_data>
    51e2:	08 95       	ret

000051e4 <lcd_str>:
    51e4:	cf 93       	push	r28
    51e6:	df 93       	push	r29
    51e8:	ec 01       	movw	r28, r24
    51ea:	08 c0       	rjmp	.+16     	; 0x51fc <lcd_str+0x18>
    51ec:	89 2f       	mov	r24, r25
    51ee:	80 58       	subi	r24, 0x80	; 128
    51f0:	88 30       	cpi	r24, 0x08	; 8
    51f2:	08 f4       	brcc	.+2      	; 0x51f6 <lcd_str+0x12>
    51f4:	97 70       	andi	r25, 0x07	; 7
    51f6:	89 2f       	mov	r24, r25
    51f8:	0e 94 e5 28 	call	0x51ca	; 0x51ca <lcd_write_data>
    51fc:	99 91       	ld	r25, Y+
    51fe:	99 23       	and	r25, r25
    5200:	a9 f7       	brne	.-22     	; 0x51ec <lcd_str+0x8>
    5202:	df 91       	pop	r29
    5204:	cf 91       	pop	r28
    5206:	08 95       	ret

00005208 <lcd_str_P>:
    5208:	cf 93       	push	r28
    520a:	df 93       	push	r29
    520c:	ec 01       	movw	r28, r24
    520e:	0a c0       	rjmp	.+20     	; 0x5224 <lcd_str_P+0x1c>
    5210:	89 2f       	mov	r24, r25
    5212:	80 58       	subi	r24, 0x80	; 128
    5214:	88 30       	cpi	r24, 0x08	; 8
    5216:	10 f0       	brcs	.+4      	; 0x521c <lcd_str_P+0x14>
    5218:	89 2f       	mov	r24, r25
    521a:	02 c0       	rjmp	.+4      	; 0x5220 <lcd_str_P+0x18>
    521c:	89 2f       	mov	r24, r25
    521e:	87 70       	andi	r24, 0x07	; 7
    5220:	0e 94 e5 28 	call	0x51ca	; 0x51ca <lcd_write_data>
    5224:	fe 01       	movw	r30, r28
    5226:	21 96       	adiw	r28, 0x01	; 1
    5228:	94 91       	lpm	r25, Z+
    522a:	99 23       	and	r25, r25
    522c:	89 f7       	brne	.-30     	; 0x5210 <lcd_str_P+0x8>
    522e:	df 91       	pop	r29
    5230:	cf 91       	pop	r28
    5232:	08 95       	ret

00005234 <lcd_defchar>:
    5234:	1f 93       	push	r17
    5236:	cf 93       	push	r28
    5238:	df 93       	push	r29
    523a:	eb 01       	movw	r28, r22
    523c:	90 e0       	ldi	r25, 0x00	; 0
    523e:	87 70       	andi	r24, 0x07	; 7
    5240:	90 70       	andi	r25, 0x00	; 0
    5242:	08 96       	adiw	r24, 0x08	; 8
    5244:	88 0f       	add	r24, r24
    5246:	88 0f       	add	r24, r24
    5248:	88 0f       	add	r24, r24
    524a:	0e 94 e1 28 	call	0x51c2	; 0x51c2 <lcd_write_cmd>
    524e:	10 e0       	ldi	r17, 0x00	; 0
    5250:	89 91       	ld	r24, Y+
    5252:	0e 94 e5 28 	call	0x51ca	; 0x51ca <lcd_write_data>
    5256:	1f 5f       	subi	r17, 0xFF	; 255
    5258:	18 30       	cpi	r17, 0x08	; 8
    525a:	d1 f7       	brne	.-12     	; 0x5250 <lcd_defchar+0x1c>
    525c:	df 91       	pop	r29
    525e:	cf 91       	pop	r28
    5260:	1f 91       	pop	r17
    5262:	08 95       	ret

00005264 <lcd_defchar_P>:
    5264:	0f 93       	push	r16
    5266:	1f 93       	push	r17
    5268:	cf 93       	push	r28
    526a:	df 93       	push	r29
    526c:	8b 01       	movw	r16, r22
    526e:	90 e0       	ldi	r25, 0x00	; 0
    5270:	87 70       	andi	r24, 0x07	; 7
    5272:	90 70       	andi	r25, 0x00	; 0
    5274:	08 96       	adiw	r24, 0x08	; 8
    5276:	88 0f       	add	r24, r24
    5278:	88 0f       	add	r24, r24
    527a:	88 0f       	add	r24, r24
    527c:	0e 94 e1 28 	call	0x51c2	; 0x51c2 <lcd_write_cmd>
    5280:	c0 e0       	ldi	r28, 0x00	; 0
    5282:	d0 e0       	ldi	r29, 0x00	; 0
    5284:	f8 01       	movw	r30, r16
    5286:	ec 0f       	add	r30, r28
    5288:	fd 1f       	adc	r31, r29
    528a:	e4 91       	lpm	r30, Z+
    528c:	8e 2f       	mov	r24, r30
    528e:	0e 94 e5 28 	call	0x51ca	; 0x51ca <lcd_write_data>
    5292:	21 96       	adiw	r28, 0x01	; 1
    5294:	c8 30       	cpi	r28, 0x08	; 8
    5296:	d1 05       	cpc	r29, r1
    5298:	a9 f7       	brne	.-22     	; 0x5284 <lcd_defchar_P+0x20>
    529a:	df 91       	pop	r29
    529c:	cf 91       	pop	r28
    529e:	1f 91       	pop	r17
    52a0:	0f 91       	pop	r16
    52a2:	08 95       	ret

000052a4 <lcd_locate>:
    52a4:	81 30       	cpi	r24, 0x01	; 1
    52a6:	09 f4       	brne	.+2      	; 0x52aa <lcd_locate+0x6>
    52a8:	80 e4       	ldi	r24, 0x40	; 64
    52aa:	60 58       	subi	r22, 0x80	; 128
    52ac:	86 0f       	add	r24, r22
    52ae:	0e 94 e1 28 	call	0x51c2	; 0x51c2 <lcd_write_cmd>
    52b2:	08 95       	ret

000052b4 <lcd_cls>:
    52b4:	81 e0       	ldi	r24, 0x01	; 1
    52b6:	0e 94 e1 28 	call	0x51c2	; 0x51c2 <lcd_write_cmd>
    52ba:	08 95       	ret

000052bc <lcd_init>:
    52bc:	0f 93       	push	r16
    52be:	1f 93       	push	r17
    52c0:	d6 9a       	sbi	0x1a, 6	; 26
    52c2:	d5 9a       	sbi	0x1a, 5	; 26
    52c4:	d4 9a       	sbi	0x1a, 4	; 26
    52c6:	d3 9a       	sbi	0x1a, 3	; 26
    52c8:	d0 9a       	sbi	0x1a, 0	; 26
    52ca:	d2 9a       	sbi	0x1a, 2	; 26
    52cc:	d1 9a       	sbi	0x1a, 1	; 26
    52ce:	d8 98       	cbi	0x1b, 0	; 27
    52d0:	da 98       	cbi	0x1b, 2	; 27
    52d2:	d9 98       	cbi	0x1b, 1	; 27
    52d4:	80 e0       	ldi	r24, 0x00	; 0
    52d6:	92 ea       	ldi	r25, 0xA2	; 162
    52d8:	01 97       	sbiw	r24, 0x01	; 1
    52da:	f1 f7       	brne	.-4      	; 0x52d8 <lcd_init+0x1c>
    52dc:	d8 98       	cbi	0x1b, 0	; 27
    52de:	d9 98       	cbi	0x1b, 1	; 27
    52e0:	80 e3       	ldi	r24, 0x30	; 48
    52e2:	0e 94 8d 28 	call	0x511a	; 0x511a <lcd_sendHalf>
    52e6:	87 e4       	ldi	r24, 0x47	; 71
    52e8:	9c e2       	ldi	r25, 0x2C	; 44
    52ea:	01 97       	sbiw	r24, 0x01	; 1
    52ec:	f1 f7       	brne	.-4      	; 0x52ea <lcd_init+0x2e>
    52ee:	80 e3       	ldi	r24, 0x30	; 48
    52f0:	0e 94 8d 28 	call	0x511a	; 0x511a <lcd_sendHalf>
    52f4:	04 e1       	ldi	r16, 0x14	; 20
    52f6:	11 e0       	ldi	r17, 0x01	; 1
    52f8:	c8 01       	movw	r24, r16
    52fa:	01 97       	sbiw	r24, 0x01	; 1
    52fc:	f1 f7       	brne	.-4      	; 0x52fa <lcd_init+0x3e>
    52fe:	80 e2       	ldi	r24, 0x20	; 32
    5300:	0e 94 8d 28 	call	0x511a	; 0x511a <lcd_sendHalf>
    5304:	c8 01       	movw	r24, r16
    5306:	01 97       	sbiw	r24, 0x01	; 1
    5308:	f1 f7       	brne	.-4      	; 0x5306 <lcd_init+0x4a>
    530a:	88 e2       	ldi	r24, 0x28	; 40
    530c:	0e 94 e1 28 	call	0x51c2	; 0x51c2 <lcd_write_cmd>
    5310:	88 e0       	ldi	r24, 0x08	; 8
    5312:	0e 94 e1 28 	call	0x51c2	; 0x51c2 <lcd_write_cmd>
    5316:	8c e0       	ldi	r24, 0x0C	; 12
    5318:	0e 94 e1 28 	call	0x51c2	; 0x51c2 <lcd_write_cmd>
    531c:	86 e0       	ldi	r24, 0x06	; 6
    531e:	0e 94 e1 28 	call	0x51c2	; 0x51c2 <lcd_write_cmd>
    5322:	0e 94 5a 29 	call	0x52b4	; 0x52b4 <lcd_cls>
    5326:	1f 91       	pop	r17
    5328:	0f 91       	pop	r16
    532a:	08 95       	ret

0000532c <lcd_defchar_E>:
    532c:	0f 93       	push	r16
    532e:	1f 93       	push	r17
    5330:	cf 93       	push	r28
    5332:	df 93       	push	r29
    5334:	8b 01       	movw	r16, r22
    5336:	90 e0       	ldi	r25, 0x00	; 0
    5338:	87 70       	andi	r24, 0x07	; 7
    533a:	90 70       	andi	r25, 0x00	; 0
    533c:	08 96       	adiw	r24, 0x08	; 8
    533e:	88 0f       	add	r24, r24
    5340:	88 0f       	add	r24, r24
    5342:	88 0f       	add	r24, r24
    5344:	0e 94 e1 28 	call	0x51c2	; 0x51c2 <lcd_write_cmd>
    5348:	c0 e0       	ldi	r28, 0x00	; 0
    534a:	d0 e0       	ldi	r29, 0x00	; 0
    534c:	c8 01       	movw	r24, r16
    534e:	8c 0f       	add	r24, r28
    5350:	9d 1f       	adc	r25, r29
    5352:	0e 94 9c 2b 	call	0x5738	; 0x5738 <__eerd_byte_m32>
    5356:	0e 94 e5 28 	call	0x51ca	; 0x51ca <lcd_write_data>
    535a:	21 96       	adiw	r28, 0x01	; 1
    535c:	c8 30       	cpi	r28, 0x08	; 8
    535e:	d1 05       	cpc	r29, r1
    5360:	a9 f7       	brne	.-22     	; 0x534c <lcd_defchar_E+0x20>
    5362:	df 91       	pop	r29
    5364:	cf 91       	pop	r28
    5366:	1f 91       	pop	r17
    5368:	0f 91       	pop	r16
    536a:	08 95       	ret

0000536c <lcd_str_E>:
    536c:	cf 93       	push	r28
    536e:	df 93       	push	r29
    5370:	ec 01       	movw	r28, r24
    5372:	21 96       	adiw	r28, 0x01	; 1
    5374:	0e 94 9c 2b 	call	0x5738	; 0x5738 <__eerd_byte_m32>
    5378:	98 2f       	mov	r25, r24
    537a:	81 50       	subi	r24, 0x01	; 1
    537c:	8e 3f       	cpi	r24, 0xFE	; 254
    537e:	48 f4       	brcc	.+18     	; 0x5392 <lcd_str_E+0x26>
    5380:	8f 57       	subi	r24, 0x7F	; 127
    5382:	88 30       	cpi	r24, 0x08	; 8
    5384:	08 f4       	brcc	.+2      	; 0x5388 <lcd_str_E+0x1c>
    5386:	97 70       	andi	r25, 0x07	; 7
    5388:	89 2f       	mov	r24, r25
    538a:	0e 94 e5 28 	call	0x51ca	; 0x51ca <lcd_write_data>
    538e:	ce 01       	movw	r24, r28
    5390:	ef cf       	rjmp	.-34     	; 0x5370 <lcd_str_E+0x4>
    5392:	df 91       	pop	r29
    5394:	cf 91       	pop	r28
    5396:	08 95       	ret

00005398 <lcd_int>:
    5398:	df 93       	push	r29
    539a:	cf 93       	push	r28
    539c:	cd b7       	in	r28, 0x3d	; 61
    539e:	de b7       	in	r29, 0x3e	; 62
    53a0:	61 97       	sbiw	r28, 0x11	; 17
    53a2:	0f b6       	in	r0, 0x3f	; 63
    53a4:	f8 94       	cli
    53a6:	de bf       	out	0x3e, r29	; 62
    53a8:	0f be       	out	0x3f, r0	; 63
    53aa:	cd bf       	out	0x3d, r28	; 61
    53ac:	be 01       	movw	r22, r28
    53ae:	6f 5f       	subi	r22, 0xFF	; 255
    53b0:	7f 4f       	sbci	r23, 0xFF	; 255
    53b2:	4a e0       	ldi	r20, 0x0A	; 10
    53b4:	50 e0       	ldi	r21, 0x00	; 0
    53b6:	0e 94 7b 2b 	call	0x56f6	; 0x56f6 <itoa>
    53ba:	0e 94 f2 28 	call	0x51e4	; 0x51e4 <lcd_str>
    53be:	61 96       	adiw	r28, 0x11	; 17
    53c0:	0f b6       	in	r0, 0x3f	; 63
    53c2:	f8 94       	cli
    53c4:	de bf       	out	0x3e, r29	; 62
    53c6:	0f be       	out	0x3f, r0	; 63
    53c8:	cd bf       	out	0x3d, r28	; 61
    53ca:	cf 91       	pop	r28
    53cc:	df 91       	pop	r29
    53ce:	08 95       	ret

000053d0 <ir_init>:
    53d0:	8e 98       	cbi	0x11, 6	; 17
    53d2:	96 9a       	sbi	0x12, 6	; 18
    53d4:	8e b5       	in	r24, 0x2e	; 46
    53d6:	82 60       	ori	r24, 0x02	; 2
    53d8:	8e bd       	out	0x2e, r24	; 46
    53da:	8e b5       	in	r24, 0x2e	; 46
    53dc:	8f 7b       	andi	r24, 0xBF	; 191
    53de:	8e bd       	out	0x2e, r24	; 46
    53e0:	10 92 6e 06 	sts	0x066E, r1
    53e4:	89 b7       	in	r24, 0x39	; 57
    53e6:	80 62       	ori	r24, 0x20	; 32
    53e8:	89 bf       	out	0x39, r24	; 57
    53ea:	10 92 6f 06 	sts	0x066F, r1
    53ee:	08 95       	ret

000053f0 <__vector_6>:
    53f0:	1f 92       	push	r1
    53f2:	0f 92       	push	r0
    53f4:	0f b6       	in	r0, 0x3f	; 63
    53f6:	0f 92       	push	r0
    53f8:	11 24       	eor	r1, r1
    53fa:	2f 93       	push	r18
    53fc:	3f 93       	push	r19
    53fe:	8f 93       	push	r24
    5400:	9f 93       	push	r25
    5402:	26 b5       	in	r18, 0x26	; 38
    5404:	37 b5       	in	r19, 0x27	; 39
    5406:	80 91 60 06 	lds	r24, 0x0660
    540a:	90 91 61 06 	lds	r25, 0x0661
    540e:	28 1b       	sub	r18, r24
    5410:	39 0b       	sbc	r19, r25
    5412:	86 b5       	in	r24, 0x26	; 38
    5414:	97 b5       	in	r25, 0x27	; 39
    5416:	90 93 61 06 	sts	0x0661, r25
    541a:	80 93 60 06 	sts	0x0660, r24
    541e:	8e b5       	in	r24, 0x2e	; 46
    5420:	90 e4       	ldi	r25, 0x40	; 64
    5422:	89 27       	eor	r24, r25
    5424:	8e bd       	out	0x2e, r24	; 46
    5426:	8a e0       	ldi	r24, 0x0A	; 10
    5428:	20 3a       	cpi	r18, 0xA0	; 160
    542a:	38 07       	cpc	r19, r24
    542c:	10 f0       	brcs	.+4      	; 0x5432 <__vector_6+0x42>
    542e:	10 92 6e 06 	sts	0x066E, r1
    5432:	80 91 6e 06 	lds	r24, 0x066E
    5436:	88 23       	and	r24, r24
    5438:	19 f0       	breq	.+6      	; 0x5440 <__vector_6+0x50>
    543a:	81 e0       	ldi	r24, 0x01	; 1
    543c:	80 93 5c 06 	sts	0x065C, r24
    5440:	80 91 6e 06 	lds	r24, 0x066E
    5444:	88 23       	and	r24, r24
    5446:	89 f4       	brne	.+34     	; 0x546a <__vector_6+0x7a>
    5448:	10 92 5e 06 	sts	0x065E, r1
    544c:	10 92 5d 06 	sts	0x065D, r1
    5450:	10 92 5f 06 	sts	0x065F, r1
    5454:	8e b5       	in	r24, 0x2e	; 46
    5456:	80 64       	ori	r24, 0x40	; 64
    5458:	8e bd       	out	0x2e, r24	; 46
    545a:	80 91 6e 06 	lds	r24, 0x066E
    545e:	8f 5f       	subi	r24, 0xFF	; 255
    5460:	80 93 6e 06 	sts	0x066E, r24
    5464:	82 e0       	ldi	r24, 0x02	; 2
    5466:	80 93 5c 06 	sts	0x065C, r24
    546a:	80 91 5c 06 	lds	r24, 0x065C
    546e:	81 30       	cpi	r24, 0x01	; 1
    5470:	09 f0       	breq	.+2      	; 0x5474 <__vector_6+0x84>
    5472:	64 c0       	rjmp	.+200    	; 0x553c <__vector_6+0x14c>
    5474:	83 e0       	ldi	r24, 0x03	; 3
    5476:	23 3b       	cpi	r18, 0xB3	; 179
    5478:	38 07       	cpc	r19, r24
    547a:	10 f4       	brcc	.+4      	; 0x5480 <__vector_6+0x90>
    547c:	10 92 5c 06 	sts	0x065C, r1
    5480:	8a e0       	ldi	r24, 0x0A	; 10
    5482:	20 3a       	cpi	r18, 0xA0	; 160
    5484:	38 07       	cpc	r19, r24
    5486:	10 f0       	brcs	.+4      	; 0x548c <__vector_6+0x9c>
    5488:	10 92 5c 06 	sts	0x065C, r1
    548c:	80 91 5c 06 	lds	r24, 0x065C
    5490:	81 30       	cpi	r24, 0x01	; 1
    5492:	09 f0       	breq	.+2      	; 0x5496 <__vector_6+0xa6>
    5494:	53 c0       	rjmp	.+166    	; 0x553c <__vector_6+0x14c>
    5496:	2a 5d       	subi	r18, 0xDA	; 218
    5498:	35 40       	sbci	r19, 0x05	; 5
    549a:	28 f0       	brcs	.+10     	; 0x54a6 <__vector_6+0xb6>
    549c:	80 91 6e 06 	lds	r24, 0x066E
    54a0:	8f 5f       	subi	r24, 0xFF	; 255
    54a2:	80 93 6e 06 	sts	0x066E, r24
    54a6:	80 91 6e 06 	lds	r24, 0x066E
    54aa:	82 30       	cpi	r24, 0x02	; 2
    54ac:	08 f4       	brcc	.+2      	; 0x54b0 <__vector_6+0xc0>
    54ae:	41 c0       	rjmp	.+130    	; 0x5532 <__vector_6+0x142>
    54b0:	80 91 6e 06 	lds	r24, 0x066E
    54b4:	80 fd       	sbrc	r24, 0
    54b6:	3d c0       	rjmp	.+122    	; 0x5532 <__vector_6+0x142>
    54b8:	80 91 5d 06 	lds	r24, 0x065D
    54bc:	90 91 5e 06 	lds	r25, 0x065E
    54c0:	88 0f       	add	r24, r24
    54c2:	99 1f       	adc	r25, r25
    54c4:	90 93 5e 06 	sts	0x065E, r25
    54c8:	80 93 5d 06 	sts	0x065D, r24
    54cc:	0e b4       	in	r0, 0x2e	; 46
    54ce:	06 fe       	sbrs	r0, 6
    54d0:	05 c0       	rjmp	.+10     	; 0x54dc <__vector_6+0xec>
    54d2:	81 60       	ori	r24, 0x01	; 1
    54d4:	90 93 5e 06 	sts	0x065E, r25
    54d8:	80 93 5d 06 	sts	0x065D, r24
    54dc:	80 91 5f 06 	lds	r24, 0x065F
    54e0:	8f 5f       	subi	r24, 0xFF	; 255
    54e2:	80 93 5f 06 	sts	0x065F, r24
    54e6:	8d 30       	cpi	r24, 0x0D	; 13
    54e8:	20 f1       	brcs	.+72     	; 0x5532 <__vector_6+0x142>
    54ea:	80 91 6f 06 	lds	r24, 0x066F
    54ee:	88 23       	and	r24, r24
    54f0:	d9 f4       	brne	.+54     	; 0x5528 <__vector_6+0x138>
    54f2:	20 91 5d 06 	lds	r18, 0x065D
    54f6:	30 91 5e 06 	lds	r19, 0x065E
    54fa:	82 2f       	mov	r24, r18
    54fc:	8f 73       	andi	r24, 0x3F	; 63
    54fe:	80 93 6d 06 	sts	0x066D, r24
    5502:	c9 01       	movw	r24, r18
    5504:	80 7c       	andi	r24, 0xC0	; 192
    5506:	97 70       	andi	r25, 0x07	; 7
    5508:	68 94       	set
    550a:	15 f8       	bld	r1, 5
    550c:	96 95       	lsr	r25
    550e:	87 95       	ror	r24
    5510:	16 94       	lsr	r1
    5512:	e1 f7       	brne	.-8      	; 0x550c <__vector_6+0x11c>
    5514:	80 93 6c 06 	sts	0x066C, r24
    5518:	20 70       	andi	r18, 0x00	; 0
    551a:	38 70       	andi	r19, 0x08	; 8
    551c:	83 2f       	mov	r24, r19
    551e:	86 95       	lsr	r24
    5520:	86 95       	lsr	r24
    5522:	86 95       	lsr	r24
    5524:	80 93 6b 06 	sts	0x066B, r24
    5528:	10 92 5c 06 	sts	0x065C, r1
    552c:	81 e0       	ldi	r24, 0x01	; 1
    552e:	80 93 6f 06 	sts	0x066F, r24
    5532:	80 91 6e 06 	lds	r24, 0x066E
    5536:	8f 5f       	subi	r24, 0xFF	; 255
    5538:	80 93 6e 06 	sts	0x066E, r24
    553c:	80 91 5c 06 	lds	r24, 0x065C
    5540:	88 23       	and	r24, r24
    5542:	29 f4       	brne	.+10     	; 0x554e <__vector_6+0x15e>
    5544:	10 92 6e 06 	sts	0x066E, r1
    5548:	8e b5       	in	r24, 0x2e	; 46
    554a:	8f 7b       	andi	r24, 0xBF	; 191
    554c:	8e bd       	out	0x2e, r24	; 46
    554e:	9f 91       	pop	r25
    5550:	8f 91       	pop	r24
    5552:	3f 91       	pop	r19
    5554:	2f 91       	pop	r18
    5556:	0f 90       	pop	r0
    5558:	0f be       	out	0x3f, r0	; 63
    555a:	0f 90       	pop	r0
    555c:	1f 90       	pop	r1
    555e:	18 95       	reti

00005560 <TWI_start>:
    5560:	84 ea       	ldi	r24, 0xA4	; 164
    5562:	86 bf       	out	0x36, r24	; 54
    5564:	06 b6       	in	r0, 0x36	; 54
    5566:	07 fe       	sbrs	r0, 7
    5568:	fd cf       	rjmp	.-6      	; 0x5564 <TWI_start+0x4>
    556a:	08 95       	ret

0000556c <TWI_stop>:
    556c:	84 e9       	ldi	r24, 0x94	; 148
    556e:	86 bf       	out	0x36, r24	; 54
    5570:	06 b6       	in	r0, 0x36	; 54
    5572:	04 fe       	sbrs	r0, 4
    5574:	fd cf       	rjmp	.-6      	; 0x5570 <TWI_stop+0x4>
    5576:	08 95       	ret

00005578 <TWI_write>:
    5578:	83 b9       	out	0x03, r24	; 3
    557a:	84 e8       	ldi	r24, 0x84	; 132
    557c:	86 bf       	out	0x36, r24	; 54
    557e:	06 b6       	in	r0, 0x36	; 54
    5580:	07 fe       	sbrs	r0, 7
    5582:	fd cf       	rjmp	.-6      	; 0x557e <TWI_write+0x6>
    5584:	08 95       	ret

00005586 <TWI_read>:
    5586:	82 95       	swap	r24
    5588:	88 0f       	add	r24, r24
    558a:	88 0f       	add	r24, r24
    558c:	80 7c       	andi	r24, 0xC0	; 192
    558e:	84 68       	ori	r24, 0x84	; 132
    5590:	86 bf       	out	0x36, r24	; 54
    5592:	06 b6       	in	r0, 0x36	; 54
    5594:	07 fe       	sbrs	r0, 7
    5596:	fd cf       	rjmp	.-6      	; 0x5592 <TWI_read+0xc>
    5598:	83 b1       	in	r24, 0x03	; 3
    559a:	08 95       	ret

0000559c <TWI_write_buf>:
    559c:	98 2f       	mov	r25, r24
    559e:	f9 01       	movw	r30, r18
    55a0:	84 ea       	ldi	r24, 0xA4	; 164
    55a2:	86 bf       	out	0x36, r24	; 54
    55a4:	06 b6       	in	r0, 0x36	; 54
    55a6:	07 fe       	sbrs	r0, 7
    55a8:	fd cf       	rjmp	.-6      	; 0x55a4 <TWI_write_buf+0x8>
    55aa:	93 b9       	out	0x03, r25	; 3
    55ac:	84 e8       	ldi	r24, 0x84	; 132
    55ae:	86 bf       	out	0x36, r24	; 54
    55b0:	06 b6       	in	r0, 0x36	; 54
    55b2:	07 fe       	sbrs	r0, 7
    55b4:	fd cf       	rjmp	.-6      	; 0x55b0 <TWI_write_buf+0x14>
    55b6:	63 b9       	out	0x03, r22	; 3
    55b8:	84 e8       	ldi	r24, 0x84	; 132
    55ba:	86 bf       	out	0x36, r24	; 54
    55bc:	06 b6       	in	r0, 0x36	; 54
    55be:	07 fe       	sbrs	r0, 7
    55c0:	fd cf       	rjmp	.-6      	; 0x55bc <TWI_write_buf+0x20>
    55c2:	09 c0       	rjmp	.+18     	; 0x55d6 <TWI_write_buf+0x3a>
    55c4:	80 81       	ld	r24, Z
    55c6:	83 b9       	out	0x03, r24	; 3
    55c8:	96 bf       	out	0x36, r25	; 54
    55ca:	06 b6       	in	r0, 0x36	; 54
    55cc:	07 fe       	sbrs	r0, 7
    55ce:	fd cf       	rjmp	.-6      	; 0x55ca <TWI_write_buf+0x2e>
    55d0:	31 96       	adiw	r30, 0x01	; 1
    55d2:	41 50       	subi	r20, 0x01	; 1
    55d4:	01 c0       	rjmp	.+2      	; 0x55d8 <TWI_write_buf+0x3c>
    55d6:	94 e8       	ldi	r25, 0x84	; 132
    55d8:	44 23       	and	r20, r20
    55da:	a1 f7       	brne	.-24     	; 0x55c4 <TWI_write_buf+0x28>
    55dc:	84 e9       	ldi	r24, 0x94	; 148
    55de:	86 bf       	out	0x36, r24	; 54
    55e0:	06 b6       	in	r0, 0x36	; 54
    55e2:	04 fe       	sbrs	r0, 4
    55e4:	fd cf       	rjmp	.-6      	; 0x55e0 <TWI_write_buf+0x44>
    55e6:	08 95       	ret

000055e8 <TWI_read_buf>:
    55e8:	98 2f       	mov	r25, r24
    55ea:	f9 01       	movw	r30, r18
    55ec:	84 ea       	ldi	r24, 0xA4	; 164
    55ee:	86 bf       	out	0x36, r24	; 54
    55f0:	06 b6       	in	r0, 0x36	; 54
    55f2:	07 fe       	sbrs	r0, 7
    55f4:	fd cf       	rjmp	.-6      	; 0x55f0 <TWI_read_buf+0x8>
    55f6:	93 b9       	out	0x03, r25	; 3
    55f8:	84 e8       	ldi	r24, 0x84	; 132
    55fa:	86 bf       	out	0x36, r24	; 54
    55fc:	06 b6       	in	r0, 0x36	; 54
    55fe:	07 fe       	sbrs	r0, 7
    5600:	fd cf       	rjmp	.-6      	; 0x55fc <TWI_read_buf+0x14>
    5602:	63 b9       	out	0x03, r22	; 3
    5604:	84 e8       	ldi	r24, 0x84	; 132
    5606:	86 bf       	out	0x36, r24	; 54
    5608:	06 b6       	in	r0, 0x36	; 54
    560a:	07 fe       	sbrs	r0, 7
    560c:	fd cf       	rjmp	.-6      	; 0x5608 <TWI_read_buf+0x20>
    560e:	84 ea       	ldi	r24, 0xA4	; 164
    5610:	86 bf       	out	0x36, r24	; 54
    5612:	06 b6       	in	r0, 0x36	; 54
    5614:	07 fe       	sbrs	r0, 7
    5616:	fd cf       	rjmp	.-6      	; 0x5612 <TWI_read_buf+0x2a>
    5618:	9f 5f       	subi	r25, 0xFF	; 255
    561a:	93 b9       	out	0x03, r25	; 3
    561c:	84 e8       	ldi	r24, 0x84	; 132
    561e:	86 bf       	out	0x36, r24	; 54
    5620:	06 b6       	in	r0, 0x36	; 54
    5622:	07 fe       	sbrs	r0, 7
    5624:	fd cf       	rjmp	.-6      	; 0x5620 <TWI_read_buf+0x38>
    5626:	12 c0       	rjmp	.+36     	; 0x564c <TWI_read_buf+0x64>
    5628:	41 50       	subi	r20, 0x01	; 1
    562a:	80 e0       	ldi	r24, 0x00	; 0
    562c:	90 e0       	ldi	r25, 0x00	; 0
    562e:	11 f0       	breq	.+4      	; 0x5634 <TWI_read_buf+0x4c>
    5630:	81 e0       	ldi	r24, 0x01	; 1
    5632:	90 e0       	ldi	r25, 0x00	; 0
    5634:	26 e0       	ldi	r18, 0x06	; 6
    5636:	88 0f       	add	r24, r24
    5638:	99 1f       	adc	r25, r25
    563a:	2a 95       	dec	r18
    563c:	e1 f7       	brne	.-8      	; 0x5636 <TWI_read_buf+0x4e>
    563e:	84 68       	ori	r24, 0x84	; 132
    5640:	86 bf       	out	0x36, r24	; 54
    5642:	06 b6       	in	r0, 0x36	; 54
    5644:	07 fe       	sbrs	r0, 7
    5646:	fd cf       	rjmp	.-6      	; 0x5642 <TWI_read_buf+0x5a>
    5648:	83 b1       	in	r24, 0x03	; 3
    564a:	81 93       	st	Z+, r24
    564c:	44 23       	and	r20, r20
    564e:	61 f7       	brne	.-40     	; 0x5628 <TWI_read_buf+0x40>
    5650:	84 e9       	ldi	r24, 0x94	; 148
    5652:	86 bf       	out	0x36, r24	; 54
    5654:	06 b6       	in	r0, 0x36	; 54
    5656:	04 fe       	sbrs	r0, 4
    5658:	fd cf       	rjmp	.-6      	; 0x5654 <TWI_read_buf+0x6c>
    565a:	08 95       	ret

0000565c <__mulsi3>:
    565c:	62 9f       	mul	r22, r18
    565e:	d0 01       	movw	r26, r0
    5660:	73 9f       	mul	r23, r19
    5662:	f0 01       	movw	r30, r0
    5664:	82 9f       	mul	r24, r18
    5666:	e0 0d       	add	r30, r0
    5668:	f1 1d       	adc	r31, r1
    566a:	64 9f       	mul	r22, r20
    566c:	e0 0d       	add	r30, r0
    566e:	f1 1d       	adc	r31, r1
    5670:	92 9f       	mul	r25, r18
    5672:	f0 0d       	add	r31, r0
    5674:	83 9f       	mul	r24, r19
    5676:	f0 0d       	add	r31, r0
    5678:	74 9f       	mul	r23, r20
    567a:	f0 0d       	add	r31, r0
    567c:	65 9f       	mul	r22, r21
    567e:	f0 0d       	add	r31, r0
    5680:	99 27       	eor	r25, r25
    5682:	72 9f       	mul	r23, r18
    5684:	b0 0d       	add	r27, r0
    5686:	e1 1d       	adc	r30, r1
    5688:	f9 1f       	adc	r31, r25
    568a:	63 9f       	mul	r22, r19
    568c:	b0 0d       	add	r27, r0
    568e:	e1 1d       	adc	r30, r1
    5690:	f9 1f       	adc	r31, r25
    5692:	bd 01       	movw	r22, r26
    5694:	cf 01       	movw	r24, r30
    5696:	11 24       	eor	r1, r1
    5698:	08 95       	ret

0000569a <__udivmodqi4>:
    569a:	99 1b       	sub	r25, r25
    569c:	79 e0       	ldi	r23, 0x09	; 9
    569e:	04 c0       	rjmp	.+8      	; 0x56a8 <__udivmodqi4_ep>

000056a0 <__udivmodqi4_loop>:
    56a0:	99 1f       	adc	r25, r25
    56a2:	96 17       	cp	r25, r22
    56a4:	08 f0       	brcs	.+2      	; 0x56a8 <__udivmodqi4_ep>
    56a6:	96 1b       	sub	r25, r22

000056a8 <__udivmodqi4_ep>:
    56a8:	88 1f       	adc	r24, r24
    56aa:	7a 95       	dec	r23
    56ac:	c9 f7       	brne	.-14     	; 0x56a0 <__udivmodqi4_loop>
    56ae:	80 95       	com	r24
    56b0:	08 95       	ret

000056b2 <__udivmodsi4>:
    56b2:	a1 e2       	ldi	r26, 0x21	; 33
    56b4:	1a 2e       	mov	r1, r26
    56b6:	aa 1b       	sub	r26, r26
    56b8:	bb 1b       	sub	r27, r27
    56ba:	fd 01       	movw	r30, r26
    56bc:	0d c0       	rjmp	.+26     	; 0x56d8 <__udivmodsi4_ep>

000056be <__udivmodsi4_loop>:
    56be:	aa 1f       	adc	r26, r26
    56c0:	bb 1f       	adc	r27, r27
    56c2:	ee 1f       	adc	r30, r30
    56c4:	ff 1f       	adc	r31, r31
    56c6:	a2 17       	cp	r26, r18
    56c8:	b3 07       	cpc	r27, r19
    56ca:	e4 07       	cpc	r30, r20
    56cc:	f5 07       	cpc	r31, r21
    56ce:	20 f0       	brcs	.+8      	; 0x56d8 <__udivmodsi4_ep>
    56d0:	a2 1b       	sub	r26, r18
    56d2:	b3 0b       	sbc	r27, r19
    56d4:	e4 0b       	sbc	r30, r20
    56d6:	f5 0b       	sbc	r31, r21

000056d8 <__udivmodsi4_ep>:
    56d8:	66 1f       	adc	r22, r22
    56da:	77 1f       	adc	r23, r23
    56dc:	88 1f       	adc	r24, r24
    56de:	99 1f       	adc	r25, r25
    56e0:	1a 94       	dec	r1
    56e2:	69 f7       	brne	.-38     	; 0x56be <__udivmodsi4_loop>
    56e4:	60 95       	com	r22
    56e6:	70 95       	com	r23
    56e8:	80 95       	com	r24
    56ea:	90 95       	com	r25
    56ec:	9b 01       	movw	r18, r22
    56ee:	ac 01       	movw	r20, r24
    56f0:	bd 01       	movw	r22, r26
    56f2:	cf 01       	movw	r24, r30
    56f4:	08 95       	ret

000056f6 <itoa>:
    56f6:	fb 01       	movw	r30, r22
    56f8:	9f 01       	movw	r18, r30
    56fa:	e8 94       	clt
    56fc:	42 30       	cpi	r20, 0x02	; 2
    56fe:	c4 f0       	brlt	.+48     	; 0x5730 <itoa+0x3a>
    5700:	45 32       	cpi	r20, 0x25	; 37
    5702:	b4 f4       	brge	.+44     	; 0x5730 <itoa+0x3a>
    5704:	4a 30       	cpi	r20, 0x0A	; 10
    5706:	29 f4       	brne	.+10     	; 0x5712 <itoa+0x1c>
    5708:	97 fb       	bst	r25, 7
    570a:	1e f4       	brtc	.+6      	; 0x5712 <itoa+0x1c>
    570c:	90 95       	com	r25
    570e:	81 95       	neg	r24
    5710:	9f 4f       	sbci	r25, 0xFF	; 255
    5712:	64 2f       	mov	r22, r20
    5714:	77 27       	eor	r23, r23
    5716:	0e 94 b4 2b 	call	0x5768	; 0x5768 <__udivmodhi4>
    571a:	80 5d       	subi	r24, 0xD0	; 208
    571c:	8a 33       	cpi	r24, 0x3A	; 58
    571e:	0c f0       	brlt	.+2      	; 0x5722 <itoa+0x2c>
    5720:	89 5d       	subi	r24, 0xD9	; 217
    5722:	81 93       	st	Z+, r24
    5724:	cb 01       	movw	r24, r22
    5726:	00 97       	sbiw	r24, 0x00	; 0
    5728:	a1 f7       	brne	.-24     	; 0x5712 <itoa+0x1c>
    572a:	16 f4       	brtc	.+4      	; 0x5730 <itoa+0x3a>
    572c:	5d e2       	ldi	r21, 0x2D	; 45
    572e:	51 93       	st	Z+, r21
    5730:	10 82       	st	Z, r1
    5732:	c9 01       	movw	r24, r18
    5734:	0c 94 a4 2b 	jmp	0x5748	; 0x5748 <strrev>

00005738 <__eerd_byte_m32>:
    5738:	e1 99       	sbic	0x1c, 1	; 28
    573a:	fe cf       	rjmp	.-4      	; 0x5738 <__eerd_byte_m32>
    573c:	9f bb       	out	0x1f, r25	; 31
    573e:	8e bb       	out	0x1e, r24	; 30
    5740:	e0 9a       	sbi	0x1c, 0	; 28
    5742:	99 27       	eor	r25, r25
    5744:	8d b3       	in	r24, 0x1d	; 29
    5746:	08 95       	ret

00005748 <strrev>:
    5748:	dc 01       	movw	r26, r24
    574a:	fc 01       	movw	r30, r24
    574c:	67 2f       	mov	r22, r23
    574e:	71 91       	ld	r23, Z+
    5750:	77 23       	and	r23, r23
    5752:	e1 f7       	brne	.-8      	; 0x574c <strrev+0x4>
    5754:	32 97       	sbiw	r30, 0x02	; 2
    5756:	04 c0       	rjmp	.+8      	; 0x5760 <strrev+0x18>
    5758:	7c 91       	ld	r23, X
    575a:	6d 93       	st	X+, r22
    575c:	70 83       	st	Z, r23
    575e:	62 91       	ld	r22, -Z
    5760:	ae 17       	cp	r26, r30
    5762:	bf 07       	cpc	r27, r31
    5764:	c8 f3       	brcs	.-14     	; 0x5758 <strrev+0x10>
    5766:	08 95       	ret

00005768 <__udivmodhi4>:
    5768:	aa 1b       	sub	r26, r26
    576a:	bb 1b       	sub	r27, r27
    576c:	51 e1       	ldi	r21, 0x11	; 17
    576e:	07 c0       	rjmp	.+14     	; 0x577e <__udivmodhi4_ep>

00005770 <__udivmodhi4_loop>:
    5770:	aa 1f       	adc	r26, r26
    5772:	bb 1f       	adc	r27, r27
    5774:	a6 17       	cp	r26, r22
    5776:	b7 07       	cpc	r27, r23
    5778:	10 f0       	brcs	.+4      	; 0x577e <__udivmodhi4_ep>
    577a:	a6 1b       	sub	r26, r22
    577c:	b7 0b       	sbc	r27, r23

0000577e <__udivmodhi4_ep>:
    577e:	88 1f       	adc	r24, r24
    5780:	99 1f       	adc	r25, r25
    5782:	5a 95       	dec	r21
    5784:	a9 f7       	brne	.-22     	; 0x5770 <__udivmodhi4_loop>
    5786:	80 95       	com	r24
    5788:	90 95       	com	r25
    578a:	bc 01       	movw	r22, r24
    578c:	cd 01       	movw	r24, r26
    578e:	08 95       	ret

00005790 <_exit>:
    5790:	f8 94       	cli

00005792 <__stop_program>:
    5792:	ff cf       	rjmp	.-2      	; 0x5792 <__stop_program>
