
15_FAT_FS.elf:     file format elf32-avr

Sections:
Idx Name          Size      VMA       LMA       File off  Algn
  0 .text         00006c8c  00000000  00000000  00000094  2**1
                  CONTENTS, ALLOC, LOAD, READONLY, CODE
  1 .data         00000078  00800060  00006c8c  00006d20  2**0
                  CONTENTS, ALLOC, LOAD, DATA
  2 .bss          00000462  008000d8  008000d8  00006d98  2**0
                  ALLOC

Disassembly of section .text:

00000000 <__vectors>:
       0:	0c 94 6c 02 	jmp	0x4d8	; 0x4d8 <__ctors_end>
       4:	0c 94 89 02 	jmp	0x512	; 0x512 <__bad_interrupt>
       8:	0c 94 89 02 	jmp	0x512	; 0x512 <__bad_interrupt>
       c:	0c 94 89 02 	jmp	0x512	; 0x512 <__bad_interrupt>
      10:	0c 94 15 0f 	jmp	0x1e2a	; 0x1e2a <__vector_4>
      14:	0c 94 89 02 	jmp	0x512	; 0x512 <__bad_interrupt>
      18:	0c 94 89 02 	jmp	0x512	; 0x512 <__bad_interrupt>
      1c:	0c 94 89 02 	jmp	0x512	; 0x512 <__bad_interrupt>
      20:	0c 94 89 02 	jmp	0x512	; 0x512 <__bad_interrupt>
      24:	0c 94 89 02 	jmp	0x512	; 0x512 <__bad_interrupt>
      28:	0c 94 89 02 	jmp	0x512	; 0x512 <__bad_interrupt>
      2c:	0c 94 89 02 	jmp	0x512	; 0x512 <__bad_interrupt>
      30:	0c 94 89 02 	jmp	0x512	; 0x512 <__bad_interrupt>
      34:	0c 94 8e 0f 	jmp	0x1f1c	; 0x1f1c <__vector_13>
      38:	0c 94 b5 0f 	jmp	0x1f6a	; 0x1f6a <__vector_14>
      3c:	0c 94 89 02 	jmp	0x512	; 0x512 <__bad_interrupt>
      40:	0c 94 89 02 	jmp	0x512	; 0x512 <__bad_interrupt>
      44:	0c 94 89 02 	jmp	0x512	; 0x512 <__bad_interrupt>
      48:	0c 94 89 02 	jmp	0x512	; 0x512 <__bad_interrupt>
      4c:	0c 94 89 02 	jmp	0x512	; 0x512 <__bad_interrupt>
      50:	0c 94 89 02 	jmp	0x512	; 0x512 <__bad_interrupt>
      54:	74 0c       	add	r7, r4
      56:	6b 04       	cpc	r6, r11
      58:	4c 0a       	sbc	r4, r28
      5a:	28 0b       	sbc	r18, r24
      5c:	51 0a       	sbc	r5, r17
      5e:	6b 04       	cpc	r6, r11
      60:	1a 0e       	add	r1, r26
      62:	6b 04       	cpc	r6, r11
      64:	c4 07       	cpc	r28, r20
      66:	23 0e       	add	r2, r19
      68:	6b 0c       	add	r6, r11
      6a:	ec 08       	sbc	r14, r12
      6c:	4b 0e       	add	r4, r27
      6e:	42 0c       	add	r4, r2
      70:	32 0a       	sbc	r3, r18
      72:	6b 04       	cpc	r6, r11
      74:	32 0e       	add	r3, r18
      76:	86 0a       	sbc	r8, r22
      78:	e3 07       	cpc	r30, r19
      7a:	9a 0c       	add	r9, r10
      7c:	5f 0c       	add	r5, r15
      7e:	3a 0c       	add	r3, r10
      80:	81 0b       	sbc	r24, r17
      82:	44 0d       	add	r20, r4

00000084 <__c.1995>:
      84:	25 75 2f 25 75 2f 25 75 20 25 30 32 75 3a 25 30     %u/%u/%u %02u:%0
      94:	32 75 3a 25 30 32 75 0a 00                          2u:%02u..

0000009d <__c.1992>:
      9d:	54 68 65 20 64 72 69 76 65 20 25 75 20 77 69 6c     The drive %u wil
      ad:	6c 20 62 65 20 66 6f 72 6d 61 74 74 65 64 2e 20     l be formatted. 
      bd:	41 72 65 20 79 6f 75 20 73 75 72 65 3f 20 28 59     Are you sure? (Y
      cd:	2f 6e 29 3d 00                                      /n)=.

000000d2 <__c.1983>:
      d2:	0a 25 6c 75 20 62 79 74 65 73 20 63 6f 70 69 65     .%lu bytes copie
      e2:	64 2e 0a 00                                         d...

000000e6 <__c.1979>:
      e6:	0a 43 6f 70 79 69 6e 67 2e 2e 2e 00                 .Copying....

000000f2 <__c.1977>:
      f2:	0a 43 72 65 61 74 69 6e 67 20 22 25 73 22 00        .Creating "%s".

00000101 <__c.1975>:
     101:	4f 70 65 6e 69 6e 67 20 22 25 73 22 00              Opening "%s".

0000010e <__c.1942>:
     10e:	25 6c 75 20 62 79 74 65 73 20 77 72 69 74 74 65     %lu bytes writte
     11e:	6e 20 77 69 74 68 20 25 6c 75 20 62 79 74 65 73     n with %lu bytes
     12e:	2f 73 65 63 2e 0a 00                                /sec...

00000135 <__c.1932>:
     135:	25 6c 75 20 62 79 74 65 73 20 72 65 61 64 20 77     %lu bytes read w
     145:	69 74 68 20 25 6c 75 20 62 79 74 65 73 2f 73 65     ith %lu bytes/se
     155:	63 2e 0a 00                                         c...

00000159 <__c.1926>:
     159:	66 70 74 72 20 3d 20 25 6c 75 28 30 78 25 6c 58     fptr = %lu(0x%lX
     169:	29 0a 00                                            )..

0000016c <__c.1918>:
     16c:	2c 20 25 31 30 6c 75 4b 20 62 79 74 65 73 20 66     , %10luK bytes f
     17c:	72 65 65 0a 00                                      ree..

00000181 <__c.1916>:
     181:	25 34 75 20 46 69 6c 65 28 73 29 2c 25 31 30 6c     %4u File(s),%10l
     191:	75 20 62 79 74 65 73 20 74 6f 74 61 6c 0a 25 34     u bytes total.%4
     1a1:	75 20 44 69 72 28 73 29 00                          u Dir(s).

000001aa <__c.1913>:
     1aa:	25 63 25 63 25 63 25 63 25 63 20 25 75 2f 25 30     %c%c%c%c%c %u/%0
     1ba:	32 75 2f 25 30 32 75 20 25 30 32 75 3a 25 30 32     2u/%02u %02u:%02
     1ca:	75 20 25 39 6c 75 20 20 25 73 00                    u %9lu  %s.

000001d5 <__c.1906>:
     1d5:	0d 25 75 20 66 69 6c 65 73 2c 20 25 6c 75 20 62     .%u files, %lu b
     1e5:	79 74 65 73 2e 0a 25 75 20 66 6f 6c 64 65 72 73     ytes..%u folders
     1f5:	2e 0a 25 6c 75 20 4b 42 20 74 6f 74 61 6c 20 64     ..%lu KB total d
     205:	69 73 6b 20 73 70 61 63 65 2e 0a 25 6c 75 20 4b     isk space..%lu K
     215:	42 20 61 76 61 69 6c 61 62 6c 65 2e 0a 00           B available...

00000223 <__c.1904>:
     223:	46 41 54 20 74 79 70 65 20 3d 20 46 41 54 25 75     FAT type = FAT%u
     233:	0a 42 79 74 65 73 2f 43 6c 75 73 74 65 72 20 3d     .Bytes/Cluster =
     243:	20 25 6c 75 0a 4e 75 6d 62 65 72 20 6f 66 20 46      %lu.Number of F
     253:	41 54 73 20 3d 20 25 75 0a 52 6f 6f 74 20 44 49     ATs = %u.Root DI
     263:	52 20 65 6e 74 72 69 65 73 20 3d 20 25 75 0a 53     R entries = %u.S
     273:	65 63 74 6f 72 73 2f 46 41 54 20 3d 20 25 6c 75     ectors/FAT = %lu
     283:	0a 4e 75 6d 62 65 72 20 6f 66 20 63 6c 75 73 74     .Number of clust
     293:	65 72 73 20 3d 20 25 6c 75 0a 46 41 54 20 73 74     ers = %lu.FAT st
     2a3:	61 72 74 20 28 6c 62 61 29 20 3d 20 25 6c 75 0a     art (lba) = %lu.
     2b3:	44 49 52 20 73 74 61 72 74 20 28 6c 62 61 2c 63     DIR start (lba,c
     2c3:	6c 75 73 74 6f 72 29 20 3d 20 25 6c 75 0a 44 61     lustor) = %lu.Da
     2d3:	74 61 20 73 74 61 72 74 20 28 6c 62 61 29 20 3d     ta start (lba) =
     2e3:	20 25 6c 75 0a 0a 2e 2e 2e 00                        %lu......

000002ed <__c.1894>:
     2ed:	72 63 3d 25 75 0a 00                                rc=%u..

000002f4 <__c.1891>:
     2f4:	72 63 3d 25 75 0a 00                                rc=%u..

000002fb <__c.1887>:
     2fb:	3f 3f 3f 0a 00                                      ???..

00000300 <__c.1883>:
     300:	25 30 34 58 20 25 30 32 58 2d 00                    %04X %02X-.

0000030b <__c.1871>:
     30b:	53 2f 4e 3a 20 25 73 0a 00                          S/N: %s..

00000314 <__c.1869>:
     314:	4d 6f 64 65 6c 3a 20 25 73 0a 00                    Model: %s..

0000031f <__c.1864>:
     31f:	53 44 20 53 74 61 74 75 73 3a 0a 00                 SD Status:..

0000032b <__c.1862>:
     32b:	4f 43 52 3a 0a 00                                   OCR:..

00000331 <__c.1860>:
     331:	43 49 44 3a 0a 00                                   CID:..

00000337 <__c.1858>:
     337:	43 53 44 3a 0a 00                                   CSD:..

0000033d <__c.1856>:
     33d:	43 61 72 64 20 74 79 70 65 3a 20 25 75 0a 00        Card type: %u..

0000034c <__c.1854>:
     34c:	45 72 61 73 65 20 62 6c 6f 63 6b 3a 20 25 6c 75     Erase block: %lu
     35c:	20 73 65 63 74 6f 72 73 0a 00                        sectors..

00000366 <__c.1852>:
     366:	53 65 63 74 6f 72 20 73 69 7a 65 3a 20 25 75 0a     Sector size: %u.
	...

00000377 <__c.1850>:
     377:	44 72 69 76 65 20 73 69 7a 65 3a 20 25 6c 75 20     Drive size: %lu 
     387:	73 65 63 74 6f 72 73 0a 00                          sectors..

00000390 <__c.1847>:
     390:	72 63 3d 25 64 0a 00                                rc=%d..

00000397 <__c.1841>:
     397:	53 65 63 74 6f 72 3a 25 6c 75 0a 00                 Sector:%lu..

000003a3 <__c.1839>:
     3a3:	72 63 3d 25 64 0a 00                                rc=%d..

000003aa <__c.1834>:
     3aa:	2c 20 43 6f 64 65 20 70 61 67 65 3a 20 25 75 0a     , Code page: %u.
	...

000003bb <__c.1832>:
     3bb:	4c 46 4e 20 44 69 73 61 62 6c 65 64 00              LFN Disabled.

000003c8 <__c.1828>:
     3c8:	0a 46 61 74 46 73 20 6d 6f 64 75 6c 65 20 74 65     .FatFs module te
     3d8:	73 74 20 6d 6f 6e 69 74 6f 72 20 66 6f 72 20 41     st monitor for A
     3e8:	56 52 0a 00                                         VR..

000003ec <__c.1717>:
     3ec:	20 25 30 32 58 00                                    %02X.

000003f2 <__c.1715>:
     3f2:	25 30 38 6c 58 20 00                                %08lX .

000003f9 <__c.1792>:
     3f9:	72 63 3d 25 75 20 46 52 5f 25 53 0a 00              rc=%u FR_%S..

00000406 <str.1778>:
     406:	4f 4b 00 44 49 53 4b 5f 45 52 52 00 49 4e 54 5f     OK.DISK_ERR.INT_
     416:	45 52 52 00 4e 4f 54 5f 52 45 41 44 59 00 4e 4f     ERR.NOT_READY.NO
     426:	5f 46 49 4c 45 00 4e 4f 5f 50 41 54 48 00 49 4e     _FILE.NO_PATH.IN
     436:	56 41 4c 49 44 5f 4e 41 4d 45 00 44 45 4e 49 45     VALID_NAME.DENIE
     446:	44 00 45 58 49 53 54 00 49 4e 56 41 4c 49 44 5f     D.EXIST.INVALID_
     456:	4f 42 4a 45 43 54 00 57 52 49 54 45 5f 50 52 4f     OBJECT.WRITE_PRO
     466:	54 45 43 54 45 44 00 49 4e 56 41 4c 49 44 5f 44     TECTED.INVALID_D
     476:	52 49 56 45 00 4e 4f 54 5f 45 4e 41 42 4c 45 44     RIVE.NOT_ENABLED
     486:	00 4e 4f 5f 46 49 4c 45 5f 53 59 53 54 45 4d 00     .NO_FILE_SYSTEM.
     496:	4d 4b 46 53 5f 41 42 4f 52 54 45 44 00 54 49 4d     MKFS_ABORTED.TIM
     4a6:	45 4f 55 54 00 4c 4f 43 4b 45 44 00 4e 4f 54 5f     EOUT.LOCKED.NOT_
     4b6:	45 4e 4f 55 47 48 5f 43 4f 52 45 00 54 4f 4f 5f     ENOUGH_CORE.TOO_
     4c6:	4d 41 4e 59 5f 4f 50 45 4e 5f 46 49 4c 45 53 00     MANY_OPEN_FILES.
	...

000004d8 <__ctors_end>:
     4d8:	11 24       	eor	r1, r1
     4da:	1f be       	out	0x3f, r1	; 63
     4dc:	cf e5       	ldi	r28, 0x5F	; 95
     4de:	d8 e0       	ldi	r29, 0x08	; 8
     4e0:	de bf       	out	0x3e, r29	; 62
     4e2:	cd bf       	out	0x3d, r28	; 61

000004e4 <__do_copy_data>:
     4e4:	10 e0       	ldi	r17, 0x00	; 0
     4e6:	a0 e6       	ldi	r26, 0x60	; 96
     4e8:	b0 e0       	ldi	r27, 0x00	; 0
     4ea:	ec e8       	ldi	r30, 0x8C	; 140
     4ec:	fc e6       	ldi	r31, 0x6C	; 108
     4ee:	02 c0       	rjmp	.+4      	; 0x4f4 <.do_copy_data_start>

000004f0 <.do_copy_data_loop>:
     4f0:	05 90       	lpm	r0, Z+
     4f2:	0d 92       	st	X+, r0

000004f4 <.do_copy_data_start>:
     4f4:	a8 3d       	cpi	r26, 0xD8	; 216
     4f6:	b1 07       	cpc	r27, r17
     4f8:	d9 f7       	brne	.-10     	; 0x4f0 <.do_copy_data_loop>

000004fa <__do_clear_bss>:
     4fa:	15 e0       	ldi	r17, 0x05	; 5
     4fc:	a8 ed       	ldi	r26, 0xD8	; 216
     4fe:	b0 e0       	ldi	r27, 0x00	; 0
     500:	01 c0       	rjmp	.+2      	; 0x504 <.do_clear_bss_start>

00000502 <.do_clear_bss_loop>:
     502:	1d 92       	st	X+, r1

00000504 <.do_clear_bss_start>:
     504:	aa 33       	cpi	r26, 0x3A	; 58
     506:	b1 07       	cpc	r27, r17
     508:	e1 f7       	brne	.-8      	; 0x502 <.do_clear_bss_loop>
     50a:	0e 94 f0 03 	call	0x7e0	; 0x7e0 <main>
     50e:	0c 94 44 36 	jmp	0x6c88	; 0x6c88 <_exit>

00000512 <__bad_interrupt>:
     512:	0c 94 00 00 	jmp	0	; 0x0 <__vectors>

00000516 <get_fattime>:
     516:	60 ea       	ldi	r22, 0xA0	; 160
     518:	7d e8       	ldi	r23, 0x8D	; 141
     51a:	85 e5       	ldi	r24, 0x55	; 85
     51c:	9d e3       	ldi	r25, 0x3D	; 61
     51e:	08 95       	ret

00000520 <put_rc>:
     520:	48 2f       	mov	r20, r24
     522:	26 e0       	ldi	r18, 0x06	; 6
     524:	34 e0       	ldi	r19, 0x04	; 4
     526:	90 e0       	ldi	r25, 0x00	; 0
     528:	07 c0       	rjmp	.+14     	; 0x538 <put_rc+0x18>
     52a:	f9 01       	movw	r30, r18
     52c:	2f 5f       	subi	r18, 0xFF	; 255
     52e:	3f 4f       	sbci	r19, 0xFF	; 255
     530:	e4 91       	lpm	r30, Z+
     532:	ee 23       	and	r30, r30
     534:	d1 f7       	brne	.-12     	; 0x52a <put_rc+0xa>
     536:	9f 5f       	subi	r25, 0xFF	; 255
     538:	94 17       	cp	r25, r20
     53a:	21 f0       	breq	.+8      	; 0x544 <put_rc+0x24>
     53c:	f9 01       	movw	r30, r18
     53e:	84 91       	lpm	r24, Z+
     540:	88 23       	and	r24, r24
     542:	99 f7       	brne	.-26     	; 0x52a <put_rc+0xa>
     544:	00 d0       	rcall	.+0      	; 0x546 <put_rc+0x26>
     546:	00 d0       	rcall	.+0      	; 0x548 <put_rc+0x28>
     548:	00 d0       	rcall	.+0      	; 0x54a <put_rc+0x2a>
     54a:	ed b7       	in	r30, 0x3d	; 61
     54c:	fe b7       	in	r31, 0x3e	; 62
     54e:	31 96       	adiw	r30, 0x01	; 1
     550:	89 ef       	ldi	r24, 0xF9	; 249
     552:	93 e0       	ldi	r25, 0x03	; 3
     554:	ad b7       	in	r26, 0x3d	; 61
     556:	be b7       	in	r27, 0x3e	; 62
     558:	12 96       	adiw	r26, 0x02	; 2
     55a:	9c 93       	st	X, r25
     55c:	8e 93       	st	-X, r24
     55e:	11 97       	sbiw	r26, 0x01	; 1
     560:	42 83       	std	Z+2, r20	; 0x02
     562:	13 82       	std	Z+3, r1	; 0x03
     564:	35 83       	std	Z+5, r19	; 0x05
     566:	24 83       	std	Z+4, r18	; 0x04
     568:	0e 94 36 10 	call	0x206c	; 0x206c <xprintf>
     56c:	ed b7       	in	r30, 0x3d	; 61
     56e:	fe b7       	in	r31, 0x3e	; 62
     570:	36 96       	adiw	r30, 0x06	; 6
     572:	0f b6       	in	r0, 0x3f	; 63
     574:	f8 94       	cli
     576:	fe bf       	out	0x3e, r31	; 62
     578:	0f be       	out	0x3f, r0	; 63
     57a:	ed bf       	out	0x3d, r30	; 61
     57c:	08 95       	ret

0000057e <put_dump>:
     57e:	bf 92       	push	r11
     580:	cf 92       	push	r12
     582:	df 92       	push	r13
     584:	ef 92       	push	r14
     586:	ff 92       	push	r15
     588:	0f 93       	push	r16
     58a:	1f 93       	push	r17
     58c:	cf 93       	push	r28
     58e:	df 93       	push	r29
     590:	18 2f       	mov	r17, r24
     592:	09 2f       	mov	r16, r25
     594:	b2 2e       	mov	r11, r18
     596:	00 d0       	rcall	.+0      	; 0x598 <put_dump+0x1a>
     598:	00 d0       	rcall	.+0      	; 0x59a <put_dump+0x1c>
     59a:	00 d0       	rcall	.+0      	; 0x59c <put_dump+0x1e>
     59c:	82 ef       	ldi	r24, 0xF2	; 242
     59e:	93 e0       	ldi	r25, 0x03	; 3
     5a0:	ad b7       	in	r26, 0x3d	; 61
     5a2:	be b7       	in	r27, 0x3e	; 62
     5a4:	12 96       	adiw	r26, 0x02	; 2
     5a6:	9c 93       	st	X, r25
     5a8:	8e 93       	st	-X, r24
     5aa:	11 97       	sbiw	r26, 0x01	; 1
     5ac:	ed b7       	in	r30, 0x3d	; 61
     5ae:	fe b7       	in	r31, 0x3e	; 62
     5b0:	43 83       	std	Z+3, r20	; 0x03
     5b2:	54 83       	std	Z+4, r21	; 0x04
     5b4:	65 83       	std	Z+5, r22	; 0x05
     5b6:	76 83       	std	Z+6, r23	; 0x06
     5b8:	0e 94 36 10 	call	0x206c	; 0x206c <xprintf>
     5bc:	21 2f       	mov	r18, r17
     5be:	30 2f       	mov	r19, r16
     5c0:	c9 01       	movw	r24, r18
     5c2:	ec 01       	movw	r28, r24
     5c4:	7c 01       	movw	r14, r24
     5c6:	10 e0       	ldi	r17, 0x00	; 0
     5c8:	8d b7       	in	r24, 0x3d	; 61
     5ca:	9e b7       	in	r25, 0x3e	; 62
     5cc:	06 96       	adiw	r24, 0x06	; 6
     5ce:	0f b6       	in	r0, 0x3f	; 63
     5d0:	f8 94       	cli
     5d2:	9e bf       	out	0x3e, r25	; 62
     5d4:	0f be       	out	0x3f, r0	; 63
     5d6:	8d bf       	out	0x3d, r24	; 61
     5d8:	8c ee       	ldi	r24, 0xEC	; 236
     5da:	c8 2e       	mov	r12, r24
     5dc:	83 e0       	ldi	r24, 0x03	; 3
     5de:	d8 2e       	mov	r13, r24
     5e0:	17 c0       	rjmp	.+46     	; 0x610 <put_dump+0x92>
     5e2:	00 d0       	rcall	.+0      	; 0x5e4 <put_dump+0x66>
     5e4:	00 d0       	rcall	.+0      	; 0x5e6 <put_dump+0x68>
     5e6:	ed b7       	in	r30, 0x3d	; 61
     5e8:	fe b7       	in	r31, 0x3e	; 62
     5ea:	31 96       	adiw	r30, 0x01	; 1
     5ec:	ad b7       	in	r26, 0x3d	; 61
     5ee:	be b7       	in	r27, 0x3e	; 62
     5f0:	12 96       	adiw	r26, 0x02	; 2
     5f2:	dc 92       	st	X, r13
     5f4:	ce 92       	st	-X, r12
     5f6:	11 97       	sbiw	r26, 0x01	; 1
     5f8:	d7 01       	movw	r26, r14
     5fa:	8d 91       	ld	r24, X+
     5fc:	7d 01       	movw	r14, r26
     5fe:	82 83       	std	Z+2, r24	; 0x02
     600:	13 82       	std	Z+3, r1	; 0x03
     602:	0e 94 36 10 	call	0x206c	; 0x206c <xprintf>
     606:	1f 5f       	subi	r17, 0xFF	; 255
     608:	0f 90       	pop	r0
     60a:	0f 90       	pop	r0
     60c:	0f 90       	pop	r0
     60e:	0f 90       	pop	r0
     610:	1b 15       	cp	r17, r11
     612:	38 f3       	brcs	.-50     	; 0x5e2 <put_dump+0x64>
     614:	80 e2       	ldi	r24, 0x20	; 32
     616:	0e 94 e3 0f 	call	0x1fc6	; 0x1fc6 <xputc>
     61a:	10 e0       	ldi	r17, 0x00	; 0
     61c:	0b c0       	rjmp	.+22     	; 0x634 <put_dump+0xb6>
     61e:	98 81       	ld	r25, Y
     620:	89 2f       	mov	r24, r25
     622:	80 52       	subi	r24, 0x20	; 32
     624:	8f 35       	cpi	r24, 0x5F	; 95
     626:	08 f0       	brcs	.+2      	; 0x62a <put_dump+0xac>
     628:	9e e2       	ldi	r25, 0x2E	; 46
     62a:	89 2f       	mov	r24, r25
     62c:	0e 94 e3 0f 	call	0x1fc6	; 0x1fc6 <xputc>
     630:	1f 5f       	subi	r17, 0xFF	; 255
     632:	21 96       	adiw	r28, 0x01	; 1
     634:	1b 15       	cp	r17, r11
     636:	98 f3       	brcs	.-26     	; 0x61e <put_dump+0xa0>
     638:	8a e0       	ldi	r24, 0x0A	; 10
     63a:	0e 94 e3 0f 	call	0x1fc6	; 0x1fc6 <xputc>
     63e:	df 91       	pop	r29
     640:	cf 91       	pop	r28
     642:	1f 91       	pop	r17
     644:	0f 91       	pop	r16
     646:	ff 90       	pop	r15
     648:	ef 90       	pop	r14
     64a:	df 90       	pop	r13
     64c:	cf 90       	pop	r12
     64e:	bf 90       	pop	r11
     650:	08 95       	ret

00000652 <scan_files>:
     652:	9f 92       	push	r9
     654:	af 92       	push	r10
     656:	bf 92       	push	r11
     658:	cf 92       	push	r12
     65a:	df 92       	push	r13
     65c:	ef 92       	push	r14
     65e:	ff 92       	push	r15
     660:	0f 93       	push	r16
     662:	1f 93       	push	r17
     664:	df 93       	push	r29
     666:	cf 93       	push	r28
     668:	cd b7       	in	r28, 0x3d	; 61
     66a:	de b7       	in	r29, 0x3e	; 62
     66c:	66 97       	sbiw	r28, 0x16	; 22
     66e:	0f b6       	in	r0, 0x3f	; 63
     670:	f8 94       	cli
     672:	de bf       	out	0x3e, r29	; 62
     674:	0f be       	out	0x3f, r0	; 63
     676:	cd bf       	out	0x3d, r28	; 61
     678:	8c 01       	movw	r16, r24
     67a:	7e 01       	movw	r14, r28
     67c:	08 94       	sec
     67e:	e1 1c       	adc	r14, r1
     680:	f1 1c       	adc	r15, r1
     682:	c7 01       	movw	r24, r14
     684:	b8 01       	movw	r22, r16
     686:	0e 94 75 25 	call	0x4aea	; 0x4aea <f_opendir>
     68a:	88 23       	and	r24, r24
     68c:	09 f0       	breq	.+2      	; 0x690 <scan_files+0x3e>
     68e:	64 c0       	rjmp	.+200    	; 0x758 <scan_files+0x106>
     690:	d8 01       	movw	r26, r16
     692:	0d 90       	ld	r0, X+
     694:	00 20       	and	r0, r0
     696:	e9 f7       	brne	.-6      	; 0x692 <scan_files+0x40>
     698:	11 97       	sbiw	r26, 0x01	; 1
     69a:	a0 1b       	sub	r26, r16
     69c:	b1 0b       	sbc	r27, r17
     69e:	57 01       	movw	r10, r14
     6a0:	68 01       	movw	r12, r16
     6a2:	ca 0e       	add	r12, r26
     6a4:	db 1e       	adc	r13, r27
     6a6:	9f e2       	ldi	r25, 0x2F	; 47
     6a8:	99 2e       	mov	r9, r25
     6aa:	7d 01       	movw	r14, r26
     6ac:	08 94       	sec
     6ae:	e1 1c       	adc	r14, r1
     6b0:	f1 1c       	adc	r15, r1
     6b2:	e0 0e       	add	r14, r16
     6b4:	f1 1e       	adc	r15, r17
     6b6:	44 c0       	rjmp	.+136    	; 0x740 <scan_files+0xee>
     6b8:	9e 32       	cpi	r25, 0x2E	; 46
     6ba:	09 f4       	brne	.+2      	; 0x6be <scan_files+0x6c>
     6bc:	41 c0       	rjmp	.+130    	; 0x740 <scan_files+0xee>
     6be:	80 91 a2 03 	lds	r24, 0x03A2
     6c2:	84 ff       	sbrs	r24, 4
     6c4:	18 c0       	rjmp	.+48     	; 0x6f6 <scan_files+0xa4>
     6c6:	80 91 b0 03 	lds	r24, 0x03B0
     6ca:	90 91 b1 03 	lds	r25, 0x03B1
     6ce:	01 96       	adiw	r24, 0x01	; 1
     6d0:	90 93 b1 03 	sts	0x03B1, r25
     6d4:	80 93 b0 03 	sts	0x03B0, r24
     6d8:	f6 01       	movw	r30, r12
     6da:	90 82       	st	Z, r9
     6dc:	c7 01       	movw	r24, r14
     6de:	63 ea       	ldi	r22, 0xA3	; 163
     6e0:	73 e0       	ldi	r23, 0x03	; 3
     6e2:	0e 94 3d 36 	call	0x6c7a	; 0x6c7a <strcpy>
     6e6:	c8 01       	movw	r24, r16
     6e8:	0e 94 29 03 	call	0x652	; 0x652 <scan_files>
     6ec:	f6 01       	movw	r30, r12
     6ee:	10 82       	st	Z, r1
     6f0:	88 23       	and	r24, r24
     6f2:	31 f1       	breq	.+76     	; 0x740 <scan_files+0xee>
     6f4:	31 c0       	rjmp	.+98     	; 0x758 <scan_files+0x106>
     6f6:	80 91 b2 03 	lds	r24, 0x03B2
     6fa:	90 91 b3 03 	lds	r25, 0x03B3
     6fe:	01 96       	adiw	r24, 0x01	; 1
     700:	90 93 b3 03 	sts	0x03B3, r25
     704:	80 93 b2 03 	sts	0x03B2, r24
     708:	80 91 b6 04 	lds	r24, 0x04B6
     70c:	90 91 b7 04 	lds	r25, 0x04B7
     710:	a0 91 b8 04 	lds	r26, 0x04B8
     714:	b0 91 b9 04 	lds	r27, 0x04B9
     718:	20 91 9a 03 	lds	r18, 0x039A
     71c:	30 91 9b 03 	lds	r19, 0x039B
     720:	40 91 9c 03 	lds	r20, 0x039C
     724:	50 91 9d 03 	lds	r21, 0x039D
     728:	82 0f       	add	r24, r18
     72a:	93 1f       	adc	r25, r19
     72c:	a4 1f       	adc	r26, r20
     72e:	b5 1f       	adc	r27, r21
     730:	80 93 b6 04 	sts	0x04B6, r24
     734:	90 93 b7 04 	sts	0x04B7, r25
     738:	a0 93 b8 04 	sts	0x04B8, r26
     73c:	b0 93 b9 04 	sts	0x04B9, r27
     740:	c5 01       	movw	r24, r10
     742:	6a e9       	ldi	r22, 0x9A	; 154
     744:	73 e0       	ldi	r23, 0x03	; 3
     746:	0e 94 e1 27 	call	0x4fc2	; 0x4fc2 <f_readdir>
     74a:	88 23       	and	r24, r24
     74c:	29 f4       	brne	.+10     	; 0x758 <scan_files+0x106>
     74e:	90 91 a3 03 	lds	r25, 0x03A3
     752:	99 23       	and	r25, r25
     754:	09 f0       	breq	.+2      	; 0x758 <scan_files+0x106>
     756:	b0 cf       	rjmp	.-160    	; 0x6b8 <scan_files+0x66>
     758:	66 96       	adiw	r28, 0x16	; 22
     75a:	0f b6       	in	r0, 0x3f	; 63
     75c:	f8 94       	cli
     75e:	de bf       	out	0x3e, r29	; 62
     760:	0f be       	out	0x3f, r0	; 63
     762:	cd bf       	out	0x3d, r28	; 61
     764:	cf 91       	pop	r28
     766:	df 91       	pop	r29
     768:	1f 91       	pop	r17
     76a:	0f 91       	pop	r16
     76c:	ff 90       	pop	r15
     76e:	ef 90       	pop	r14
     770:	df 90       	pop	r13
     772:	cf 90       	pop	r12
     774:	bf 90       	pop	r11
     776:	af 90       	pop	r10
     778:	9f 90       	pop	r9
     77a:	08 95       	ret

0000077c <get_line>:
     77c:	ef 92       	push	r14
     77e:	ff 92       	push	r15
     780:	0f 93       	push	r16
     782:	1f 93       	push	r17
     784:	cf 93       	push	r28
     786:	df 93       	push	r29
     788:	7c 01       	movw	r14, r24
     78a:	8b 01       	movw	r16, r22
     78c:	c0 e0       	ldi	r28, 0x00	; 0
     78e:	d0 e0       	ldi	r29, 0x00	; 0
     790:	01 50       	subi	r16, 0x01	; 1
     792:	10 40       	sbci	r17, 0x00	; 0
     794:	0e 94 56 0f 	call	0x1eac	; 0x1eac <uart_get>
     798:	8d 30       	cpi	r24, 0x0D	; 13
     79a:	a9 f0       	breq	.+42     	; 0x7c6 <get_line+0x4a>
     79c:	88 30       	cpi	r24, 0x08	; 8
     79e:	31 f4       	brne	.+12     	; 0x7ac <get_line+0x30>
     7a0:	20 97       	sbiw	r28, 0x00	; 0
     7a2:	c1 f3       	breq	.-16     	; 0x794 <get_line+0x18>
     7a4:	21 97       	sbiw	r28, 0x01	; 1
     7a6:	0e 94 71 0f 	call	0x1ee2	; 0x1ee2 <uart_put>
     7aa:	f4 cf       	rjmp	.-24     	; 0x794 <get_line+0x18>
     7ac:	80 32       	cpi	r24, 0x20	; 32
     7ae:	90 f3       	brcs	.-28     	; 0x794 <get_line+0x18>
     7b0:	c0 17       	cp	r28, r16
     7b2:	d1 07       	cpc	r29, r17
     7b4:	7c f7       	brge	.-34     	; 0x794 <get_line+0x18>
     7b6:	f7 01       	movw	r30, r14
     7b8:	ec 0f       	add	r30, r28
     7ba:	fd 1f       	adc	r31, r29
     7bc:	80 83       	st	Z, r24
     7be:	21 96       	adiw	r28, 0x01	; 1
     7c0:	0e 94 e3 0f 	call	0x1fc6	; 0x1fc6 <xputc>
     7c4:	e7 cf       	rjmp	.-50     	; 0x794 <get_line+0x18>
     7c6:	ce 0d       	add	r28, r14
     7c8:	df 1d       	adc	r29, r15
     7ca:	18 82       	st	Y, r1
     7cc:	8a e0       	ldi	r24, 0x0A	; 10
     7ce:	0e 94 71 0f 	call	0x1ee2	; 0x1ee2 <uart_put>
     7d2:	df 91       	pop	r29
     7d4:	cf 91       	pop	r28
     7d6:	1f 91       	pop	r17
     7d8:	0f 91       	pop	r16
     7da:	ff 90       	pop	r15
     7dc:	ef 90       	pop	r14
     7de:	08 95       	ret

000007e0 <main>:
     7e0:	2f 92       	push	r2
     7e2:	3f 92       	push	r3
     7e4:	4f 92       	push	r4
     7e6:	5f 92       	push	r5
     7e8:	6f 92       	push	r6
     7ea:	7f 92       	push	r7
     7ec:	8f 92       	push	r8
     7ee:	9f 92       	push	r9
     7f0:	af 92       	push	r10
     7f2:	bf 92       	push	r11
     7f4:	cf 92       	push	r12
     7f6:	df 92       	push	r13
     7f8:	ef 92       	push	r14
     7fa:	ff 92       	push	r15
     7fc:	0f 93       	push	r16
     7fe:	1f 93       	push	r17
     800:	df 93       	push	r29
     802:	cf 93       	push	r28
     804:	cd b7       	in	r28, 0x3d	; 61
     806:	de b7       	in	r29, 0x3e	; 62
     808:	c6 57       	subi	r28, 0x76	; 118
     80a:	d0 40       	sbci	r29, 0x00	; 0
     80c:	0f b6       	in	r0, 0x3f	; 63
     80e:	f8 94       	cli
     810:	de bf       	out	0x3e, r29	; 62
     812:	0f be       	out	0x3f, r0	; 63
     814:	cd bf       	out	0x3d, r28	; 61
     816:	a7 9a       	sbi	0x14, 7	; 20
     818:	af 9a       	sbi	0x15, 7	; 21
     81a:	9f ef       	ldi	r25, 0xFF	; 255
     81c:	9b bb       	out	0x1b, r25	; 27
     81e:	80 eb       	ldi	r24, 0xB0	; 176
     820:	88 bb       	out	0x18, r24	; 24
     822:	80 ec       	ldi	r24, 0xC0	; 192
     824:	87 bb       	out	0x17, r24	; 23
     826:	95 bb       	out	0x15, r25	; 21
     828:	92 bb       	out	0x12, r25	; 18
     82a:	0e 94 42 0f 	call	0x1e84	; 0x1e84 <uart_init>
     82e:	88 e0       	ldi	r24, 0x08	; 8
     830:	85 bd       	out	0x25, r24	; 37
     832:	87 e0       	ldi	r24, 0x07	; 7
     834:	85 bd       	out	0x25, r24	; 37
     836:	8c e6       	ldi	r24, 0x6C	; 108
     838:	83 bd       	out	0x23, r24	; 35
     83a:	80 e8       	ldi	r24, 0x80	; 128
     83c:	89 bf       	out	0x39, r24	; 57
     83e:	78 94       	sei
     840:	81 e7       	ldi	r24, 0x71	; 113
     842:	9f e0       	ldi	r25, 0x0F	; 15
     844:	90 93 5f 01 	sts	0x015F, r25
     848:	80 93 5e 01 	sts	0x015E, r24
     84c:	88 ec       	ldi	r24, 0xC8	; 200
     84e:	93 e0       	ldi	r25, 0x03	; 3
     850:	0e 94 f4 0f 	call	0x1fe8	; 0x1fe8 <xputs>
     854:	8b eb       	ldi	r24, 0xBB	; 187
     856:	93 e0       	ldi	r25, 0x03	; 3
     858:	0e 94 f4 0f 	call	0x1fe8	; 0x1fe8 <xputs>
     85c:	00 d0       	rcall	.+0      	; 0x85e <main+0x7e>
     85e:	00 d0       	rcall	.+0      	; 0x860 <__stack+0x1>
     860:	8a ea       	ldi	r24, 0xAA	; 170
     862:	93 e0       	ldi	r25, 0x03	; 3
     864:	ad b7       	in	r26, 0x3d	; 61
     866:	be b7       	in	r27, 0x3e	; 62
     868:	12 96       	adiw	r26, 0x02	; 2
     86a:	9c 93       	st	X, r25
     86c:	8e 93       	st	-X, r24
     86e:	11 97       	sbiw	r26, 0x01	; 1
     870:	84 ea       	ldi	r24, 0xA4	; 164
     872:	93 e0       	ldi	r25, 0x03	; 3
     874:	14 96       	adiw	r26, 0x04	; 4
     876:	9c 93       	st	X, r25
     878:	8e 93       	st	-X, r24
     87a:	13 97       	sbiw	r26, 0x03	; 3
     87c:	0e 94 36 10 	call	0x206c	; 0x206c <xprintf>
     880:	87 b3       	in	r24, 0x17	; 23
     882:	80 6b       	ori	r24, 0xB0	; 176
     884:	87 bb       	out	0x17, r24	; 23
     886:	c4 9a       	sbi	0x18, 4	; 24
     888:	8d b1       	in	r24, 0x0d	; 13
     88a:	80 65       	ori	r24, 0x50	; 80
     88c:	8d b9       	out	0x0d, r24	; 13
     88e:	22 24       	eor	r2, r2
     890:	33 24       	eor	r3, r3
     892:	21 01       	movw	r4, r2
     894:	e7 96       	adiw	r28, 0x37	; 55
     896:	1f ae       	std	Y+63, r1	; 0x3f
     898:	e7 97       	sbiw	r28, 0x37	; 55
     89a:	bd e2       	ldi	r27, 0x2D	; 45
     89c:	e6 96       	adiw	r28, 0x36	; 54
     89e:	bf af       	std	Y+63, r27	; 0x3f
     8a0:	e6 97       	sbiw	r28, 0x36	; 54
     8a2:	e1 e1       	ldi	r30, 0x11	; 17
     8a4:	e5 96       	adiw	r28, 0x35	; 53
     8a6:	ef af       	std	Y+63, r30	; 0x3f
     8a8:	e5 97       	sbiw	r28, 0x35	; 53
     8aa:	f5 e1       	ldi	r31, 0x15	; 21
     8ac:	e4 96       	adiw	r28, 0x34	; 52
     8ae:	ff af       	std	Y+63, r31	; 0x3f
     8b0:	e4 97       	sbiw	r28, 0x34	; 52
     8b2:	2a e0       	ldi	r18, 0x0A	; 10
     8b4:	e3 96       	adiw	r28, 0x33	; 51
     8b6:	2f af       	std	Y+63, r18	; 0x3f
     8b8:	e3 97       	sbiw	r28, 0x33	; 51
     8ba:	8a ed       	ldi	r24, 0xDA	; 218
     8bc:	97 e0       	ldi	r25, 0x07	; 7
     8be:	e2 96       	adiw	r28, 0x32	; 50
     8c0:	9f af       	std	Y+63, r25	; 0x3f
     8c2:	8e af       	std	Y+62, r24	; 0x3e
     8c4:	e2 97       	sbiw	r28, 0x32	; 50
     8c6:	0f 90       	pop	r0
     8c8:	0f 90       	pop	r0
     8ca:	0f 90       	pop	r0
     8cc:	0f 90       	pop	r0
     8ce:	8a eb       	ldi	r24, 0xBA	; 186
     8d0:	68 2e       	mov	r6, r24
     8d2:	84 e0       	ldi	r24, 0x04	; 4
     8d4:	78 2e       	mov	r7, r24
     8d6:	8d e0       	ldi	r24, 0x0D	; 13
     8d8:	0e 94 e3 0f 	call	0x1fc6	; 0x1fc6 <xputc>
     8dc:	8e e3       	ldi	r24, 0x3E	; 62
     8de:	0e 94 e3 0f 	call	0x1fc6	; 0x1fc6 <xputc>
     8e2:	7b 82       	std	Y+3, r7	; 0x03
     8e4:	6a 82       	std	Y+2, r6	; 0x02
     8e6:	c3 01       	movw	r24, r6
     8e8:	60 e8       	ldi	r22, 0x80	; 128
     8ea:	70 e0       	ldi	r23, 0x00	; 0
     8ec:	0e 94 be 03 	call	0x77c	; 0x77c <get_line>
     8f0:	aa 81       	ldd	r26, Y+2	; 0x02
     8f2:	bb 81       	ldd	r27, Y+3	; 0x03
     8f4:	fd 01       	movw	r30, r26
     8f6:	81 91       	ld	r24, Z+
     8f8:	fb 83       	std	Y+3, r31	; 0x03
     8fa:	ea 83       	std	Y+2, r30	; 0x02
     8fc:	84 36       	cpi	r24, 0x64	; 100
     8fe:	61 f0       	breq	.+24     	; 0x918 <__stack+0xb9>
     900:	85 36       	cpi	r24, 0x65	; 101
     902:	18 f4       	brcc	.+6      	; 0x90a <__stack+0xab>
     904:	82 36       	cpi	r24, 0x62	; 98
     906:	39 f7       	brne	.-50     	; 0x8d6 <__stack+0x77>
     908:	d1 c1       	rjmp	.+930    	; 0xcac <__stack+0x44d>
     90a:	86 36       	cpi	r24, 0x66	; 102
     90c:	09 f4       	brne	.+2      	; 0x910 <__stack+0xb1>
     90e:	27 c3       	rjmp	.+1614   	; 0xf5e <__stack+0x6ff>
     910:	84 37       	cpi	r24, 0x74	; 116
     912:	09 f7       	brne	.-62     	; 0x8d6 <__stack+0x77>
     914:	0c 94 99 0e 	jmp	0x1d32	; 0x1d32 <__stack+0x14d3>
     918:	11 96       	adiw	r26, 0x01	; 1
     91a:	8c 91       	ld	r24, X
     91c:	31 96       	adiw	r30, 0x01	; 1
     91e:	fb 83       	std	Y+3, r31	; 0x03
     920:	ea 83       	std	Y+2, r30	; 0x02
     922:	89 36       	cpi	r24, 0x69	; 105
     924:	09 f4       	brne	.+2      	; 0x928 <__stack+0xc9>
     926:	7d c0       	rjmp	.+250    	; 0xa22 <__stack+0x1c3>
     928:	83 37       	cpi	r24, 0x73	; 115
     92a:	09 f4       	brne	.+2      	; 0x92e <__stack+0xcf>
     92c:	9d c0       	rjmp	.+314    	; 0xa68 <__stack+0x209>
     92e:	84 36       	cpi	r24, 0x64	; 100
     930:	91 f6       	brne	.-92     	; 0x8d6 <__stack+0x77>
     932:	8e 01       	movw	r16, r28
     934:	0e 5f       	subi	r16, 0xFE	; 254
     936:	1f 4f       	sbci	r17, 0xFF	; 255
     938:	c8 01       	movw	r24, r16
     93a:	be 01       	movw	r22, r28
     93c:	62 5f       	subi	r22, 0xF2	; 242
     93e:	7f 4f       	sbci	r23, 0xFF	; 255
     940:	0e 94 94 10 	call	0x2128	; 0x2128 <xatoi>
     944:	88 23       	and	r24, r24
     946:	39 f2       	breq	.-114    	; 0x8d6 <__stack+0x77>
     948:	c8 01       	movw	r24, r16
     94a:	be 01       	movw	r22, r28
     94c:	6e 5e       	subi	r22, 0xEE	; 238
     94e:	7f 4f       	sbci	r23, 0xFF	; 255
     950:	0e 94 94 10 	call	0x2128	; 0x2128 <xatoi>
     954:	88 23       	and	r24, r24
     956:	21 f4       	brne	.+8      	; 0x960 <__stack+0x101>
     958:	2a 8a       	std	Y+18, r2	; 0x12
     95a:	3b 8a       	std	Y+19, r3	; 0x13
     95c:	4c 8a       	std	Y+20, r4	; 0x14
     95e:	5d 8a       	std	Y+21, r5	; 0x15
     960:	2a 89       	ldd	r18, Y+18	; 0x12
     962:	3b 89       	ldd	r19, Y+19	; 0x13
     964:	4c 89       	ldd	r20, Y+20	; 0x14
     966:	5d 89       	ldd	r21, Y+21	; 0x15
     968:	8e 85       	ldd	r24, Y+14	; 0x0e
     96a:	66 eb       	ldi	r22, 0xB6	; 182
     96c:	73 e0       	ldi	r23, 0x03	; 3
     96e:	01 e0       	ldi	r16, 0x01	; 1
     970:	0e 94 49 33 	call	0x6692	; 0x6692 <disk_read>
     974:	28 2f       	mov	r18, r24
     976:	88 23       	and	r24, r24
     978:	79 f0       	breq	.+30     	; 0x998 <__stack+0x139>
     97a:	00 d0       	rcall	.+0      	; 0x97c <__stack+0x11d>
     97c:	00 d0       	rcall	.+0      	; 0x97e <__stack+0x11f>
     97e:	ed b7       	in	r30, 0x3d	; 61
     980:	fe b7       	in	r31, 0x3e	; 62
     982:	31 96       	adiw	r30, 0x01	; 1
     984:	83 ea       	ldi	r24, 0xA3	; 163
     986:	93 e0       	ldi	r25, 0x03	; 3
     988:	ad b7       	in	r26, 0x3d	; 61
     98a:	be b7       	in	r27, 0x3e	; 62
     98c:	12 96       	adiw	r26, 0x02	; 2
     98e:	9c 93       	st	X, r25
     990:	8e 93       	st	-X, r24
     992:	11 97       	sbiw	r26, 0x01	; 1
     994:	22 83       	std	Z+2, r18	; 0x02
     996:	60 c0       	rjmp	.+192    	; 0xa58 <__stack+0x1f9>
     998:	8a 88       	ldd	r8, Y+18	; 0x12
     99a:	9b 88       	ldd	r9, Y+19	; 0x13
     99c:	ac 88       	ldd	r10, Y+20	; 0x14
     99e:	bd 88       	ldd	r11, Y+21	; 0x15
     9a0:	00 d0       	rcall	.+0      	; 0x9a2 <__stack+0x143>
     9a2:	00 d0       	rcall	.+0      	; 0x9a4 <__stack+0x145>
     9a4:	00 d0       	rcall	.+0      	; 0x9a6 <__stack+0x147>
     9a6:	87 e9       	ldi	r24, 0x97	; 151
     9a8:	93 e0       	ldi	r25, 0x03	; 3
     9aa:	ed b7       	in	r30, 0x3d	; 61
     9ac:	fe b7       	in	r31, 0x3e	; 62
     9ae:	92 83       	std	Z+2, r25	; 0x02
     9b0:	81 83       	std	Z+1, r24	; 0x01
     9b2:	ad b7       	in	r26, 0x3d	; 61
     9b4:	be b7       	in	r27, 0x3e	; 62
     9b6:	13 96       	adiw	r26, 0x03	; 3
     9b8:	8d 92       	st	X+, r8
     9ba:	9d 92       	st	X+, r9
     9bc:	ad 92       	st	X+, r10
     9be:	bc 92       	st	X, r11
     9c0:	16 97       	sbiw	r26, 0x06	; 6
     9c2:	0e 94 36 10 	call	0x206c	; 0x206c <xprintf>
     9c6:	06 eb       	ldi	r16, 0xB6	; 182
     9c8:	c0 2e       	mov	r12, r16
     9ca:	03 e0       	ldi	r16, 0x03	; 3
     9cc:	d0 2e       	mov	r13, r16
     9ce:	ee 24       	eor	r14, r14
     9d0:	ff 24       	eor	r15, r15
     9d2:	87 01       	movw	r16, r14
     9d4:	ed b7       	in	r30, 0x3d	; 61
     9d6:	fe b7       	in	r31, 0x3e	; 62
     9d8:	36 96       	adiw	r30, 0x06	; 6
     9da:	0f b6       	in	r0, 0x3f	; 63
     9dc:	f8 94       	cli
     9de:	fe bf       	out	0x3e, r31	; 62
     9e0:	0f be       	out	0x3f, r0	; 63
     9e2:	ed bf       	out	0x3d, r30	; 61
     9e4:	c6 01       	movw	r24, r12
     9e6:	b8 01       	movw	r22, r16
     9e8:	a7 01       	movw	r20, r14
     9ea:	20 e1       	ldi	r18, 0x10	; 16
     9ec:	0e 94 bf 02 	call	0x57e	; 0x57e <put_dump>
     9f0:	20 e1       	ldi	r18, 0x10	; 16
     9f2:	30 e0       	ldi	r19, 0x00	; 0
     9f4:	c2 0e       	add	r12, r18
     9f6:	d3 1e       	adc	r13, r19
     9f8:	80 e1       	ldi	r24, 0x10	; 16
     9fa:	90 e0       	ldi	r25, 0x00	; 0
     9fc:	a0 e0       	ldi	r26, 0x00	; 0
     9fe:	b0 e0       	ldi	r27, 0x00	; 0
     a00:	e8 0e       	add	r14, r24
     a02:	f9 1e       	adc	r15, r25
     a04:	0a 1f       	adc	r16, r26
     a06:	1b 1f       	adc	r17, r27
     a08:	96 eb       	ldi	r25, 0xB6	; 182
     a0a:	c9 16       	cp	r12, r25
     a0c:	95 e0       	ldi	r25, 0x05	; 5
     a0e:	d9 06       	cpc	r13, r25
     a10:	49 f7       	brne	.-46     	; 0x9e4 <__stack+0x185>
     a12:	14 01       	movw	r2, r8
     a14:	25 01       	movw	r4, r10
     a16:	08 94       	sec
     a18:	21 1c       	adc	r2, r1
     a1a:	31 1c       	adc	r3, r1
     a1c:	41 1c       	adc	r4, r1
     a1e:	51 1c       	adc	r5, r1
     a20:	5a cf       	rjmp	.-332    	; 0x8d6 <__stack+0x77>
     a22:	ce 01       	movw	r24, r28
     a24:	02 96       	adiw	r24, 0x02	; 2
     a26:	be 01       	movw	r22, r28
     a28:	62 5f       	subi	r22, 0xF2	; 242
     a2a:	7f 4f       	sbci	r23, 0xFF	; 255
     a2c:	0e 94 94 10 	call	0x2128	; 0x2128 <xatoi>
     a30:	88 23       	and	r24, r24
     a32:	09 f4       	brne	.+2      	; 0xa36 <__stack+0x1d7>
     a34:	50 cf       	rjmp	.-352    	; 0x8d6 <__stack+0x77>
     a36:	8e 85       	ldd	r24, Y+14	; 0x0e
     a38:	0e 94 82 32 	call	0x6504	; 0x6504 <disk_initialize>
     a3c:	00 d0       	rcall	.+0      	; 0xa3e <__stack+0x1df>
     a3e:	00 d0       	rcall	.+0      	; 0xa40 <__stack+0x1e1>
     a40:	ed b7       	in	r30, 0x3d	; 61
     a42:	fe b7       	in	r31, 0x3e	; 62
     a44:	31 96       	adiw	r30, 0x01	; 1
     a46:	20 e9       	ldi	r18, 0x90	; 144
     a48:	33 e0       	ldi	r19, 0x03	; 3
     a4a:	ad b7       	in	r26, 0x3d	; 61
     a4c:	be b7       	in	r27, 0x3e	; 62
     a4e:	12 96       	adiw	r26, 0x02	; 2
     a50:	3c 93       	st	X, r19
     a52:	2e 93       	st	-X, r18
     a54:	11 97       	sbiw	r26, 0x01	; 1
     a56:	82 83       	std	Z+2, r24	; 0x02
     a58:	13 82       	std	Z+3, r1	; 0x03
     a5a:	0e 94 36 10 	call	0x206c	; 0x206c <xprintf>
     a5e:	0f 90       	pop	r0
     a60:	0f 90       	pop	r0
     a62:	0f 90       	pop	r0
     a64:	0f 90       	pop	r0
     a66:	37 cf       	rjmp	.-402    	; 0x8d6 <__stack+0x77>
     a68:	ce 01       	movw	r24, r28
     a6a:	02 96       	adiw	r24, 0x02	; 2
     a6c:	be 01       	movw	r22, r28
     a6e:	62 5f       	subi	r22, 0xF2	; 242
     a70:	7f 4f       	sbci	r23, 0xFF	; 255
     a72:	0e 94 94 10 	call	0x2128	; 0x2128 <xatoi>
     a76:	88 23       	and	r24, r24
     a78:	09 f4       	brne	.+2      	; 0xa7c <__stack+0x21d>
     a7a:	2d cf       	rjmp	.-422    	; 0x8d6 <__stack+0x77>
     a7c:	8e 85       	ldd	r24, Y+14	; 0x0e
     a7e:	61 e0       	ldi	r22, 0x01	; 1
     a80:	ae 01       	movw	r20, r28
     a82:	4e 5e       	subi	r20, 0xEE	; 238
     a84:	5f 4f       	sbci	r21, 0xFF	; 255
     a86:	0e 94 11 34 	call	0x6822	; 0x6822 <disk_ioctl>
     a8a:	88 23       	and	r24, r24
     a8c:	e1 f4       	brne	.+56     	; 0xac6 <__stack+0x267>
     a8e:	00 d0       	rcall	.+0      	; 0xa90 <__stack+0x231>
     a90:	00 d0       	rcall	.+0      	; 0xa92 <__stack+0x233>
     a92:	00 d0       	rcall	.+0      	; 0xa94 <__stack+0x235>
     a94:	87 e7       	ldi	r24, 0x77	; 119
     a96:	93 e0       	ldi	r25, 0x03	; 3
     a98:	ed b7       	in	r30, 0x3d	; 61
     a9a:	fe b7       	in	r31, 0x3e	; 62
     a9c:	92 83       	std	Z+2, r25	; 0x02
     a9e:	81 83       	std	Z+1, r24	; 0x01
     aa0:	8a 89       	ldd	r24, Y+18	; 0x12
     aa2:	9b 89       	ldd	r25, Y+19	; 0x13
     aa4:	ac 89       	ldd	r26, Y+20	; 0x14
     aa6:	bd 89       	ldd	r27, Y+21	; 0x15
     aa8:	83 83       	std	Z+3, r24	; 0x03
     aaa:	94 83       	std	Z+4, r25	; 0x04
     aac:	a5 83       	std	Z+5, r26	; 0x05
     aae:	b6 83       	std	Z+6, r27	; 0x06
     ab0:	0e 94 36 10 	call	0x206c	; 0x206c <xprintf>
     ab4:	2d b7       	in	r18, 0x3d	; 61
     ab6:	3e b7       	in	r19, 0x3e	; 62
     ab8:	2a 5f       	subi	r18, 0xFA	; 250
     aba:	3f 4f       	sbci	r19, 0xFF	; 255
     abc:	0f b6       	in	r0, 0x3f	; 63
     abe:	f8 94       	cli
     ac0:	3e bf       	out	0x3e, r19	; 62
     ac2:	0f be       	out	0x3f, r0	; 63
     ac4:	2d bf       	out	0x3d, r18	; 61
     ac6:	8e 85       	ldd	r24, Y+14	; 0x0e
     ac8:	62 e0       	ldi	r22, 0x02	; 2
     aca:	ae 01       	movw	r20, r28
     acc:	4c 5f       	subi	r20, 0xFC	; 252
     ace:	5f 4f       	sbci	r21, 0xFF	; 255
     ad0:	0e 94 11 34 	call	0x6822	; 0x6822 <disk_ioctl>
     ad4:	88 23       	and	r24, r24
     ad6:	b1 f4       	brne	.+44     	; 0xb04 <__stack+0x2a5>
     ad8:	00 d0       	rcall	.+0      	; 0xada <__stack+0x27b>
     ada:	00 d0       	rcall	.+0      	; 0xadc <__stack+0x27d>
     adc:	86 e6       	ldi	r24, 0x66	; 102
     ade:	93 e0       	ldi	r25, 0x03	; 3
     ae0:	ad b7       	in	r26, 0x3d	; 61
     ae2:	be b7       	in	r27, 0x3e	; 62
     ae4:	12 96       	adiw	r26, 0x02	; 2
     ae6:	9c 93       	st	X, r25
     ae8:	8e 93       	st	-X, r24
     aea:	11 97       	sbiw	r26, 0x01	; 1
     aec:	8c 81       	ldd	r24, Y+4	; 0x04
     aee:	9d 81       	ldd	r25, Y+5	; 0x05
     af0:	14 96       	adiw	r26, 0x04	; 4
     af2:	9c 93       	st	X, r25
     af4:	8e 93       	st	-X, r24
     af6:	13 97       	sbiw	r26, 0x03	; 3
     af8:	0e 94 36 10 	call	0x206c	; 0x206c <xprintf>
     afc:	0f 90       	pop	r0
     afe:	0f 90       	pop	r0
     b00:	0f 90       	pop	r0
     b02:	0f 90       	pop	r0
     b04:	8e 85       	ldd	r24, Y+14	; 0x0e
     b06:	63 e0       	ldi	r22, 0x03	; 3
     b08:	ae 01       	movw	r20, r28
     b0a:	4e 5e       	subi	r20, 0xEE	; 238
     b0c:	5f 4f       	sbci	r21, 0xFF	; 255
     b0e:	0e 94 11 34 	call	0x6822	; 0x6822 <disk_ioctl>
     b12:	88 23       	and	r24, r24
     b14:	e1 f4       	brne	.+56     	; 0xb4e <__stack+0x2ef>
     b16:	00 d0       	rcall	.+0      	; 0xb18 <__stack+0x2b9>
     b18:	00 d0       	rcall	.+0      	; 0xb1a <__stack+0x2bb>
     b1a:	00 d0       	rcall	.+0      	; 0xb1c <__stack+0x2bd>
     b1c:	8c e4       	ldi	r24, 0x4C	; 76
     b1e:	93 e0       	ldi	r25, 0x03	; 3
     b20:	ed b7       	in	r30, 0x3d	; 61
     b22:	fe b7       	in	r31, 0x3e	; 62
     b24:	92 83       	std	Z+2, r25	; 0x02
     b26:	81 83       	std	Z+1, r24	; 0x01
     b28:	8a 89       	ldd	r24, Y+18	; 0x12
     b2a:	9b 89       	ldd	r25, Y+19	; 0x13
     b2c:	ac 89       	ldd	r26, Y+20	; 0x14
     b2e:	bd 89       	ldd	r27, Y+21	; 0x15
     b30:	83 83       	std	Z+3, r24	; 0x03
     b32:	94 83       	std	Z+4, r25	; 0x04
     b34:	a5 83       	std	Z+5, r26	; 0x05
     b36:	b6 83       	std	Z+6, r27	; 0x06
     b38:	0e 94 36 10 	call	0x206c	; 0x206c <xprintf>
     b3c:	2d b7       	in	r18, 0x3d	; 61
     b3e:	3e b7       	in	r19, 0x3e	; 62
     b40:	2a 5f       	subi	r18, 0xFA	; 250
     b42:	3f 4f       	sbci	r19, 0xFF	; 255
     b44:	0f b6       	in	r0, 0x3f	; 63
     b46:	f8 94       	cli
     b48:	3e bf       	out	0x3e, r19	; 62
     b4a:	0f be       	out	0x3f, r0	; 63
     b4c:	2d bf       	out	0x3d, r18	; 61
     b4e:	8e 85       	ldd	r24, Y+14	; 0x0e
     b50:	6a e0       	ldi	r22, 0x0A	; 10
     b52:	ae 01       	movw	r20, r28
     b54:	4f 5f       	subi	r20, 0xFF	; 255
     b56:	5f 4f       	sbci	r21, 0xFF	; 255
     b58:	0e 94 11 34 	call	0x6822	; 0x6822 <disk_ioctl>
     b5c:	88 23       	and	r24, r24
     b5e:	b1 f4       	brne	.+44     	; 0xb8c <__stack+0x32d>
     b60:	00 d0       	rcall	.+0      	; 0xb62 <__stack+0x303>
     b62:	00 d0       	rcall	.+0      	; 0xb64 <__stack+0x305>
     b64:	ed b7       	in	r30, 0x3d	; 61
     b66:	fe b7       	in	r31, 0x3e	; 62
     b68:	31 96       	adiw	r30, 0x01	; 1
     b6a:	8d e3       	ldi	r24, 0x3D	; 61
     b6c:	93 e0       	ldi	r25, 0x03	; 3
     b6e:	ad b7       	in	r26, 0x3d	; 61
     b70:	be b7       	in	r27, 0x3e	; 62
     b72:	12 96       	adiw	r26, 0x02	; 2
     b74:	9c 93       	st	X, r25
     b76:	8e 93       	st	-X, r24
     b78:	11 97       	sbiw	r26, 0x01	; 1
     b7a:	89 81       	ldd	r24, Y+1	; 0x01
     b7c:	82 83       	std	Z+2, r24	; 0x02
     b7e:	13 82       	std	Z+3, r1	; 0x03
     b80:	0e 94 36 10 	call	0x206c	; 0x206c <xprintf>
     b84:	0f 90       	pop	r0
     b86:	0f 90       	pop	r0
     b88:	0f 90       	pop	r0
     b8a:	0f 90       	pop	r0
     b8c:	8e 85       	ldd	r24, Y+14	; 0x0e
     b8e:	6b e0       	ldi	r22, 0x0B	; 11
     b90:	46 eb       	ldi	r20, 0xB6	; 182
     b92:	53 e0       	ldi	r21, 0x03	; 3
     b94:	0e 94 11 34 	call	0x6822	; 0x6822 <disk_ioctl>
     b98:	88 23       	and	r24, r24
     b9a:	69 f4       	brne	.+26     	; 0xbb6 <__stack+0x357>
     b9c:	87 e3       	ldi	r24, 0x37	; 55
     b9e:	93 e0       	ldi	r25, 0x03	; 3
     ba0:	0e 94 f4 0f 	call	0x1fe8	; 0x1fe8 <xputs>
     ba4:	86 eb       	ldi	r24, 0xB6	; 182
     ba6:	93 e0       	ldi	r25, 0x03	; 3
     ba8:	40 e0       	ldi	r20, 0x00	; 0
     baa:	50 e0       	ldi	r21, 0x00	; 0
     bac:	60 e0       	ldi	r22, 0x00	; 0
     bae:	70 e0       	ldi	r23, 0x00	; 0
     bb0:	20 e1       	ldi	r18, 0x10	; 16
     bb2:	0e 94 bf 02 	call	0x57e	; 0x57e <put_dump>
     bb6:	8e 85       	ldd	r24, Y+14	; 0x0e
     bb8:	6c e0       	ldi	r22, 0x0C	; 12
     bba:	46 eb       	ldi	r20, 0xB6	; 182
     bbc:	53 e0       	ldi	r21, 0x03	; 3
     bbe:	0e 94 11 34 	call	0x6822	; 0x6822 <disk_ioctl>
     bc2:	88 23       	and	r24, r24
     bc4:	69 f4       	brne	.+26     	; 0xbe0 <__stack+0x381>
     bc6:	81 e3       	ldi	r24, 0x31	; 49
     bc8:	93 e0       	ldi	r25, 0x03	; 3
     bca:	0e 94 f4 0f 	call	0x1fe8	; 0x1fe8 <xputs>
     bce:	86 eb       	ldi	r24, 0xB6	; 182
     bd0:	93 e0       	ldi	r25, 0x03	; 3
     bd2:	40 e0       	ldi	r20, 0x00	; 0
     bd4:	50 e0       	ldi	r21, 0x00	; 0
     bd6:	60 e0       	ldi	r22, 0x00	; 0
     bd8:	70 e0       	ldi	r23, 0x00	; 0
     bda:	20 e1       	ldi	r18, 0x10	; 16
     bdc:	0e 94 bf 02 	call	0x57e	; 0x57e <put_dump>
     be0:	8e 85       	ldd	r24, Y+14	; 0x0e
     be2:	6d e0       	ldi	r22, 0x0D	; 13
     be4:	46 eb       	ldi	r20, 0xB6	; 182
     be6:	53 e0       	ldi	r21, 0x03	; 3
     be8:	0e 94 11 34 	call	0x6822	; 0x6822 <disk_ioctl>
     bec:	88 23       	and	r24, r24
     bee:	69 f4       	brne	.+26     	; 0xc0a <__stack+0x3ab>
     bf0:	8b e2       	ldi	r24, 0x2B	; 43
     bf2:	93 e0       	ldi	r25, 0x03	; 3
     bf4:	0e 94 f4 0f 	call	0x1fe8	; 0x1fe8 <xputs>
     bf8:	86 eb       	ldi	r24, 0xB6	; 182
     bfa:	93 e0       	ldi	r25, 0x03	; 3
     bfc:	40 e0       	ldi	r20, 0x00	; 0
     bfe:	50 e0       	ldi	r21, 0x00	; 0
     c00:	60 e0       	ldi	r22, 0x00	; 0
     c02:	70 e0       	ldi	r23, 0x00	; 0
     c04:	24 e0       	ldi	r18, 0x04	; 4
     c06:	0e 94 bf 02 	call	0x57e	; 0x57e <put_dump>
     c0a:	8e 85       	ldd	r24, Y+14	; 0x0e
     c0c:	6e e0       	ldi	r22, 0x0E	; 14
     c0e:	46 eb       	ldi	r20, 0xB6	; 182
     c10:	53 e0       	ldi	r21, 0x03	; 3
     c12:	0e 94 11 34 	call	0x6822	; 0x6822 <disk_ioctl>
     c16:	88 23       	and	r24, r24
     c18:	c9 f4       	brne	.+50     	; 0xc4c <__stack+0x3ed>
     c1a:	8f e1       	ldi	r24, 0x1F	; 31
     c1c:	93 e0       	ldi	r25, 0x03	; 3
     c1e:	0e 94 f4 0f 	call	0x1fe8	; 0x1fe8 <xputs>
     c22:	1f 82       	std	Y+7, r1	; 0x07
     c24:	1e 82       	std	Y+6, r1	; 0x06
     c26:	0d c0       	rjmp	.+26     	; 0xc42 <__stack+0x3e3>
     c28:	ac 01       	movw	r20, r24
     c2a:	60 e0       	ldi	r22, 0x00	; 0
     c2c:	70 e0       	ldi	r23, 0x00	; 0
     c2e:	8a 54       	subi	r24, 0x4A	; 74
     c30:	9c 4f       	sbci	r25, 0xFC	; 252
     c32:	20 e1       	ldi	r18, 0x10	; 16
     c34:	0e 94 bf 02 	call	0x57e	; 0x57e <put_dump>
     c38:	8e 81       	ldd	r24, Y+6	; 0x06
     c3a:	9f 81       	ldd	r25, Y+7	; 0x07
     c3c:	40 96       	adiw	r24, 0x10	; 16
     c3e:	9f 83       	std	Y+7, r25	; 0x07
     c40:	8e 83       	std	Y+6, r24	; 0x06
     c42:	8e 81       	ldd	r24, Y+6	; 0x06
     c44:	9f 81       	ldd	r25, Y+7	; 0x07
     c46:	80 34       	cpi	r24, 0x40	; 64
     c48:	91 05       	cpc	r25, r1
     c4a:	70 f3       	brcs	.-36     	; 0xc28 <__stack+0x3c9>
     c4c:	8e 85       	ldd	r24, Y+14	; 0x0e
     c4e:	65 e1       	ldi	r22, 0x15	; 21
     c50:	4a eb       	ldi	r20, 0xBA	; 186
     c52:	54 e0       	ldi	r21, 0x04	; 4
     c54:	0e 94 11 34 	call	0x6822	; 0x6822 <disk_ioctl>
     c58:	88 23       	and	r24, r24
     c5a:	91 f4       	brne	.+36     	; 0xc80 <__stack+0x421>
     c5c:	10 92 e2 04 	sts	0x04E2, r1
     c60:	00 d0       	rcall	.+0      	; 0xc62 <__stack+0x403>
     c62:	00 d0       	rcall	.+0      	; 0xc64 <__stack+0x405>
     c64:	84 e1       	ldi	r24, 0x14	; 20
     c66:	93 e0       	ldi	r25, 0x03	; 3
     c68:	ed b7       	in	r30, 0x3d	; 61
     c6a:	fe b7       	in	r31, 0x3e	; 62
     c6c:	92 83       	std	Z+2, r25	; 0x02
     c6e:	81 83       	std	Z+1, r24	; 0x01
     c70:	74 82       	std	Z+4, r7	; 0x04
     c72:	63 82       	std	Z+3, r6	; 0x03
     c74:	0e 94 36 10 	call	0x206c	; 0x206c <xprintf>
     c78:	0f 90       	pop	r0
     c7a:	0f 90       	pop	r0
     c7c:	0f 90       	pop	r0
     c7e:	0f 90       	pop	r0
     c80:	8e 85       	ldd	r24, Y+14	; 0x0e
     c82:	66 e1       	ldi	r22, 0x16	; 22
     c84:	4a eb       	ldi	r20, 0xBA	; 186
     c86:	54 e0       	ldi	r21, 0x04	; 4
     c88:	0e 94 11 34 	call	0x6822	; 0x6822 <disk_ioctl>
     c8c:	88 23       	and	r24, r24
     c8e:	09 f0       	breq	.+2      	; 0xc92 <__stack+0x433>
     c90:	22 ce       	rjmp	.-956    	; 0x8d6 <__stack+0x77>
     c92:	10 92 ce 04 	sts	0x04CE, r1
     c96:	00 d0       	rcall	.+0      	; 0xc98 <__stack+0x439>
     c98:	00 d0       	rcall	.+0      	; 0xc9a <__stack+0x43b>
     c9a:	8b e0       	ldi	r24, 0x0B	; 11
     c9c:	93 e0       	ldi	r25, 0x03	; 3
     c9e:	ad b7       	in	r26, 0x3d	; 61
     ca0:	be b7       	in	r27, 0x3e	; 62
     ca2:	12 96       	adiw	r26, 0x02	; 2
     ca4:	9c 93       	st	X, r25
     ca6:	8e 93       	st	-X, r24
     ca8:	11 97       	sbiw	r26, 0x01	; 1
     caa:	ef c7       	rjmp	.+4062   	; 0x1c8a <__stack+0x142b>
     cac:	11 96       	adiw	r26, 0x01	; 1
     cae:	8c 91       	ld	r24, X
     cb0:	31 96       	adiw	r30, 0x01	; 1
     cb2:	fb 83       	std	Y+3, r31	; 0x03
     cb4:	ea 83       	std	Y+2, r30	; 0x02
     cb6:	86 36       	cpi	r24, 0x66	; 102
     cb8:	09 f4       	brne	.+2      	; 0xcbc <__stack+0x45d>
     cba:	3e c1       	rjmp	.+636    	; 0xf38 <__stack+0x6d9>
     cbc:	87 36       	cpi	r24, 0x67	; 103
     cbe:	30 f4       	brcc	.+12     	; 0xccc <__stack+0x46d>
     cc0:	84 36       	cpi	r24, 0x64	; 100
     cc2:	59 f0       	breq	.+22     	; 0xcda <__stack+0x47b>
     cc4:	85 36       	cpi	r24, 0x65	; 101
     cc6:	09 f0       	breq	.+2      	; 0xcca <__stack+0x46b>
     cc8:	06 ce       	rjmp	.-1012   	; 0x8d6 <__stack+0x77>
     cca:	3f c0       	rjmp	.+126    	; 0xd4a <__stack+0x4eb>
     ccc:	82 37       	cpi	r24, 0x72	; 114
     cce:	09 f4       	brne	.+2      	; 0xcd2 <__stack+0x473>
     cd0:	c5 c0       	rjmp	.+394    	; 0xe5c <__stack+0x5fd>
     cd2:	87 37       	cpi	r24, 0x77	; 119
     cd4:	09 f0       	breq	.+2      	; 0xcd8 <__stack+0x479>
     cd6:	ff cd       	rjmp	.-1026   	; 0x8d6 <__stack+0x77>
     cd8:	f8 c0       	rjmp	.+496    	; 0xeca <__stack+0x66b>
     cda:	ce 01       	movw	r24, r28
     cdc:	02 96       	adiw	r24, 0x02	; 2
     cde:	be 01       	movw	r22, r28
     ce0:	62 5f       	subi	r22, 0xF2	; 242
     ce2:	7f 4f       	sbci	r23, 0xFF	; 255
     ce4:	0e 94 94 10 	call	0x2128	; 0x2128 <xatoi>
     ce8:	88 23       	and	r24, r24
     cea:	09 f4       	brne	.+2      	; 0xcee <__stack+0x48f>
     cec:	f4 cd       	rjmp	.-1048   	; 0x8d6 <__stack+0x77>
     cee:	8e 85       	ldd	r24, Y+14	; 0x0e
     cf0:	9f 85       	ldd	r25, Y+15	; 0x0f
     cf2:	a8 89       	ldd	r26, Y+16	; 0x10
     cf4:	b9 89       	ldd	r27, Y+17	; 0x11
     cf6:	16 eb       	ldi	r17, 0xB6	; 182
     cf8:	c1 2e       	mov	r12, r17
     cfa:	13 e0       	ldi	r17, 0x03	; 3
     cfc:	d1 2e       	mov	r13, r17
     cfe:	c8 0e       	add	r12, r24
     d00:	d9 1e       	adc	r13, r25
     d02:	7c 01       	movw	r14, r24
     d04:	8d 01       	movw	r16, r26
     d06:	80 e2       	ldi	r24, 0x20	; 32
     d08:	90 e0       	ldi	r25, 0x00	; 0
     d0a:	9b 87       	std	Y+11, r25	; 0x0b
     d0c:	8a 87       	std	Y+10, r24	; 0x0a
     d0e:	18 c0       	rjmp	.+48     	; 0xd40 <__stack+0x4e1>
     d10:	c6 01       	movw	r24, r12
     d12:	b8 01       	movw	r22, r16
     d14:	a7 01       	movw	r20, r14
     d16:	20 e1       	ldi	r18, 0x10	; 16
     d18:	0e 94 bf 02 	call	0x57e	; 0x57e <put_dump>
     d1c:	8a 85       	ldd	r24, Y+10	; 0x0a
     d1e:	9b 85       	ldd	r25, Y+11	; 0x0b
     d20:	01 97       	sbiw	r24, 0x01	; 1
     d22:	9b 87       	std	Y+11, r25	; 0x0b
     d24:	8a 87       	std	Y+10, r24	; 0x0a
     d26:	8a 81       	ldd	r24, Y+2	; 0x02
     d28:	9b 81       	ldd	r25, Y+3	; 0x03
     d2a:	40 96       	adiw	r24, 0x10	; 16
     d2c:	9b 83       	std	Y+3, r25	; 0x03
     d2e:	8a 83       	std	Y+2, r24	; 0x02
     d30:	80 e1       	ldi	r24, 0x10	; 16
     d32:	90 e0       	ldi	r25, 0x00	; 0
     d34:	a0 e0       	ldi	r26, 0x00	; 0
     d36:	b0 e0       	ldi	r27, 0x00	; 0
     d38:	e8 0e       	add	r14, r24
     d3a:	f9 1e       	adc	r15, r25
     d3c:	0a 1f       	adc	r16, r26
     d3e:	1b 1f       	adc	r17, r27
     d40:	8a 85       	ldd	r24, Y+10	; 0x0a
     d42:	9b 85       	ldd	r25, Y+11	; 0x0b
     d44:	89 2b       	or	r24, r25
     d46:	21 f7       	brne	.-56     	; 0xd10 <__stack+0x4b1>
     d48:	c6 cd       	rjmp	.-1140   	; 0x8d6 <__stack+0x77>
     d4a:	8e 01       	movw	r16, r28
     d4c:	0e 5f       	subi	r16, 0xFE	; 254
     d4e:	1f 4f       	sbci	r17, 0xFF	; 255
     d50:	c8 01       	movw	r24, r16
     d52:	be 01       	movw	r22, r28
     d54:	62 5f       	subi	r22, 0xF2	; 242
     d56:	7f 4f       	sbci	r23, 0xFF	; 255
     d58:	0e 94 94 10 	call	0x2128	; 0x2128 <xatoi>
     d5c:	88 23       	and	r24, r24
     d5e:	09 f4       	brne	.+2      	; 0xd62 <__stack+0x503>
     d60:	ba cd       	rjmp	.-1164   	; 0x8d6 <__stack+0x77>
     d62:	b2 e1       	ldi	r27, 0x12	; 18
     d64:	eb 2e       	mov	r14, r27
     d66:	f1 2c       	mov	r15, r1
     d68:	ec 0e       	add	r14, r28
     d6a:	fd 1e       	adc	r15, r29
     d6c:	c8 01       	movw	r24, r16
     d6e:	b7 01       	movw	r22, r14
     d70:	0e 94 94 10 	call	0x2128	; 0x2128 <xatoi>
     d74:	88 23       	and	r24, r24
     d76:	c9 f0       	breq	.+50     	; 0xdaa <__stack+0x54b>
     d78:	68 01       	movw	r12, r16
     d7a:	87 01       	movw	r16, r14
     d7c:	8e 85       	ldd	r24, Y+14	; 0x0e
     d7e:	9f 85       	ldd	r25, Y+15	; 0x0f
     d80:	a8 89       	ldd	r26, Y+16	; 0x10
     d82:	b9 89       	ldd	r27, Y+17	; 0x11
     d84:	fc 01       	movw	r30, r24
     d86:	ea 54       	subi	r30, 0x4A	; 74
     d88:	fc 4f       	sbci	r31, 0xFC	; 252
     d8a:	2a 89       	ldd	r18, Y+18	; 0x12
     d8c:	20 83       	st	Z, r18
     d8e:	01 96       	adiw	r24, 0x01	; 1
     d90:	a1 1d       	adc	r26, r1
     d92:	b1 1d       	adc	r27, r1
     d94:	8e 87       	std	Y+14, r24	; 0x0e
     d96:	9f 87       	std	Y+15, r25	; 0x0f
     d98:	a8 8b       	std	Y+16, r26	; 0x10
     d9a:	b9 8b       	std	Y+17, r27	; 0x11
     d9c:	c6 01       	movw	r24, r12
     d9e:	b8 01       	movw	r22, r16
     da0:	0e 94 94 10 	call	0x2128	; 0x2128 <xatoi>
     da4:	88 23       	and	r24, r24
     da6:	51 f7       	brne	.-44     	; 0xd7c <__stack+0x51d>
     da8:	96 cd       	rjmp	.-1236   	; 0x8d6 <__stack+0x77>
     daa:	68 01       	movw	r12, r16
     dac:	87 01       	movw	r16, r14
     dae:	2e 85       	ldd	r18, Y+14	; 0x0e
     db0:	3f 85       	ldd	r19, Y+15	; 0x0f
     db2:	48 89       	ldd	r20, Y+16	; 0x10
     db4:	59 89       	ldd	r21, Y+17	; 0x11
     db6:	00 d0       	rcall	.+0      	; 0xdb8 <__stack+0x559>
     db8:	00 d0       	rcall	.+0      	; 0xdba <__stack+0x55b>
     dba:	00 d0       	rcall	.+0      	; 0xdbc <__stack+0x55d>
     dbc:	ed b7       	in	r30, 0x3d	; 61
     dbe:	fe b7       	in	r31, 0x3e	; 62
     dc0:	31 96       	adiw	r30, 0x01	; 1
     dc2:	a0 e0       	ldi	r26, 0x00	; 0
     dc4:	aa 2e       	mov	r10, r26
     dc6:	a3 e0       	ldi	r26, 0x03	; 3
     dc8:	ba 2e       	mov	r11, r26
     dca:	ad b7       	in	r26, 0x3d	; 61
     dcc:	be b7       	in	r27, 0x3e	; 62
     dce:	12 96       	adiw	r26, 0x02	; 2
     dd0:	bc 92       	st	X, r11
     dd2:	ae 92       	st	-X, r10
     dd4:	11 97       	sbiw	r26, 0x01	; 1
     dd6:	33 83       	std	Z+3, r19	; 0x03
     dd8:	22 83       	std	Z+2, r18	; 0x02
     dda:	c9 01       	movw	r24, r18
     ddc:	8a 54       	subi	r24, 0x4A	; 74
     dde:	9c 4f       	sbci	r25, 0xFC	; 252
     de0:	dc 01       	movw	r26, r24
     de2:	8c 91       	ld	r24, X
     de4:	84 83       	std	Z+4, r24	; 0x04
     de6:	15 82       	std	Z+5, r1	; 0x05
     de8:	0e 94 36 10 	call	0x206c	; 0x206c <xprintf>
     dec:	ed b7       	in	r30, 0x3d	; 61
     dee:	fe b7       	in	r31, 0x3e	; 62
     df0:	36 96       	adiw	r30, 0x06	; 6
     df2:	0f b6       	in	r0, 0x3f	; 63
     df4:	f8 94       	cli
     df6:	fe bf       	out	0x3e, r31	; 62
     df8:	0f be       	out	0x3f, r0	; 63
     dfa:	ed bf       	out	0x3d, r30	; 61
     dfc:	8a eb       	ldi	r24, 0xBA	; 186
     dfe:	94 e0       	ldi	r25, 0x04	; 4
     e00:	60 e8       	ldi	r22, 0x80	; 128
     e02:	70 e0       	ldi	r23, 0x00	; 0
     e04:	0e 94 be 03 	call	0x77c	; 0x77c <get_line>
     e08:	7b 82       	std	Y+3, r7	; 0x03
     e0a:	6a 82       	std	Y+2, r6	; 0x02
     e0c:	80 91 ba 04 	lds	r24, 0x04BA
     e10:	8e 32       	cpi	r24, 0x2E	; 46
     e12:	09 f4       	brne	.+2      	; 0xe16 <__stack+0x5b7>
     e14:	60 cd       	rjmp	.-1344   	; 0x8d6 <__stack+0x77>
     e16:	80 32       	cpi	r24, 0x20	; 32
     e18:	28 f4       	brcc	.+10     	; 0xe24 <__stack+0x5c5>
     e1a:	8e 85       	ldd	r24, Y+14	; 0x0e
     e1c:	9f 85       	ldd	r25, Y+15	; 0x0f
     e1e:	a8 89       	ldd	r26, Y+16	; 0x10
     e20:	b9 89       	ldd	r27, Y+17	; 0x11
     e22:	0f c0       	rjmp	.+30     	; 0xe42 <__stack+0x5e3>
     e24:	c6 01       	movw	r24, r12
     e26:	b8 01       	movw	r22, r16
     e28:	0e 94 94 10 	call	0x2128	; 0x2128 <xatoi>
     e2c:	88 23       	and	r24, r24
     e2e:	89 f0       	breq	.+34     	; 0xe52 <__stack+0x5f3>
     e30:	8e 85       	ldd	r24, Y+14	; 0x0e
     e32:	9f 85       	ldd	r25, Y+15	; 0x0f
     e34:	a8 89       	ldd	r26, Y+16	; 0x10
     e36:	b9 89       	ldd	r27, Y+17	; 0x11
     e38:	fc 01       	movw	r30, r24
     e3a:	ea 54       	subi	r30, 0x4A	; 74
     e3c:	fc 4f       	sbci	r31, 0xFC	; 252
     e3e:	2a 89       	ldd	r18, Y+18	; 0x12
     e40:	20 83       	st	Z, r18
     e42:	01 96       	adiw	r24, 0x01	; 1
     e44:	a1 1d       	adc	r26, r1
     e46:	b1 1d       	adc	r27, r1
     e48:	8e 87       	std	Y+14, r24	; 0x0e
     e4a:	9f 87       	std	Y+15, r25	; 0x0f
     e4c:	a8 8b       	std	Y+16, r26	; 0x10
     e4e:	b9 8b       	std	Y+17, r27	; 0x11
     e50:	ae cf       	rjmp	.-164    	; 0xdae <__stack+0x54f>
     e52:	8b ef       	ldi	r24, 0xFB	; 251
     e54:	92 e0       	ldi	r25, 0x02	; 2
     e56:	0e 94 f4 0f 	call	0x1fe8	; 0x1fe8 <xputs>
     e5a:	a9 cf       	rjmp	.-174    	; 0xdae <__stack+0x54f>
     e5c:	8e 01       	movw	r16, r28
     e5e:	0e 5f       	subi	r16, 0xFE	; 254
     e60:	1f 4f       	sbci	r17, 0xFF	; 255
     e62:	c8 01       	movw	r24, r16
     e64:	be 01       	movw	r22, r28
     e66:	62 5f       	subi	r22, 0xF2	; 242
     e68:	7f 4f       	sbci	r23, 0xFF	; 255
     e6a:	0e 94 94 10 	call	0x2128	; 0x2128 <xatoi>
     e6e:	88 23       	and	r24, r24
     e70:	09 f4       	brne	.+2      	; 0xe74 <__stack+0x615>
     e72:	31 cd       	rjmp	.-1438   	; 0x8d6 <__stack+0x77>
     e74:	c8 01       	movw	r24, r16
     e76:	be 01       	movw	r22, r28
     e78:	6e 5e       	subi	r22, 0xEE	; 238
     e7a:	7f 4f       	sbci	r23, 0xFF	; 255
     e7c:	0e 94 94 10 	call	0x2128	; 0x2128 <xatoi>
     e80:	88 23       	and	r24, r24
     e82:	09 f4       	brne	.+2      	; 0xe86 <__stack+0x627>
     e84:	28 cd       	rjmp	.-1456   	; 0x8d6 <__stack+0x77>
     e86:	c8 01       	movw	r24, r16
     e88:	be 01       	movw	r22, r28
     e8a:	6a 5e       	subi	r22, 0xEA	; 234
     e8c:	7f 4f       	sbci	r23, 0xFF	; 255
     e8e:	0e 94 94 10 	call	0x2128	; 0x2128 <xatoi>
     e92:	88 23       	and	r24, r24
     e94:	41 f4       	brne	.+16     	; 0xea6 <__stack+0x647>
     e96:	81 e0       	ldi	r24, 0x01	; 1
     e98:	90 e0       	ldi	r25, 0x00	; 0
     e9a:	a0 e0       	ldi	r26, 0x00	; 0
     e9c:	b0 e0       	ldi	r27, 0x00	; 0
     e9e:	8e 8b       	std	Y+22, r24	; 0x16
     ea0:	9f 8b       	std	Y+23, r25	; 0x17
     ea2:	a8 8f       	std	Y+24, r26	; 0x18
     ea4:	b9 8f       	std	Y+25, r27	; 0x19
     ea6:	2a 89       	ldd	r18, Y+18	; 0x12
     ea8:	3b 89       	ldd	r19, Y+19	; 0x13
     eaa:	4c 89       	ldd	r20, Y+20	; 0x14
     eac:	5d 89       	ldd	r21, Y+21	; 0x15
     eae:	8e 85       	ldd	r24, Y+14	; 0x0e
     eb0:	66 eb       	ldi	r22, 0xB6	; 182
     eb2:	73 e0       	ldi	r23, 0x03	; 3
     eb4:	0e 89       	ldd	r16, Y+22	; 0x16
     eb6:	0e 94 49 33 	call	0x6692	; 0x6692 <disk_read>
     eba:	00 d0       	rcall	.+0      	; 0xebc <__stack+0x65d>
     ebc:	00 d0       	rcall	.+0      	; 0xebe <__stack+0x65f>
     ebe:	ed b7       	in	r30, 0x3d	; 61
     ec0:	fe b7       	in	r31, 0x3e	; 62
     ec2:	31 96       	adiw	r30, 0x01	; 1
     ec4:	24 ef       	ldi	r18, 0xF4	; 244
     ec6:	32 e0       	ldi	r19, 0x02	; 2
     ec8:	c0 cd       	rjmp	.-1152   	; 0xa4a <__stack+0x1eb>
     eca:	8e 01       	movw	r16, r28
     ecc:	0e 5f       	subi	r16, 0xFE	; 254
     ece:	1f 4f       	sbci	r17, 0xFF	; 255
     ed0:	c8 01       	movw	r24, r16
     ed2:	be 01       	movw	r22, r28
     ed4:	62 5f       	subi	r22, 0xF2	; 242
     ed6:	7f 4f       	sbci	r23, 0xFF	; 255
     ed8:	0e 94 94 10 	call	0x2128	; 0x2128 <xatoi>
     edc:	88 23       	and	r24, r24
     ede:	09 f4       	brne	.+2      	; 0xee2 <__stack+0x683>
     ee0:	fa cc       	rjmp	.-1548   	; 0x8d6 <__stack+0x77>
     ee2:	c8 01       	movw	r24, r16
     ee4:	be 01       	movw	r22, r28
     ee6:	6e 5e       	subi	r22, 0xEE	; 238
     ee8:	7f 4f       	sbci	r23, 0xFF	; 255
     eea:	0e 94 94 10 	call	0x2128	; 0x2128 <xatoi>
     eee:	88 23       	and	r24, r24
     ef0:	09 f4       	brne	.+2      	; 0xef4 <__stack+0x695>
     ef2:	f1 cc       	rjmp	.-1566   	; 0x8d6 <__stack+0x77>
     ef4:	c8 01       	movw	r24, r16
     ef6:	be 01       	movw	r22, r28
     ef8:	6a 5e       	subi	r22, 0xEA	; 234
     efa:	7f 4f       	sbci	r23, 0xFF	; 255
     efc:	0e 94 94 10 	call	0x2128	; 0x2128 <xatoi>
     f00:	88 23       	and	r24, r24
     f02:	41 f4       	brne	.+16     	; 0xf14 <__stack+0x6b5>
     f04:	81 e0       	ldi	r24, 0x01	; 1
     f06:	90 e0       	ldi	r25, 0x00	; 0
     f08:	a0 e0       	ldi	r26, 0x00	; 0
     f0a:	b0 e0       	ldi	r27, 0x00	; 0
     f0c:	8e 8b       	std	Y+22, r24	; 0x16
     f0e:	9f 8b       	std	Y+23, r25	; 0x17
     f10:	a8 8f       	std	Y+24, r26	; 0x18
     f12:	b9 8f       	std	Y+25, r27	; 0x19
     f14:	2a 89       	ldd	r18, Y+18	; 0x12
     f16:	3b 89       	ldd	r19, Y+19	; 0x13
     f18:	4c 89       	ldd	r20, Y+20	; 0x14
     f1a:	5d 89       	ldd	r21, Y+21	; 0x15
     f1c:	8e 85       	ldd	r24, Y+14	; 0x0e
     f1e:	66 eb       	ldi	r22, 0xB6	; 182
     f20:	73 e0       	ldi	r23, 0x03	; 3
     f22:	0e 89       	ldd	r16, Y+22	; 0x16
     f24:	0e 94 a1 33 	call	0x6742	; 0x6742 <disk_write>
     f28:	00 d0       	rcall	.+0      	; 0xf2a <__stack+0x6cb>
     f2a:	00 d0       	rcall	.+0      	; 0xf2c <__stack+0x6cd>
     f2c:	ed b7       	in	r30, 0x3d	; 61
     f2e:	fe b7       	in	r31, 0x3e	; 62
     f30:	31 96       	adiw	r30, 0x01	; 1
     f32:	2d ee       	ldi	r18, 0xED	; 237
     f34:	32 e0       	ldi	r19, 0x02	; 2
     f36:	89 cd       	rjmp	.-1262   	; 0xa4a <__stack+0x1eb>
     f38:	ce 01       	movw	r24, r28
     f3a:	02 96       	adiw	r24, 0x02	; 2
     f3c:	be 01       	movw	r22, r28
     f3e:	62 5f       	subi	r22, 0xF2	; 242
     f40:	7f 4f       	sbci	r23, 0xFF	; 255
     f42:	0e 94 94 10 	call	0x2128	; 0x2128 <xatoi>
     f46:	88 23       	and	r24, r24
     f48:	09 f4       	brne	.+2      	; 0xf4c <__stack+0x6ed>
     f4a:	c5 cc       	rjmp	.-1654   	; 0x8d6 <__stack+0x77>
     f4c:	6e 85       	ldd	r22, Y+14	; 0x0e
     f4e:	86 eb       	ldi	r24, 0xB6	; 182
     f50:	93 e0       	ldi	r25, 0x03	; 3
     f52:	70 e0       	ldi	r23, 0x00	; 0
     f54:	40 e0       	ldi	r20, 0x00	; 0
     f56:	51 e0       	ldi	r21, 0x01	; 1
     f58:	0e 94 2b 36 	call	0x6c56	; 0x6c56 <memset>
     f5c:	bc cc       	rjmp	.-1672   	; 0x8d6 <__stack+0x77>
     f5e:	11 96       	adiw	r26, 0x01	; 1
     f60:	8c 91       	ld	r24, X
     f62:	31 96       	adiw	r30, 0x01	; 1
     f64:	fb 83       	std	Y+3, r31	; 0x03
     f66:	ea 83       	std	Y+2, r30	; 0x02
     f68:	90 e0       	ldi	r25, 0x00	; 0
     f6a:	fc 01       	movw	r30, r24
     f6c:	e1 56       	subi	r30, 0x61	; 97
     f6e:	f0 40       	sbci	r31, 0x00	; 0
     f70:	e8 31       	cpi	r30, 0x18	; 24
     f72:	f1 05       	cpc	r31, r1
     f74:	08 f0       	brcs	.+2      	; 0xf78 <__stack+0x719>
     f76:	af cc       	rjmp	.-1698   	; 0x8d6 <__stack+0x77>
     f78:	e6 5d       	subi	r30, 0xD6	; 214
     f7a:	ff 4f       	sbci	r31, 0xFF	; 255
     f7c:	ee 0f       	add	r30, r30
     f7e:	ff 1f       	adc	r31, r31
     f80:	05 90       	lpm	r0, Z+
     f82:	f4 91       	lpm	r31, Z+
     f84:	e0 2d       	mov	r30, r0
     f86:	09 94       	ijmp
     f88:	ce 01       	movw	r24, r28
     f8a:	02 96       	adiw	r24, 0x02	; 2
     f8c:	be 01       	movw	r22, r28
     f8e:	62 5f       	subi	r22, 0xF2	; 242
     f90:	7f 4f       	sbci	r23, 0xFF	; 255
     f92:	0e 94 94 10 	call	0x2128	; 0x2128 <xatoi>
     f96:	88 23       	and	r24, r24
     f98:	09 f4       	brne	.+2      	; 0xf9c <__stack+0x73d>
     f9a:	9d cc       	rjmp	.-1734   	; 0x8d6 <__stack+0x77>
     f9c:	8e 85       	ldd	r24, Y+14	; 0x0e
     f9e:	9f 85       	ldd	r25, Y+15	; 0x0f
     fa0:	a8 89       	ldd	r26, Y+16	; 0x10
     fa2:	b9 89       	ldd	r27, Y+17	; 0x11
     fa4:	22 e3       	ldi	r18, 0x32	; 50
     fa6:	32 e0       	ldi	r19, 0x02	; 2
     fa8:	82 9f       	mul	r24, r18
     faa:	b0 01       	movw	r22, r0
     fac:	83 9f       	mul	r24, r19
     fae:	70 0d       	add	r23, r0
     fb0:	92 9f       	mul	r25, r18
     fb2:	70 0d       	add	r23, r0
     fb4:	11 24       	eor	r1, r1
     fb6:	68 59       	subi	r22, 0x98	; 152
     fb8:	7e 4f       	sbci	r23, 0xFE	; 254
     fba:	0e 94 b1 11 	call	0x2362	; 0x2362 <f_mount>
     fbe:	b5 c6       	rjmp	.+3434   	; 0x1d2a <__stack+0x14cb>
     fc0:	31 96       	adiw	r30, 0x01	; 1
     fc2:	fb 83       	std	Y+3, r31	; 0x03
     fc4:	ea 83       	std	Y+2, r30	; 0x02
     fc6:	ea 81       	ldd	r30, Y+2	; 0x02
     fc8:	fb 81       	ldd	r31, Y+3	; 0x03
     fca:	80 81       	ld	r24, Z
     fcc:	80 32       	cpi	r24, 0x20	; 32
     fce:	c1 f3       	breq	.-16     	; 0xfc0 <__stack+0x761>
     fd0:	cf 01       	movw	r24, r30
     fd2:	be 01       	movw	r22, r28
     fd4:	6e 5e       	subi	r22, 0xEE	; 238
     fd6:	7f 4f       	sbci	r23, 0xFF	; 255
     fd8:	ae 01       	movw	r20, r28
     fda:	44 5f       	subi	r20, 0xF4	; 244
     fdc:	5f 4f       	sbci	r21, 0xFF	; 255
     fde:	0e 94 ce 2e 	call	0x5d9c	; 0x5d9c <f_getfree>
     fe2:	88 23       	and	r24, r24
     fe4:	09 f0       	breq	.+2      	; 0xfe8 <__stack+0x789>
     fe6:	a1 c6       	rjmp	.+3394   	; 0x1d2a <__stack+0x14cb>
     fe8:	4c 85       	ldd	r20, Y+12	; 0x0c
     fea:	5d 85       	ldd	r21, Y+13	; 0x0d
     fec:	ed b7       	in	r30, 0x3d	; 61
     fee:	fe b7       	in	r31, 0x3e	; 62
     ff0:	b0 97       	sbiw	r30, 0x20	; 32
     ff2:	0f b6       	in	r0, 0x3f	; 63
     ff4:	f8 94       	cli
     ff6:	fe bf       	out	0x3e, r31	; 62
     ff8:	0f be       	out	0x3f, r0	; 63
     ffa:	ed bf       	out	0x3d, r30	; 61
     ffc:	2d b7       	in	r18, 0x3d	; 61
     ffe:	3e b7       	in	r19, 0x3e	; 62
    1000:	2f 5f       	subi	r18, 0xFF	; 255
    1002:	3f 4f       	sbci	r19, 0xFF	; 255
    1004:	73 e2       	ldi	r23, 0x23	; 35
    1006:	a7 2e       	mov	r10, r23
    1008:	72 e0       	ldi	r23, 0x02	; 2
    100a:	b7 2e       	mov	r11, r23
    100c:	b2 82       	std	Z+2, r11	; 0x02
    100e:	a1 82       	std	Z+1, r10	; 0x01
    1010:	da 01       	movw	r26, r20
    1012:	ec 91       	ld	r30, X
    1014:	f0 e0       	ldi	r31, 0x00	; 0
    1016:	e3 70       	andi	r30, 0x03	; 3
    1018:	f0 70       	andi	r31, 0x00	; 0
    101a:	ec 59       	subi	r30, 0x9C	; 156
    101c:	ff 4f       	sbci	r31, 0xFF	; 255
    101e:	80 81       	ld	r24, Z
    1020:	f9 01       	movw	r30, r18
    1022:	82 83       	std	Z+2, r24	; 0x02
    1024:	13 82       	std	Z+3, r1	; 0x03
    1026:	12 96       	adiw	r26, 0x02	; 2
    1028:	8c 91       	ld	r24, X
    102a:	90 e0       	ldi	r25, 0x00	; 0
    102c:	a0 e0       	ldi	r26, 0x00	; 0
    102e:	b0 e0       	ldi	r27, 0x00	; 0
    1030:	69 e0       	ldi	r22, 0x09	; 9
    1032:	88 0f       	add	r24, r24
    1034:	99 1f       	adc	r25, r25
    1036:	aa 1f       	adc	r26, r26
    1038:	bb 1f       	adc	r27, r27
    103a:	6a 95       	dec	r22
    103c:	d1 f7       	brne	.-12     	; 0x1032 <__stack+0x7d3>
    103e:	84 83       	std	Z+4, r24	; 0x04
    1040:	95 83       	std	Z+5, r25	; 0x05
    1042:	a6 83       	std	Z+6, r26	; 0x06
    1044:	b7 83       	std	Z+7, r27	; 0x07
    1046:	da 01       	movw	r26, r20
    1048:	13 96       	adiw	r26, 0x03	; 3
    104a:	8c 91       	ld	r24, X
    104c:	13 97       	sbiw	r26, 0x03	; 3
    104e:	80 87       	std	Z+8, r24	; 0x08
    1050:	11 86       	std	Z+9, r1	; 0x09
    1052:	18 96       	adiw	r26, 0x08	; 8
    1054:	8d 91       	ld	r24, X+
    1056:	9c 91       	ld	r25, X
    1058:	19 97       	sbiw	r26, 0x09	; 9
    105a:	93 87       	std	Z+11, r25	; 0x0b
    105c:	82 87       	std	Z+10, r24	; 0x0a
    105e:	5e 96       	adiw	r26, 0x1e	; 30
    1060:	8d 91       	ld	r24, X+
    1062:	9d 91       	ld	r25, X+
    1064:	0d 90       	ld	r0, X+
    1066:	bc 91       	ld	r27, X
    1068:	a0 2d       	mov	r26, r0
    106a:	84 87       	std	Z+12, r24	; 0x0c
    106c:	95 87       	std	Z+13, r25	; 0x0d
    106e:	a6 87       	std	Z+14, r26	; 0x0e
    1070:	b7 87       	std	Z+15, r27	; 0x0f
    1072:	fa 01       	movw	r30, r20
    1074:	82 8d       	ldd	r24, Z+26	; 0x1a
    1076:	93 8d       	ldd	r25, Z+27	; 0x1b
    1078:	a4 8d       	ldd	r26, Z+28	; 0x1c
    107a:	b5 8d       	ldd	r27, Z+29	; 0x1d
    107c:	02 97       	sbiw	r24, 0x02	; 2
    107e:	a1 09       	sbc	r26, r1
    1080:	b1 09       	sbc	r27, r1
    1082:	f9 01       	movw	r30, r18
    1084:	80 8b       	std	Z+16, r24	; 0x10
    1086:	91 8b       	std	Z+17, r25	; 0x11
    1088:	a2 8b       	std	Z+18, r26	; 0x12
    108a:	b3 8b       	std	Z+19, r27	; 0x13
    108c:	fa 01       	movw	r30, r20
    108e:	82 a1       	ldd	r24, Z+34	; 0x22
    1090:	93 a1       	ldd	r25, Z+35	; 0x23
    1092:	a4 a1       	ldd	r26, Z+36	; 0x24
    1094:	b5 a1       	ldd	r27, Z+37	; 0x25
    1096:	f9 01       	movw	r30, r18
    1098:	84 8b       	std	Z+20, r24	; 0x14
    109a:	95 8b       	std	Z+21, r25	; 0x15
    109c:	a6 8b       	std	Z+22, r26	; 0x16
    109e:	b7 8b       	std	Z+23, r27	; 0x17
    10a0:	fa 01       	movw	r30, r20
    10a2:	86 a1       	ldd	r24, Z+38	; 0x26
    10a4:	97 a1       	ldd	r25, Z+39	; 0x27
    10a6:	a0 a5       	ldd	r26, Z+40	; 0x28
    10a8:	b1 a5       	ldd	r27, Z+41	; 0x29
    10aa:	f9 01       	movw	r30, r18
    10ac:	80 8f       	std	Z+24, r24	; 0x18
    10ae:	91 8f       	std	Z+25, r25	; 0x19
    10b0:	a2 8f       	std	Z+26, r26	; 0x1a
    10b2:	b3 8f       	std	Z+27, r27	; 0x1b
    10b4:	fa 01       	movw	r30, r20
    10b6:	82 a5       	ldd	r24, Z+42	; 0x2a
    10b8:	93 a5       	ldd	r25, Z+43	; 0x2b
    10ba:	a4 a5       	ldd	r26, Z+44	; 0x2c
    10bc:	b5 a5       	ldd	r27, Z+45	; 0x2d
    10be:	f9 01       	movw	r30, r18
    10c0:	84 8f       	std	Z+28, r24	; 0x1c
    10c2:	95 8f       	std	Z+29, r25	; 0x1d
    10c4:	a6 8f       	std	Z+30, r26	; 0x1e
    10c6:	b7 8f       	std	Z+31, r27	; 0x1f
    10c8:	0e 94 36 10 	call	0x206c	; 0x206c <xprintf>
    10cc:	10 92 b1 03 	sts	0x03B1, r1
    10d0:	10 92 b0 03 	sts	0x03B0, r1
    10d4:	10 92 b3 03 	sts	0x03B3, r1
    10d8:	10 92 b2 03 	sts	0x03B2, r1
    10dc:	10 92 b6 04 	sts	0x04B6, r1
    10e0:	10 92 b7 04 	sts	0x04B7, r1
    10e4:	10 92 b8 04 	sts	0x04B8, r1
    10e8:	10 92 b9 04 	sts	0x04B9, r1
    10ec:	2d b7       	in	r18, 0x3d	; 61
    10ee:	3e b7       	in	r19, 0x3e	; 62
    10f0:	20 5e       	subi	r18, 0xE0	; 224
    10f2:	3f 4f       	sbci	r19, 0xFF	; 255
    10f4:	0f b6       	in	r0, 0x3f	; 63
    10f6:	f8 94       	cli
    10f8:	3e bf       	out	0x3e, r19	; 62
    10fa:	0f be       	out	0x3f, r0	; 63
    10fc:	2d bf       	out	0x3d, r18	; 61
    10fe:	8a 81       	ldd	r24, Y+2	; 0x02
    1100:	9b 81       	ldd	r25, Y+3	; 0x03
    1102:	0e 94 29 03 	call	0x652	; 0x652 <scan_files>
    1106:	88 23       	and	r24, r24
    1108:	09 f0       	breq	.+2      	; 0x110c <__stack+0x8ad>
    110a:	0f c6       	rjmp	.+3102   	; 0x1d2a <__stack+0x14cb>
    110c:	ec 85       	ldd	r30, Y+12	; 0x0c
    110e:	fd 85       	ldd	r31, Y+13	; 0x0d
    1110:	e2 80       	ldd	r14, Z+2	; 0x02
    1112:	e6 94       	lsr	r14
    1114:	8d b7       	in	r24, 0x3d	; 61
    1116:	9e b7       	in	r25, 0x3e	; 62
    1118:	42 97       	sbiw	r24, 0x12	; 18
    111a:	0f b6       	in	r0, 0x3f	; 63
    111c:	f8 94       	cli
    111e:	9e bf       	out	0x3e, r25	; 62
    1120:	0f be       	out	0x3f, r0	; 63
    1122:	8d bf       	out	0x3d, r24	; 61
    1124:	cd b6       	in	r12, 0x3d	; 61
    1126:	de b6       	in	r13, 0x3e	; 62
    1128:	08 94       	sec
    112a:	c1 1c       	adc	r12, r1
    112c:	d1 1c       	adc	r13, r1
    112e:	55 ed       	ldi	r21, 0xD5	; 213
    1130:	a5 2e       	mov	r10, r21
    1132:	51 e0       	ldi	r21, 0x01	; 1
    1134:	b5 2e       	mov	r11, r21
    1136:	ad b7       	in	r26, 0x3d	; 61
    1138:	be b7       	in	r27, 0x3e	; 62
    113a:	12 96       	adiw	r26, 0x02	; 2
    113c:	bc 92       	st	X, r11
    113e:	ae 92       	st	-X, r10
    1140:	11 97       	sbiw	r26, 0x01	; 1
    1142:	80 91 b2 03 	lds	r24, 0x03B2
    1146:	90 91 b3 03 	lds	r25, 0x03B3
    114a:	d6 01       	movw	r26, r12
    114c:	13 96       	adiw	r26, 0x03	; 3
    114e:	9c 93       	st	X, r25
    1150:	8e 93       	st	-X, r24
    1152:	12 97       	sbiw	r26, 0x02	; 2
    1154:	20 91 b6 04 	lds	r18, 0x04B6
    1158:	30 91 b7 04 	lds	r19, 0x04B7
    115c:	40 91 b8 04 	lds	r20, 0x04B8
    1160:	50 91 b9 04 	lds	r21, 0x04B9
    1164:	14 96       	adiw	r26, 0x04	; 4
    1166:	2d 93       	st	X+, r18
    1168:	3d 93       	st	X+, r19
    116a:	4d 93       	st	X+, r20
    116c:	5c 93       	st	X, r21
    116e:	17 97       	sbiw	r26, 0x07	; 7
    1170:	80 91 b0 03 	lds	r24, 0x03B0
    1174:	90 91 b1 03 	lds	r25, 0x03B1
    1178:	19 96       	adiw	r26, 0x09	; 9
    117a:	9c 93       	st	X, r25
    117c:	8e 93       	st	-X, r24
    117e:	18 97       	sbiw	r26, 0x08	; 8
    1180:	ff 24       	eor	r15, r15
    1182:	00 e0       	ldi	r16, 0x00	; 0
    1184:	10 e0       	ldi	r17, 0x00	; 0
    1186:	22 8d       	ldd	r18, Z+26	; 0x1a
    1188:	33 8d       	ldd	r19, Z+27	; 0x1b
    118a:	44 8d       	ldd	r20, Z+28	; 0x1c
    118c:	55 8d       	ldd	r21, Z+29	; 0x1d
    118e:	22 50       	subi	r18, 0x02	; 2
    1190:	30 40       	sbci	r19, 0x00	; 0
    1192:	40 40       	sbci	r20, 0x00	; 0
    1194:	50 40       	sbci	r21, 0x00	; 0
    1196:	c8 01       	movw	r24, r16
    1198:	b7 01       	movw	r22, r14
    119a:	0e 94 cf 35 	call	0x6b9e	; 0x6b9e <__mulsi3>
    119e:	f6 01       	movw	r30, r12
    11a0:	62 87       	std	Z+10, r22	; 0x0a
    11a2:	73 87       	std	Z+11, r23	; 0x0b
    11a4:	84 87       	std	Z+12, r24	; 0x0c
    11a6:	95 87       	std	Z+13, r25	; 0x0d
    11a8:	2a 89       	ldd	r18, Y+18	; 0x12
    11aa:	3b 89       	ldd	r19, Y+19	; 0x13
    11ac:	4c 89       	ldd	r20, Y+20	; 0x14
    11ae:	5d 89       	ldd	r21, Y+21	; 0x15
    11b0:	c8 01       	movw	r24, r16
    11b2:	b7 01       	movw	r22, r14
    11b4:	0e 94 cf 35 	call	0x6b9e	; 0x6b9e <__mulsi3>
    11b8:	d6 01       	movw	r26, r12
    11ba:	1e 96       	adiw	r26, 0x0e	; 14
    11bc:	6d 93       	st	X+, r22
    11be:	7d 93       	st	X+, r23
    11c0:	8d 93       	st	X+, r24
    11c2:	9c 93       	st	X, r25
    11c4:	51 97       	sbiw	r26, 0x11	; 17
    11c6:	0e 94 36 10 	call	0x206c	; 0x206c <xprintf>
    11ca:	ed b7       	in	r30, 0x3d	; 61
    11cc:	fe b7       	in	r31, 0x3e	; 62
    11ce:	72 96       	adiw	r30, 0x12	; 18
    11d0:	43 c1       	rjmp	.+646    	; 0x1458 <__stack+0xbf9>
    11d2:	31 96       	adiw	r30, 0x01	; 1
    11d4:	fb 83       	std	Y+3, r31	; 0x03
    11d6:	ea 83       	std	Y+2, r30	; 0x02
    11d8:	ea 81       	ldd	r30, Y+2	; 0x02
    11da:	fb 81       	ldd	r31, Y+3	; 0x03
    11dc:	80 81       	ld	r24, Z
    11de:	80 32       	cpi	r24, 0x20	; 32
    11e0:	c1 f3       	breq	.-16     	; 0x11d2 <__stack+0x973>
    11e2:	8e 01       	movw	r16, r28
    11e4:	06 5e       	subi	r16, 0xE6	; 230
    11e6:	1f 4f       	sbci	r17, 0xFF	; 255
    11e8:	c8 01       	movw	r24, r16
    11ea:	bf 01       	movw	r22, r30
    11ec:	0e 94 75 25 	call	0x4aea	; 0x4aea <f_opendir>
    11f0:	88 23       	and	r24, r24
    11f2:	09 f0       	breq	.+2      	; 0x11f6 <__stack+0x997>
    11f4:	9a c5       	rjmp	.+2868   	; 0x1d2a <__stack+0x14cb>
    11f6:	19 86       	std	Y+9, r1	; 0x09
    11f8:	18 86       	std	Y+8, r1	; 0x08
    11fa:	1f 82       	std	Y+7, r1	; 0x07
    11fc:	1e 82       	std	Y+6, r1	; 0x06
    11fe:	1e 86       	std	Y+14, r1	; 0x0e
    1200:	1f 86       	std	Y+15, r1	; 0x0f
    1202:	18 8a       	std	Y+16, r1	; 0x10
    1204:	19 8a       	std	Y+17, r1	; 0x11
    1206:	68 01       	movw	r12, r16
    1208:	c6 01       	movw	r24, r12
    120a:	6a e9       	ldi	r22, 0x9A	; 154
    120c:	73 e0       	ldi	r23, 0x03	; 3
    120e:	0e 94 e1 27 	call	0x4fc2	; 0x4fc2 <f_readdir>
    1212:	88 23       	and	r24, r24
    1214:	09 f0       	breq	.+2      	; 0x1218 <__stack+0x9b9>
    1216:	bb c0       	rjmp	.+374    	; 0x138e <__stack+0xb2f>
    1218:	80 91 a3 03 	lds	r24, 0x03A3
    121c:	88 23       	and	r24, r24
    121e:	09 f4       	brne	.+2      	; 0x1222 <__stack+0x9c3>
    1220:	b6 c0       	rjmp	.+364    	; 0x138e <__stack+0xb2f>
    1222:	80 91 a2 03 	lds	r24, 0x03A2
    1226:	84 ff       	sbrs	r24, 4
    1228:	06 c0       	rjmp	.+12     	; 0x1236 <__stack+0x9d7>
    122a:	88 85       	ldd	r24, Y+8	; 0x08
    122c:	99 85       	ldd	r25, Y+9	; 0x09
    122e:	01 96       	adiw	r24, 0x01	; 1
    1230:	99 87       	std	Y+9, r25	; 0x09
    1232:	88 87       	std	Y+8, r24	; 0x08
    1234:	19 c0       	rjmp	.+50     	; 0x1268 <__stack+0xa09>
    1236:	8e 81       	ldd	r24, Y+6	; 0x06
    1238:	9f 81       	ldd	r25, Y+7	; 0x07
    123a:	01 96       	adiw	r24, 0x01	; 1
    123c:	9f 83       	std	Y+7, r25	; 0x07
    123e:	8e 83       	std	Y+6, r24	; 0x06
    1240:	8e 85       	ldd	r24, Y+14	; 0x0e
    1242:	9f 85       	ldd	r25, Y+15	; 0x0f
    1244:	a8 89       	ldd	r26, Y+16	; 0x10
    1246:	b9 89       	ldd	r27, Y+17	; 0x11
    1248:	20 91 9a 03 	lds	r18, 0x039A
    124c:	30 91 9b 03 	lds	r19, 0x039B
    1250:	40 91 9c 03 	lds	r20, 0x039C
    1254:	50 91 9d 03 	lds	r21, 0x039D
    1258:	82 0f       	add	r24, r18
    125a:	93 1f       	adc	r25, r19
    125c:	a4 1f       	adc	r26, r20
    125e:	b5 1f       	adc	r27, r21
    1260:	8e 87       	std	Y+14, r24	; 0x0e
    1262:	9f 87       	std	Y+15, r25	; 0x0f
    1264:	a8 8b       	std	Y+16, r26	; 0x10
    1266:	b9 8b       	std	Y+17, r27	; 0x11
    1268:	80 91 a2 03 	lds	r24, 0x03A2
    126c:	84 fd       	sbrc	r24, 4
    126e:	04 c0       	rjmp	.+8      	; 0x1278 <__stack+0xa19>
    1270:	4d e2       	ldi	r20, 0x2D	; 45
    1272:	e4 2e       	mov	r14, r20
    1274:	f1 2c       	mov	r15, r1
    1276:	03 c0       	rjmp	.+6      	; 0x127e <__stack+0xa1f>
    1278:	34 e4       	ldi	r19, 0x44	; 68
    127a:	e3 2e       	mov	r14, r19
    127c:	f1 2c       	mov	r15, r1
    127e:	80 fd       	sbrc	r24, 0
    1280:	03 c0       	rjmp	.+6      	; 0x1288 <__stack+0xa29>
    1282:	0d e2       	ldi	r16, 0x2D	; 45
    1284:	10 e0       	ldi	r17, 0x00	; 0
    1286:	02 c0       	rjmp	.+4      	; 0x128c <__stack+0xa2d>
    1288:	02 e5       	ldi	r16, 0x52	; 82
    128a:	10 e0       	ldi	r17, 0x00	; 0
    128c:	81 fd       	sbrc	r24, 1
    128e:	04 c0       	rjmp	.+8      	; 0x1298 <__stack+0xa39>
    1290:	2d e2       	ldi	r18, 0x2D	; 45
    1292:	82 2e       	mov	r8, r18
    1294:	91 2c       	mov	r9, r1
    1296:	03 c0       	rjmp	.+6      	; 0x129e <__stack+0xa3f>
    1298:	98 e4       	ldi	r25, 0x48	; 72
    129a:	89 2e       	mov	r8, r25
    129c:	91 2c       	mov	r9, r1
    129e:	82 fd       	sbrc	r24, 2
    12a0:	03 c0       	rjmp	.+6      	; 0x12a8 <__stack+0xa49>
    12a2:	6d e2       	ldi	r22, 0x2D	; 45
    12a4:	70 e0       	ldi	r23, 0x00	; 0
    12a6:	02 c0       	rjmp	.+4      	; 0x12ac <__stack+0xa4d>
    12a8:	63 e5       	ldi	r22, 0x53	; 83
    12aa:	70 e0       	ldi	r23, 0x00	; 0
    12ac:	85 fd       	sbrc	r24, 5
    12ae:	03 c0       	rjmp	.+6      	; 0x12b6 <__stack+0xa57>
    12b0:	8d e2       	ldi	r24, 0x2D	; 45
    12b2:	90 e0       	ldi	r25, 0x00	; 0
    12b4:	02 c0       	rjmp	.+4      	; 0x12ba <__stack+0xa5b>
    12b6:	81 e4       	ldi	r24, 0x41	; 65
    12b8:	90 e0       	ldi	r25, 0x00	; 0
    12ba:	20 91 9e 03 	lds	r18, 0x039E
    12be:	30 91 9f 03 	lds	r19, 0x039F
    12c2:	40 91 a0 03 	lds	r20, 0x03A0
    12c6:	50 91 a1 03 	lds	r21, 0x03A1
    12ca:	ad b7       	in	r26, 0x3d	; 61
    12cc:	be b7       	in	r27, 0x3e	; 62
    12ce:	5c 97       	sbiw	r26, 0x1c	; 28
    12d0:	0f b6       	in	r0, 0x3f	; 63
    12d2:	f8 94       	cli
    12d4:	be bf       	out	0x3e, r27	; 62
    12d6:	0f be       	out	0x3f, r0	; 63
    12d8:	ad bf       	out	0x3d, r26	; 61
    12da:	ed b7       	in	r30, 0x3d	; 61
    12dc:	fe b7       	in	r31, 0x3e	; 62
    12de:	31 96       	adiw	r30, 0x01	; 1
    12e0:	0f 2e       	mov	r0, r31
    12e2:	fa ea       	ldi	r31, 0xAA	; 170
    12e4:	af 2e       	mov	r10, r31
    12e6:	f1 e0       	ldi	r31, 0x01	; 1
    12e8:	bf 2e       	mov	r11, r31
    12ea:	f0 2d       	mov	r31, r0
    12ec:	12 96       	adiw	r26, 0x02	; 2
    12ee:	bc 92       	st	X, r11
    12f0:	ae 92       	st	-X, r10
    12f2:	11 97       	sbiw	r26, 0x01	; 1
    12f4:	f3 82       	std	Z+3, r15	; 0x03
    12f6:	e2 82       	std	Z+2, r14	; 0x02
    12f8:	15 83       	std	Z+5, r17	; 0x05
    12fa:	04 83       	std	Z+4, r16	; 0x04
    12fc:	97 82       	std	Z+7, r9	; 0x07
    12fe:	86 82       	std	Z+6, r8	; 0x06
    1300:	71 87       	std	Z+9, r23	; 0x09
    1302:	60 87       	std	Z+8, r22	; 0x08
    1304:	93 87       	std	Z+11, r25	; 0x0b
    1306:	82 87       	std	Z+10, r24	; 0x0a
    1308:	c9 01       	movw	r24, r18
    130a:	89 2f       	mov	r24, r25
    130c:	99 27       	eor	r25, r25
    130e:	86 95       	lsr	r24
    1310:	84 54       	subi	r24, 0x44	; 68
    1312:	98 4f       	sbci	r25, 0xF8	; 248
    1314:	95 87       	std	Z+13, r25	; 0x0d
    1316:	84 87       	std	Z+12, r24	; 0x0c
    1318:	c9 01       	movw	r24, r18
    131a:	65 e0       	ldi	r22, 0x05	; 5
    131c:	96 95       	lsr	r25
    131e:	87 95       	ror	r24
    1320:	6a 95       	dec	r22
    1322:	e1 f7       	brne	.-8      	; 0x131c <__stack+0xabd>
    1324:	8f 70       	andi	r24, 0x0F	; 15
    1326:	90 70       	andi	r25, 0x00	; 0
    1328:	97 87       	std	Z+15, r25	; 0x0f
    132a:	86 87       	std	Z+14, r24	; 0x0e
    132c:	2f 71       	andi	r18, 0x1F	; 31
    132e:	30 70       	andi	r19, 0x00	; 0
    1330:	31 8b       	std	Z+17, r19	; 0x11
    1332:	20 8b       	std	Z+16, r18	; 0x10
    1334:	85 2f       	mov	r24, r21
    1336:	86 95       	lsr	r24
    1338:	86 95       	lsr	r24
    133a:	86 95       	lsr	r24
    133c:	82 8b       	std	Z+18, r24	; 0x12
    133e:	13 8a       	std	Z+19, r1	; 0x13
    1340:	05 e0       	ldi	r16, 0x05	; 5
    1342:	56 95       	lsr	r21
    1344:	47 95       	ror	r20
    1346:	0a 95       	dec	r16
    1348:	e1 f7       	brne	.-8      	; 0x1342 <__stack+0xae3>
    134a:	4f 73       	andi	r20, 0x3F	; 63
    134c:	50 70       	andi	r21, 0x00	; 0
    134e:	55 8b       	std	Z+21, r21	; 0x15
    1350:	44 8b       	std	Z+20, r20	; 0x14
    1352:	80 91 9a 03 	lds	r24, 0x039A
    1356:	90 91 9b 03 	lds	r25, 0x039B
    135a:	a0 91 9c 03 	lds	r26, 0x039C
    135e:	b0 91 9d 03 	lds	r27, 0x039D
    1362:	86 8b       	std	Z+22, r24	; 0x16
    1364:	97 8b       	std	Z+23, r25	; 0x17
    1366:	a0 8f       	std	Z+24, r26	; 0x18
    1368:	b1 8f       	std	Z+25, r27	; 0x19
    136a:	23 ea       	ldi	r18, 0xA3	; 163
    136c:	33 e0       	ldi	r19, 0x03	; 3
    136e:	33 8f       	std	Z+27, r19	; 0x1b
    1370:	22 8f       	std	Z+26, r18	; 0x1a
    1372:	0e 94 36 10 	call	0x206c	; 0x206c <xprintf>
    1376:	8d b7       	in	r24, 0x3d	; 61
    1378:	9e b7       	in	r25, 0x3e	; 62
    137a:	4c 96       	adiw	r24, 0x1c	; 28
    137c:	0f b6       	in	r0, 0x3f	; 63
    137e:	f8 94       	cli
    1380:	9e bf       	out	0x3e, r25	; 62
    1382:	0f be       	out	0x3f, r0	; 63
    1384:	8d bf       	out	0x3d, r24	; 61
    1386:	8a e0       	ldi	r24, 0x0A	; 10
    1388:	0e 94 e3 0f 	call	0x1fc6	; 0x1fc6 <xputc>
    138c:	3d cf       	rjmp	.-390    	; 0x1208 <__stack+0x9a9>
    138e:	ad b7       	in	r26, 0x3d	; 61
    1390:	be b7       	in	r27, 0x3e	; 62
    1392:	1a 97       	sbiw	r26, 0x0a	; 10
    1394:	0f b6       	in	r0, 0x3f	; 63
    1396:	f8 94       	cli
    1398:	be bf       	out	0x3e, r27	; 62
    139a:	0f be       	out	0x3f, r0	; 63
    139c:	ad bf       	out	0x3d, r26	; 61
    139e:	ed b7       	in	r30, 0x3d	; 61
    13a0:	fe b7       	in	r31, 0x3e	; 62
    13a2:	31 96       	adiw	r30, 0x01	; 1
    13a4:	11 e8       	ldi	r17, 0x81	; 129
    13a6:	a1 2e       	mov	r10, r17
    13a8:	11 e0       	ldi	r17, 0x01	; 1
    13aa:	b1 2e       	mov	r11, r17
    13ac:	12 96       	adiw	r26, 0x02	; 2
    13ae:	bc 92       	st	X, r11
    13b0:	ae 92       	st	-X, r10
    13b2:	11 97       	sbiw	r26, 0x01	; 1
    13b4:	8e 81       	ldd	r24, Y+6	; 0x06
    13b6:	9f 81       	ldd	r25, Y+7	; 0x07
    13b8:	93 83       	std	Z+3, r25	; 0x03
    13ba:	82 83       	std	Z+2, r24	; 0x02
    13bc:	8e 85       	ldd	r24, Y+14	; 0x0e
    13be:	9f 85       	ldd	r25, Y+15	; 0x0f
    13c0:	a8 89       	ldd	r26, Y+16	; 0x10
    13c2:	b9 89       	ldd	r27, Y+17	; 0x11
    13c4:	84 83       	std	Z+4, r24	; 0x04
    13c6:	95 83       	std	Z+5, r25	; 0x05
    13c8:	a6 83       	std	Z+6, r26	; 0x06
    13ca:	b7 83       	std	Z+7, r27	; 0x07
    13cc:	88 85       	ldd	r24, Y+8	; 0x08
    13ce:	99 85       	ldd	r25, Y+9	; 0x09
    13d0:	91 87       	std	Z+9, r25	; 0x09
    13d2:	80 87       	std	Z+8, r24	; 0x08
    13d4:	0e 94 36 10 	call	0x206c	; 0x206c <xprintf>
    13d8:	2d b7       	in	r18, 0x3d	; 61
    13da:	3e b7       	in	r19, 0x3e	; 62
    13dc:	26 5f       	subi	r18, 0xF6	; 246
    13de:	3f 4f       	sbci	r19, 0xFF	; 255
    13e0:	0f b6       	in	r0, 0x3f	; 63
    13e2:	f8 94       	cli
    13e4:	3e bf       	out	0x3e, r19	; 62
    13e6:	0f be       	out	0x3f, r0	; 63
    13e8:	2d bf       	out	0x3d, r18	; 61
    13ea:	8a 81       	ldd	r24, Y+2	; 0x02
    13ec:	9b 81       	ldd	r25, Y+3	; 0x03
    13ee:	be 01       	movw	r22, r28
    13f0:	62 5f       	subi	r22, 0xF2	; 242
    13f2:	7f 4f       	sbci	r23, 0xFF	; 255
    13f4:	ae 01       	movw	r20, r28
    13f6:	44 5f       	subi	r20, 0xF4	; 244
    13f8:	5f 4f       	sbci	r21, 0xFF	; 255
    13fa:	0e 94 ce 2e 	call	0x5d9c	; 0x5d9c <f_getfree>
    13fe:	88 23       	and	r24, r24
    1400:	09 f0       	breq	.+2      	; 0x1404 <__stack+0xba5>
    1402:	69 ca       	rjmp	.-2862   	; 0x8d6 <__stack+0x77>
    1404:	00 d0       	rcall	.+0      	; 0x1406 <__stack+0xba7>
    1406:	00 d0       	rcall	.+0      	; 0x1408 <__stack+0xba9>
    1408:	00 d0       	rcall	.+0      	; 0x140a <__stack+0xbab>
    140a:	ec e6       	ldi	r30, 0x6C	; 108
    140c:	f1 e0       	ldi	r31, 0x01	; 1
    140e:	ad b7       	in	r26, 0x3d	; 61
    1410:	be b7       	in	r27, 0x3e	; 62
    1412:	12 96       	adiw	r26, 0x02	; 2
    1414:	fc 93       	st	X, r31
    1416:	ee 93       	st	-X, r30
    1418:	11 97       	sbiw	r26, 0x01	; 1
    141a:	ec 85       	ldd	r30, Y+12	; 0x0c
    141c:	fd 85       	ldd	r31, Y+13	; 0x0d
    141e:	62 81       	ldd	r22, Z+2	; 0x02
    1420:	70 e0       	ldi	r23, 0x00	; 0
    1422:	80 e0       	ldi	r24, 0x00	; 0
    1424:	90 e0       	ldi	r25, 0x00	; 0
    1426:	2e 85       	ldd	r18, Y+14	; 0x0e
    1428:	3f 85       	ldd	r19, Y+15	; 0x0f
    142a:	48 89       	ldd	r20, Y+16	; 0x10
    142c:	59 89       	ldd	r21, Y+17	; 0x11
    142e:	0e 94 cf 35 	call	0x6b9e	; 0x6b9e <__mulsi3>
    1432:	22 e0       	ldi	r18, 0x02	; 2
    1434:	30 e0       	ldi	r19, 0x00	; 0
    1436:	40 e0       	ldi	r20, 0x00	; 0
    1438:	50 e0       	ldi	r21, 0x00	; 0
    143a:	0e 94 10 36 	call	0x6c20	; 0x6c20 <__divmodsi4>
    143e:	ad b7       	in	r26, 0x3d	; 61
    1440:	be b7       	in	r27, 0x3e	; 62
    1442:	13 96       	adiw	r26, 0x03	; 3
    1444:	2d 93       	st	X+, r18
    1446:	3d 93       	st	X+, r19
    1448:	4d 93       	st	X+, r20
    144a:	5c 93       	st	X, r21
    144c:	16 97       	sbiw	r26, 0x06	; 6
    144e:	0e 94 36 10 	call	0x206c	; 0x206c <xprintf>
    1452:	ed b7       	in	r30, 0x3d	; 61
    1454:	fe b7       	in	r31, 0x3e	; 62
    1456:	36 96       	adiw	r30, 0x06	; 6
    1458:	0f b6       	in	r0, 0x3f	; 63
    145a:	f8 94       	cli
    145c:	fe bf       	out	0x3e, r31	; 62
    145e:	0f be       	out	0x3f, r0	; 63
    1460:	ed bf       	out	0x3d, r30	; 61
    1462:	39 ca       	rjmp	.-2958   	; 0x8d6 <__stack+0x77>
    1464:	ce 01       	movw	r24, r28
    1466:	02 96       	adiw	r24, 0x02	; 2
    1468:	be 01       	movw	r22, r28
    146a:	62 5f       	subi	r22, 0xF2	; 242
    146c:	7f 4f       	sbci	r23, 0xFF	; 255
    146e:	0e 94 94 10 	call	0x2128	; 0x2128 <xatoi>
    1472:	88 23       	and	r24, r24
    1474:	09 f4       	brne	.+2      	; 0x1478 <__stack+0xc19>
    1476:	2f ca       	rjmp	.-2978   	; 0x8d6 <__stack+0x77>
    1478:	03 c0       	rjmp	.+6      	; 0x1480 <__stack+0xc21>
    147a:	31 96       	adiw	r30, 0x01	; 1
    147c:	fb 83       	std	Y+3, r31	; 0x03
    147e:	ea 83       	std	Y+2, r30	; 0x02
    1480:	ea 81       	ldd	r30, Y+2	; 0x02
    1482:	fb 81       	ldd	r31, Y+3	; 0x03
    1484:	80 81       	ld	r24, Z
    1486:	80 32       	cpi	r24, 0x20	; 32
    1488:	c1 f3       	breq	.-16     	; 0x147a <__stack+0xc1b>
    148a:	ce 01       	movw	r24, r28
    148c:	c0 96       	adiw	r24, 0x30	; 48
    148e:	bf 01       	movw	r22, r30
    1490:	4e 85       	ldd	r20, Y+14	; 0x0e
    1492:	0e 94 ac 2d 	call	0x5b58	; 0x5b58 <f_open>
    1496:	49 c4       	rjmp	.+2194   	; 0x1d2a <__stack+0x14cb>
    1498:	ce 01       	movw	r24, r28
    149a:	c0 96       	adiw	r24, 0x30	; 48
    149c:	0e 94 c7 1a 	call	0x358e	; 0x358e <f_close>
    14a0:	44 c4       	rjmp	.+2184   	; 0x1d2a <__stack+0x14cb>
    14a2:	ce 01       	movw	r24, r28
    14a4:	02 96       	adiw	r24, 0x02	; 2
    14a6:	be 01       	movw	r22, r28
    14a8:	62 5f       	subi	r22, 0xF2	; 242
    14aa:	7f 4f       	sbci	r23, 0xFF	; 255
    14ac:	0e 94 94 10 	call	0x2128	; 0x2128 <xatoi>
    14b0:	88 23       	and	r24, r24
    14b2:	09 f4       	brne	.+2      	; 0x14b6 <__stack+0xc57>
    14b4:	10 ca       	rjmp	.-3040   	; 0x8d6 <__stack+0x77>
    14b6:	4e 85       	ldd	r20, Y+14	; 0x0e
    14b8:	5f 85       	ldd	r21, Y+15	; 0x0f
    14ba:	68 89       	ldd	r22, Y+16	; 0x10
    14bc:	79 89       	ldd	r23, Y+17	; 0x11
    14be:	ce 01       	movw	r24, r28
    14c0:	c0 96       	adiw	r24, 0x30	; 48
    14c2:	0e 94 81 1f 	call	0x3f02	; 0x3f02 <f_lseek>
    14c6:	18 2f       	mov	r17, r24
    14c8:	0e 94 90 02 	call	0x520	; 0x520 <put_rc>
    14cc:	11 23       	and	r17, r17
    14ce:	09 f0       	breq	.+2      	; 0x14d2 <__stack+0xc73>
    14d0:	02 ca       	rjmp	.-3068   	; 0x8d6 <__stack+0x77>
    14d2:	8e a9       	ldd	r24, Y+54	; 0x36
    14d4:	9f a9       	ldd	r25, Y+55	; 0x37
    14d6:	a8 ad       	ldd	r26, Y+56	; 0x38
    14d8:	b9 ad       	ldd	r27, Y+57	; 0x39
    14da:	2d b7       	in	r18, 0x3d	; 61
    14dc:	3e b7       	in	r19, 0x3e	; 62
    14de:	2a 50       	subi	r18, 0x0A	; 10
    14e0:	30 40       	sbci	r19, 0x00	; 0
    14e2:	0f b6       	in	r0, 0x3f	; 63
    14e4:	f8 94       	cli
    14e6:	3e bf       	out	0x3e, r19	; 62
    14e8:	0f be       	out	0x3f, r0	; 63
    14ea:	2d bf       	out	0x3d, r18	; 61
    14ec:	4d b7       	in	r20, 0x3d	; 61
    14ee:	5e b7       	in	r21, 0x3e	; 62
    14f0:	4f 5f       	subi	r20, 0xFF	; 255
    14f2:	5f 4f       	sbci	r21, 0xFF	; 255
    14f4:	29 e5       	ldi	r18, 0x59	; 89
    14f6:	31 e0       	ldi	r19, 0x01	; 1
    14f8:	ed b7       	in	r30, 0x3d	; 61
    14fa:	fe b7       	in	r31, 0x3e	; 62
    14fc:	32 83       	std	Z+2, r19	; 0x02
    14fe:	21 83       	std	Z+1, r18	; 0x01
    1500:	fa 01       	movw	r30, r20
    1502:	82 83       	std	Z+2, r24	; 0x02
    1504:	93 83       	std	Z+3, r25	; 0x03
    1506:	a4 83       	std	Z+4, r26	; 0x04
    1508:	b5 83       	std	Z+5, r27	; 0x05
    150a:	a4 c1       	rjmp	.+840    	; 0x1854 <__stack+0xff5>
    150c:	ce 01       	movw	r24, r28
    150e:	02 96       	adiw	r24, 0x02	; 2
    1510:	be 01       	movw	r22, r28
    1512:	62 5f       	subi	r22, 0xF2	; 242
    1514:	7f 4f       	sbci	r23, 0xFF	; 255
    1516:	0e 94 94 10 	call	0x2128	; 0x2128 <xatoi>
    151a:	88 23       	and	r24, r24
    151c:	09 f4       	brne	.+2      	; 0x1520 <__stack+0xcc1>
    151e:	db c9       	rjmp	.-3146   	; 0x8d6 <__stack+0x77>
    1520:	1a 8a       	std	Y+18, r1	; 0x12
    1522:	1b 8a       	std	Y+19, r1	; 0x13
    1524:	1c 8a       	std	Y+20, r1	; 0x14
    1526:	1d 8a       	std	Y+21, r1	; 0x15
    1528:	10 92 b5 03 	sts	0x03B5, r1
    152c:	10 92 b4 03 	sts	0x03B4, r1
    1530:	e1 2c       	mov	r14, r1
    1532:	71 e0       	ldi	r23, 0x01	; 1
    1534:	f7 2e       	mov	r15, r23
    1536:	8e 01       	movw	r16, r28
    1538:	00 5d       	subi	r16, 0xD0	; 208
    153a:	1f 4f       	sbci	r17, 0xFF	; 255
    153c:	3c c0       	rjmp	.+120    	; 0x15b6 <__stack+0xd57>
    153e:	8f 3f       	cpi	r24, 0xFF	; 255
    1540:	91 05       	cpc	r25, r1
    1542:	a1 05       	cpc	r26, r1
    1544:	b1 05       	cpc	r27, r1
    1546:	61 f0       	breq	.+24     	; 0x1560 <__stack+0xd01>
    1548:	5c f0       	brlt	.+22     	; 0x1560 <__stack+0xd01>
    154a:	fb 86       	std	Y+11, r15	; 0x0b
    154c:	ea 86       	std	Y+10, r14	; 0x0a
    154e:	80 50       	subi	r24, 0x00	; 0
    1550:	91 40       	sbci	r25, 0x01	; 1
    1552:	a0 40       	sbci	r26, 0x00	; 0
    1554:	b0 40       	sbci	r27, 0x00	; 0
    1556:	8e 87       	std	Y+14, r24	; 0x0e
    1558:	9f 87       	std	Y+15, r25	; 0x0f
    155a:	a8 8b       	std	Y+16, r26	; 0x10
    155c:	b9 8b       	std	Y+17, r27	; 0x11
    155e:	06 c0       	rjmp	.+12     	; 0x156c <__stack+0xd0d>
    1560:	9b 87       	std	Y+11, r25	; 0x0b
    1562:	8a 87       	std	Y+10, r24	; 0x0a
    1564:	1e 86       	std	Y+14, r1	; 0x0e
    1566:	1f 86       	std	Y+15, r1	; 0x0f
    1568:	18 8a       	std	Y+16, r1	; 0x10
    156a:	19 8a       	std	Y+17, r1	; 0x11
    156c:	4a 85       	ldd	r20, Y+10	; 0x0a
    156e:	5b 85       	ldd	r21, Y+11	; 0x0b
    1570:	c8 01       	movw	r24, r16
    1572:	66 eb       	ldi	r22, 0xB6	; 182
    1574:	73 e0       	ldi	r23, 0x03	; 3
    1576:	9e 01       	movw	r18, r28
    1578:	28 5f       	subi	r18, 0xF8	; 248
    157a:	3f 4f       	sbci	r19, 0xFF	; 255
    157c:	0e 94 c8 2f 	call	0x5f90	; 0x5f90 <f_read>
    1580:	88 23       	and	r24, r24
    1582:	19 f0       	breq	.+6      	; 0x158a <__stack+0xd2b>
    1584:	0e 94 90 02 	call	0x520	; 0x520 <put_rc>
    1588:	1f c0       	rjmp	.+62     	; 0x15c8 <__stack+0xd69>
    158a:	68 85       	ldd	r22, Y+8	; 0x08
    158c:	79 85       	ldd	r23, Y+9	; 0x09
    158e:	9b 01       	movw	r18, r22
    1590:	40 e0       	ldi	r20, 0x00	; 0
    1592:	50 e0       	ldi	r21, 0x00	; 0
    1594:	8a 89       	ldd	r24, Y+18	; 0x12
    1596:	9b 89       	ldd	r25, Y+19	; 0x13
    1598:	ac 89       	ldd	r26, Y+20	; 0x14
    159a:	bd 89       	ldd	r27, Y+21	; 0x15
    159c:	82 0f       	add	r24, r18
    159e:	93 1f       	adc	r25, r19
    15a0:	a4 1f       	adc	r26, r20
    15a2:	b5 1f       	adc	r27, r21
    15a4:	8a 8b       	std	Y+18, r24	; 0x12
    15a6:	9b 8b       	std	Y+19, r25	; 0x13
    15a8:	ac 8b       	std	Y+20, r26	; 0x14
    15aa:	bd 8b       	std	Y+21, r27	; 0x15
    15ac:	8a 85       	ldd	r24, Y+10	; 0x0a
    15ae:	9b 85       	ldd	r25, Y+11	; 0x0b
    15b0:	86 17       	cp	r24, r22
    15b2:	97 07       	cpc	r25, r23
    15b4:	49 f4       	brne	.+18     	; 0x15c8 <__stack+0xd69>
    15b6:	8e 85       	ldd	r24, Y+14	; 0x0e
    15b8:	9f 85       	ldd	r25, Y+15	; 0x0f
    15ba:	a8 89       	ldd	r26, Y+16	; 0x10
    15bc:	b9 89       	ldd	r27, Y+17	; 0x11
    15be:	00 97       	sbiw	r24, 0x00	; 0
    15c0:	a1 05       	cpc	r26, r1
    15c2:	b1 05       	cpc	r27, r1
    15c4:	09 f0       	breq	.+2      	; 0x15c8 <__stack+0xd69>
    15c6:	bb cf       	rjmp	.-138    	; 0x153e <__stack+0xcdf>
    15c8:	00 91 b4 03 	lds	r16, 0x03B4
    15cc:	10 91 b5 03 	lds	r17, 0x03B5
    15d0:	19 87       	std	Y+9, r17	; 0x09
    15d2:	08 87       	std	Y+8, r16	; 0x08
    15d4:	ca 88       	ldd	r12, Y+18	; 0x12
    15d6:	db 88       	ldd	r13, Y+19	; 0x13
    15d8:	ec 88       	ldd	r14, Y+20	; 0x14
    15da:	fd 88       	ldd	r15, Y+21	; 0x15
    15dc:	01 15       	cp	r16, r1
    15de:	11 05       	cpc	r17, r1
    15e0:	29 f4       	brne	.+10     	; 0x15ec <__stack+0xd8d>
    15e2:	20 e0       	ldi	r18, 0x00	; 0
    15e4:	30 e0       	ldi	r19, 0x00	; 0
    15e6:	40 e0       	ldi	r20, 0x00	; 0
    15e8:	50 e0       	ldi	r21, 0x00	; 0
    15ea:	11 c0       	rjmp	.+34     	; 0x160e <__stack+0xdaf>
    15ec:	c7 01       	movw	r24, r14
    15ee:	b6 01       	movw	r22, r12
    15f0:	24 e6       	ldi	r18, 0x64	; 100
    15f2:	30 e0       	ldi	r19, 0x00	; 0
    15f4:	40 e0       	ldi	r20, 0x00	; 0
    15f6:	50 e0       	ldi	r21, 0x00	; 0
    15f8:	0e 94 cf 35 	call	0x6b9e	; 0x6b9e <__mulsi3>
    15fc:	98 01       	movw	r18, r16
    15fe:	40 e0       	ldi	r20, 0x00	; 0
    1600:	50 e0       	ldi	r21, 0x00	; 0
    1602:	0e 94 10 36 	call	0x6c20	; 0x6c20 <__divmodsi4>
    1606:	c9 01       	movw	r24, r18
    1608:	da 01       	movw	r26, r20
    160a:	9c 01       	movw	r18, r24
    160c:	ad 01       	movw	r20, r26
    160e:	8d b7       	in	r24, 0x3d	; 61
    1610:	9e b7       	in	r25, 0x3e	; 62
    1612:	0a 97       	sbiw	r24, 0x0a	; 10
    1614:	0f b6       	in	r0, 0x3f	; 63
    1616:	f8 94       	cli
    1618:	9e bf       	out	0x3e, r25	; 62
    161a:	0f be       	out	0x3f, r0	; 63
    161c:	8d bf       	out	0x3d, r24	; 61
    161e:	ed b7       	in	r30, 0x3d	; 61
    1620:	fe b7       	in	r31, 0x3e	; 62
    1622:	31 96       	adiw	r30, 0x01	; 1
    1624:	85 e3       	ldi	r24, 0x35	; 53
    1626:	91 e0       	ldi	r25, 0x01	; 1
    1628:	ad b7       	in	r26, 0x3d	; 61
    162a:	be b7       	in	r27, 0x3e	; 62
    162c:	12 96       	adiw	r26, 0x02	; 2
    162e:	9c 93       	st	X, r25
    1630:	8e 93       	st	-X, r24
    1632:	11 97       	sbiw	r26, 0x01	; 1
    1634:	c2 82       	std	Z+2, r12	; 0x02
    1636:	d3 82       	std	Z+3, r13	; 0x03
    1638:	e4 82       	std	Z+4, r14	; 0x04
    163a:	f5 82       	std	Z+5, r15	; 0x05
    163c:	26 83       	std	Z+6, r18	; 0x06
    163e:	37 83       	std	Z+7, r19	; 0x07
    1640:	40 87       	std	Z+8, r20	; 0x08
    1642:	51 87       	std	Z+9, r21	; 0x09
    1644:	0e 94 36 10 	call	0x206c	; 0x206c <xprintf>
    1648:	ed b7       	in	r30, 0x3d	; 61
    164a:	fe b7       	in	r31, 0x3e	; 62
    164c:	3a 96       	adiw	r30, 0x0a	; 10
    164e:	04 cf       	rjmp	.-504    	; 0x1458 <__stack+0xbf9>
    1650:	ce 01       	movw	r24, r28
    1652:	02 96       	adiw	r24, 0x02	; 2
    1654:	be 01       	movw	r22, r28
    1656:	62 5f       	subi	r22, 0xF2	; 242
    1658:	7f 4f       	sbci	r23, 0xFF	; 255
    165a:	0e 94 94 10 	call	0x2128	; 0x2128 <xatoi>
    165e:	88 23       	and	r24, r24
    1660:	09 f4       	brne	.+2      	; 0x1664 <__stack+0xe05>
    1662:	39 c9       	rjmp	.-3470   	; 0x8d6 <__stack+0x77>
    1664:	ee a8       	ldd	r14, Y+54	; 0x36
    1666:	ff a8       	ldd	r15, Y+55	; 0x37
    1668:	08 ad       	ldd	r16, Y+56	; 0x38
    166a:	19 ad       	ldd	r17, Y+57	; 0x39
    166c:	60 e1       	ldi	r22, 0x10	; 16
    166e:	86 2e       	mov	r8, r22
    1670:	91 2c       	mov	r9, r1
    1672:	50 e3       	ldi	r21, 0x30	; 48
    1674:	a5 2e       	mov	r10, r21
    1676:	b1 2c       	mov	r11, r1
    1678:	ac 0e       	add	r10, r28
    167a:	bd 1e       	adc	r11, r29
    167c:	4a e0       	ldi	r20, 0x0A	; 10
    167e:	c4 2e       	mov	r12, r20
    1680:	d1 2c       	mov	r13, r1
    1682:	cc 0e       	add	r12, r28
    1684:	dd 1e       	adc	r13, r29
    1686:	34 c0       	rjmp	.+104    	; 0x16f0 <__stack+0xe91>
    1688:	80 31       	cpi	r24, 0x10	; 16
    168a:	91 05       	cpc	r25, r1
    168c:	a1 05       	cpc	r26, r1
    168e:	b1 05       	cpc	r27, r1
    1690:	54 f0       	brlt	.+20     	; 0x16a6 <__stack+0xe47>
    1692:	9b 86       	std	Y+11, r9	; 0x0b
    1694:	8a 86       	std	Y+10, r8	; 0x0a
    1696:	40 97       	sbiw	r24, 0x10	; 16
    1698:	a1 09       	sbc	r26, r1
    169a:	b1 09       	sbc	r27, r1
    169c:	8e 87       	std	Y+14, r24	; 0x0e
    169e:	9f 87       	std	Y+15, r25	; 0x0f
    16a0:	a8 8b       	std	Y+16, r26	; 0x10
    16a2:	b9 8b       	std	Y+17, r27	; 0x11
    16a4:	06 c0       	rjmp	.+12     	; 0x16b2 <__stack+0xe53>
    16a6:	9b 87       	std	Y+11, r25	; 0x0b
    16a8:	8a 87       	std	Y+10, r24	; 0x0a
    16aa:	1e 86       	std	Y+14, r1	; 0x0e
    16ac:	1f 86       	std	Y+15, r1	; 0x0f
    16ae:	18 8a       	std	Y+16, r1	; 0x10
    16b0:	19 8a       	std	Y+17, r1	; 0x11
    16b2:	4a 85       	ldd	r20, Y+10	; 0x0a
    16b4:	5b 85       	ldd	r21, Y+11	; 0x0b
    16b6:	c5 01       	movw	r24, r10
    16b8:	66 eb       	ldi	r22, 0xB6	; 182
    16ba:	73 e0       	ldi	r23, 0x03	; 3
    16bc:	96 01       	movw	r18, r12
    16be:	0e 94 c8 2f 	call	0x5f90	; 0x5f90 <f_read>
    16c2:	88 23       	and	r24, r24
    16c4:	09 f0       	breq	.+2      	; 0x16c8 <__stack+0xe69>
    16c6:	31 c3       	rjmp	.+1634   	; 0x1d2a <__stack+0x14cb>
    16c8:	2a 85       	ldd	r18, Y+10	; 0x0a
    16ca:	3b 85       	ldd	r19, Y+11	; 0x0b
    16cc:	21 15       	cp	r18, r1
    16ce:	31 05       	cpc	r19, r1
    16d0:	09 f4       	brne	.+2      	; 0x16d4 <__stack+0xe75>
    16d2:	01 c9       	rjmp	.-3582   	; 0x8d6 <__stack+0x77>
    16d4:	86 eb       	ldi	r24, 0xB6	; 182
    16d6:	93 e0       	ldi	r25, 0x03	; 3
    16d8:	b8 01       	movw	r22, r16
    16da:	a7 01       	movw	r20, r14
    16dc:	0e 94 bf 02 	call	0x57e	; 0x57e <put_dump>
    16e0:	80 e1       	ldi	r24, 0x10	; 16
    16e2:	90 e0       	ldi	r25, 0x00	; 0
    16e4:	a0 e0       	ldi	r26, 0x00	; 0
    16e6:	b0 e0       	ldi	r27, 0x00	; 0
    16e8:	e8 0e       	add	r14, r24
    16ea:	f9 1e       	adc	r15, r25
    16ec:	0a 1f       	adc	r16, r26
    16ee:	1b 1f       	adc	r17, r27
    16f0:	8e 85       	ldd	r24, Y+14	; 0x0e
    16f2:	9f 85       	ldd	r25, Y+15	; 0x0f
    16f4:	a8 89       	ldd	r26, Y+16	; 0x10
    16f6:	b9 89       	ldd	r27, Y+17	; 0x11
    16f8:	00 97       	sbiw	r24, 0x00	; 0
    16fa:	a1 05       	cpc	r26, r1
    16fc:	b1 05       	cpc	r27, r1
    16fe:	21 f6       	brne	.-120    	; 0x1688 <__stack+0xe29>
    1700:	ea c8       	rjmp	.-3628   	; 0x8d6 <__stack+0x77>
    1702:	8e 01       	movw	r16, r28
    1704:	0e 5f       	subi	r16, 0xFE	; 254
    1706:	1f 4f       	sbci	r17, 0xFF	; 255
    1708:	c8 01       	movw	r24, r16
    170a:	be 01       	movw	r22, r28
    170c:	62 5f       	subi	r22, 0xF2	; 242
    170e:	7f 4f       	sbci	r23, 0xFF	; 255
    1710:	0e 94 94 10 	call	0x2128	; 0x2128 <xatoi>
    1714:	88 23       	and	r24, r24
    1716:	09 f4       	brne	.+2      	; 0x171a <__stack+0xebb>
    1718:	de c8       	rjmp	.-3652   	; 0x8d6 <__stack+0x77>
    171a:	c8 01       	movw	r24, r16
    171c:	be 01       	movw	r22, r28
    171e:	6e 5e       	subi	r22, 0xEE	; 238
    1720:	7f 4f       	sbci	r23, 0xFF	; 255
    1722:	0e 94 94 10 	call	0x2128	; 0x2128 <xatoi>
    1726:	88 23       	and	r24, r24
    1728:	09 f4       	brne	.+2      	; 0x172c <__stack+0xecd>
    172a:	d5 c8       	rjmp	.-3670   	; 0x8d6 <__stack+0x77>
    172c:	6a 89       	ldd	r22, Y+18	; 0x12
    172e:	86 eb       	ldi	r24, 0xB6	; 182
    1730:	93 e0       	ldi	r25, 0x03	; 3
    1732:	70 e0       	ldi	r23, 0x00	; 0
    1734:	40 e0       	ldi	r20, 0x00	; 0
    1736:	51 e0       	ldi	r21, 0x01	; 1
    1738:	0e 94 2b 36 	call	0x6c56	; 0x6c56 <memset>
    173c:	1a 8a       	std	Y+18, r1	; 0x12
    173e:	1b 8a       	std	Y+19, r1	; 0x13
    1740:	1c 8a       	std	Y+20, r1	; 0x14
    1742:	1d 8a       	std	Y+21, r1	; 0x15
    1744:	10 92 b5 03 	sts	0x03B5, r1
    1748:	10 92 b4 03 	sts	0x03B4, r1
    174c:	e1 2c       	mov	r14, r1
    174e:	31 e0       	ldi	r19, 0x01	; 1
    1750:	f3 2e       	mov	r15, r19
    1752:	8e 01       	movw	r16, r28
    1754:	00 5d       	subi	r16, 0xD0	; 208
    1756:	1f 4f       	sbci	r17, 0xFF	; 255
    1758:	3c c0       	rjmp	.+120    	; 0x17d2 <__stack+0xf73>
    175a:	8f 3f       	cpi	r24, 0xFF	; 255
    175c:	91 05       	cpc	r25, r1
    175e:	a1 05       	cpc	r26, r1
    1760:	b1 05       	cpc	r27, r1
    1762:	61 f0       	breq	.+24     	; 0x177c <__stack+0xf1d>
    1764:	5c f0       	brlt	.+22     	; 0x177c <__stack+0xf1d>
    1766:	fb 86       	std	Y+11, r15	; 0x0b
    1768:	ea 86       	std	Y+10, r14	; 0x0a
    176a:	80 50       	subi	r24, 0x00	; 0
    176c:	91 40       	sbci	r25, 0x01	; 1
    176e:	a0 40       	sbci	r26, 0x00	; 0
    1770:	b0 40       	sbci	r27, 0x00	; 0
    1772:	8e 87       	std	Y+14, r24	; 0x0e
    1774:	9f 87       	std	Y+15, r25	; 0x0f
    1776:	a8 8b       	std	Y+16, r26	; 0x10
    1778:	b9 8b       	std	Y+17, r27	; 0x11
    177a:	06 c0       	rjmp	.+12     	; 0x1788 <__stack+0xf29>
    177c:	9b 87       	std	Y+11, r25	; 0x0b
    177e:	8a 87       	std	Y+10, r24	; 0x0a
    1780:	1e 86       	std	Y+14, r1	; 0x0e
    1782:	1f 86       	std	Y+15, r1	; 0x0f
    1784:	18 8a       	std	Y+16, r1	; 0x10
    1786:	19 8a       	std	Y+17, r1	; 0x11
    1788:	4a 85       	ldd	r20, Y+10	; 0x0a
    178a:	5b 85       	ldd	r21, Y+11	; 0x0b
    178c:	c8 01       	movw	r24, r16
    178e:	66 eb       	ldi	r22, 0xB6	; 182
    1790:	73 e0       	ldi	r23, 0x03	; 3
    1792:	9e 01       	movw	r18, r28
    1794:	28 5f       	subi	r18, 0xF8	; 248
    1796:	3f 4f       	sbci	r19, 0xFF	; 255
    1798:	0e 94 fb 29 	call	0x53f6	; 0x53f6 <f_write>
    179c:	88 23       	and	r24, r24
    179e:	19 f0       	breq	.+6      	; 0x17a6 <__stack+0xf47>
    17a0:	0e 94 90 02 	call	0x520	; 0x520 <put_rc>
    17a4:	1f c0       	rjmp	.+62     	; 0x17e4 <__stack+0xf85>
    17a6:	68 85       	ldd	r22, Y+8	; 0x08
    17a8:	79 85       	ldd	r23, Y+9	; 0x09
    17aa:	9b 01       	movw	r18, r22
    17ac:	40 e0       	ldi	r20, 0x00	; 0
    17ae:	50 e0       	ldi	r21, 0x00	; 0
    17b0:	8a 89       	ldd	r24, Y+18	; 0x12
    17b2:	9b 89       	ldd	r25, Y+19	; 0x13
    17b4:	ac 89       	ldd	r26, Y+20	; 0x14
    17b6:	bd 89       	ldd	r27, Y+21	; 0x15
    17b8:	82 0f       	add	r24, r18
    17ba:	93 1f       	adc	r25, r19
    17bc:	a4 1f       	adc	r26, r20
    17be:	b5 1f       	adc	r27, r21
    17c0:	8a 8b       	std	Y+18, r24	; 0x12
    17c2:	9b 8b       	std	Y+19, r25	; 0x13
    17c4:	ac 8b       	std	Y+20, r26	; 0x14
    17c6:	bd 8b       	std	Y+21, r27	; 0x15
    17c8:	8a 85       	ldd	r24, Y+10	; 0x0a
    17ca:	9b 85       	ldd	r25, Y+11	; 0x0b
    17cc:	86 17       	cp	r24, r22
    17ce:	97 07       	cpc	r25, r23
    17d0:	49 f4       	brne	.+18     	; 0x17e4 <__stack+0xf85>
    17d2:	8e 85       	ldd	r24, Y+14	; 0x0e
    17d4:	9f 85       	ldd	r25, Y+15	; 0x0f
    17d6:	a8 89       	ldd	r26, Y+16	; 0x10
    17d8:	b9 89       	ldd	r27, Y+17	; 0x11
    17da:	00 97       	sbiw	r24, 0x00	; 0
    17dc:	a1 05       	cpc	r26, r1
    17de:	b1 05       	cpc	r27, r1
    17e0:	09 f0       	breq	.+2      	; 0x17e4 <__stack+0xf85>
    17e2:	bb cf       	rjmp	.-138    	; 0x175a <__stack+0xefb>
    17e4:	00 91 b4 03 	lds	r16, 0x03B4
    17e8:	10 91 b5 03 	lds	r17, 0x03B5
    17ec:	19 87       	std	Y+9, r17	; 0x09
    17ee:	08 87       	std	Y+8, r16	; 0x08
    17f0:	ca 88       	ldd	r12, Y+18	; 0x12
    17f2:	db 88       	ldd	r13, Y+19	; 0x13
    17f4:	ec 88       	ldd	r14, Y+20	; 0x14
    17f6:	fd 88       	ldd	r15, Y+21	; 0x15
    17f8:	01 15       	cp	r16, r1
    17fa:	11 05       	cpc	r17, r1
    17fc:	29 f4       	brne	.+10     	; 0x1808 <__stack+0xfa9>
    17fe:	80 e0       	ldi	r24, 0x00	; 0
    1800:	90 e0       	ldi	r25, 0x00	; 0
    1802:	a0 e0       	ldi	r26, 0x00	; 0
    1804:	b0 e0       	ldi	r27, 0x00	; 0
    1806:	0f c0       	rjmp	.+30     	; 0x1826 <__stack+0xfc7>
    1808:	c7 01       	movw	r24, r14
    180a:	b6 01       	movw	r22, r12
    180c:	24 e6       	ldi	r18, 0x64	; 100
    180e:	30 e0       	ldi	r19, 0x00	; 0
    1810:	40 e0       	ldi	r20, 0x00	; 0
    1812:	50 e0       	ldi	r21, 0x00	; 0
    1814:	0e 94 cf 35 	call	0x6b9e	; 0x6b9e <__mulsi3>
    1818:	98 01       	movw	r18, r16
    181a:	40 e0       	ldi	r20, 0x00	; 0
    181c:	50 e0       	ldi	r21, 0x00	; 0
    181e:	0e 94 10 36 	call	0x6c20	; 0x6c20 <__divmodsi4>
    1822:	c9 01       	movw	r24, r18
    1824:	da 01       	movw	r26, r20
    1826:	ed b7       	in	r30, 0x3d	; 61
    1828:	fe b7       	in	r31, 0x3e	; 62
    182a:	3a 97       	sbiw	r30, 0x0a	; 10
    182c:	0f b6       	in	r0, 0x3f	; 63
    182e:	f8 94       	cli
    1830:	fe bf       	out	0x3e, r31	; 62
    1832:	0f be       	out	0x3f, r0	; 63
    1834:	ed bf       	out	0x3d, r30	; 61
    1836:	4d b7       	in	r20, 0x3d	; 61
    1838:	5e b7       	in	r21, 0x3e	; 62
    183a:	4f 5f       	subi	r20, 0xFF	; 255
    183c:	5f 4f       	sbci	r21, 0xFF	; 255
    183e:	2e e0       	ldi	r18, 0x0E	; 14
    1840:	a2 2e       	mov	r10, r18
    1842:	21 e0       	ldi	r18, 0x01	; 1
    1844:	b2 2e       	mov	r11, r18
    1846:	b2 82       	std	Z+2, r11	; 0x02
    1848:	a1 82       	std	Z+1, r10	; 0x01
    184a:	fa 01       	movw	r30, r20
    184c:	c2 82       	std	Z+2, r12	; 0x02
    184e:	d3 82       	std	Z+3, r13	; 0x03
    1850:	e4 82       	std	Z+4, r14	; 0x04
    1852:	f5 82       	std	Z+5, r15	; 0x05
    1854:	86 83       	std	Z+6, r24	; 0x06
    1856:	97 83       	std	Z+7, r25	; 0x07
    1858:	a0 87       	std	Z+8, r26	; 0x08
    185a:	b1 87       	std	Z+9, r27	; 0x09
    185c:	0e 94 36 10 	call	0x206c	; 0x206c <xprintf>
    1860:	2d b7       	in	r18, 0x3d	; 61
    1862:	3e b7       	in	r19, 0x3e	; 62
    1864:	26 5f       	subi	r18, 0xF6	; 246
    1866:	3f 4f       	sbci	r19, 0xFF	; 255
    1868:	0f b6       	in	r0, 0x3f	; 63
    186a:	f8 94       	cli
    186c:	3e bf       	out	0x3e, r19	; 62
    186e:	0f be       	out	0x3f, r0	; 63
    1870:	2d bf       	out	0x3d, r18	; 61
    1872:	31 c8       	rjmp	.-3998   	; 0x8d6 <__stack+0x77>
    1874:	ce 01       	movw	r24, r28
    1876:	c0 96       	adiw	r24, 0x30	; 48
    1878:	0e 94 f4 1e 	call	0x3de8	; 0x3de8 <f_truncate>
    187c:	56 c2       	rjmp	.+1196   	; 0x1d2a <__stack+0x14cb>
    187e:	31 96       	adiw	r30, 0x01	; 1
    1880:	fb 83       	std	Y+3, r31	; 0x03
    1882:	ea 83       	std	Y+2, r30	; 0x02
    1884:	ea 81       	ldd	r30, Y+2	; 0x02
    1886:	fb 81       	ldd	r31, Y+3	; 0x03
    1888:	80 81       	ld	r24, Z
    188a:	80 32       	cpi	r24, 0x20	; 32
    188c:	c1 f3       	breq	.-16     	; 0x187e <__stack+0x101f>
    188e:	cf 01       	movw	r24, r30
    1890:	60 e2       	ldi	r22, 0x20	; 32
    1892:	70 e0       	ldi	r23, 0x00	; 0
    1894:	0e 94 32 36 	call	0x6c64	; 0x6c64 <strchr>
    1898:	00 97       	sbiw	r24, 0x00	; 0
    189a:	09 f4       	brne	.+2      	; 0x189e <__stack+0x103f>
    189c:	1c c8       	rjmp	.-4040   	; 0x8d6 <__stack+0x77>
    189e:	fc 01       	movw	r30, r24
    18a0:	11 92       	st	Z+, r1
    18a2:	01 c0       	rjmp	.+2      	; 0x18a6 <__stack+0x1047>
    18a4:	31 96       	adiw	r30, 0x01	; 1
    18a6:	80 81       	ld	r24, Z
    18a8:	80 32       	cpi	r24, 0x20	; 32
    18aa:	e1 f3       	breq	.-8      	; 0x18a4 <__stack+0x1045>
    18ac:	8a 81       	ldd	r24, Y+2	; 0x02
    18ae:	9b 81       	ldd	r25, Y+3	; 0x03
    18b0:	bf 01       	movw	r22, r30
    18b2:	0e 94 82 26 	call	0x4d04	; 0x4d04 <f_rename>
    18b6:	39 c2       	rjmp	.+1138   	; 0x1d2a <__stack+0x14cb>
    18b8:	31 96       	adiw	r30, 0x01	; 1
    18ba:	fb 83       	std	Y+3, r31	; 0x03
    18bc:	ea 83       	std	Y+2, r30	; 0x02
    18be:	ea 81       	ldd	r30, Y+2	; 0x02
    18c0:	fb 81       	ldd	r31, Y+3	; 0x03
    18c2:	80 81       	ld	r24, Z
    18c4:	80 32       	cpi	r24, 0x20	; 32
    18c6:	c1 f3       	breq	.-16     	; 0x18b8 <__stack+0x1059>
    18c8:	cf 01       	movw	r24, r30
    18ca:	0e 94 47 29 	call	0x528e	; 0x528e <f_unlink>
    18ce:	2d c2       	rjmp	.+1114   	; 0x1d2a <__stack+0x14cb>
    18d0:	31 96       	adiw	r30, 0x01	; 1
    18d2:	fb 83       	std	Y+3, r31	; 0x03
    18d4:	ea 83       	std	Y+2, r30	; 0x02
    18d6:	ea 81       	ldd	r30, Y+2	; 0x02
    18d8:	fb 81       	ldd	r31, Y+3	; 0x03
    18da:	80 81       	ld	r24, Z
    18dc:	80 32       	cpi	r24, 0x20	; 32
    18de:	c1 f3       	breq	.-16     	; 0x18d0 <__stack+0x1071>
    18e0:	cf 01       	movw	r24, r30
    18e2:	0e 94 31 2c 	call	0x5862	; 0x5862 <f_mkdir>
    18e6:	21 c2       	rjmp	.+1090   	; 0x1d2a <__stack+0x14cb>
    18e8:	8e 01       	movw	r16, r28
    18ea:	0e 5f       	subi	r16, 0xFE	; 254
    18ec:	1f 4f       	sbci	r17, 0xFF	; 255
    18ee:	c8 01       	movw	r24, r16
    18f0:	be 01       	movw	r22, r28
    18f2:	62 5f       	subi	r22, 0xF2	; 242
    18f4:	7f 4f       	sbci	r23, 0xFF	; 255
    18f6:	0e 94 94 10 	call	0x2128	; 0x2128 <xatoi>
    18fa:	88 23       	and	r24, r24
    18fc:	11 f4       	brne	.+4      	; 0x1902 <__stack+0x10a3>
    18fe:	0c 94 6b 04 	jmp	0x8d6	; 0x8d6 <__stack+0x77>
    1902:	c8 01       	movw	r24, r16
    1904:	be 01       	movw	r22, r28
    1906:	6e 5e       	subi	r22, 0xEE	; 238
    1908:	7f 4f       	sbci	r23, 0xFF	; 255
    190a:	0e 94 94 10 	call	0x2128	; 0x2128 <xatoi>
    190e:	88 23       	and	r24, r24
    1910:	11 f4       	brne	.+4      	; 0x1916 <__stack+0x10b7>
    1912:	0c 94 6b 04 	jmp	0x8d6	; 0x8d6 <__stack+0x77>
    1916:	03 c0       	rjmp	.+6      	; 0x191e <__stack+0x10bf>
    1918:	31 96       	adiw	r30, 0x01	; 1
    191a:	fb 83       	std	Y+3, r31	; 0x03
    191c:	ea 83       	std	Y+2, r30	; 0x02
    191e:	ea 81       	ldd	r30, Y+2	; 0x02
    1920:	fb 81       	ldd	r31, Y+3	; 0x03
    1922:	80 81       	ld	r24, Z
    1924:	80 32       	cpi	r24, 0x20	; 32
    1926:	c1 f3       	breq	.-16     	; 0x1918 <__stack+0x10b9>
    1928:	cf 01       	movw	r24, r30
    192a:	6e 85       	ldd	r22, Y+14	; 0x0e
    192c:	4a 89       	ldd	r20, Y+18	; 0x12
    192e:	0e 94 e0 24 	call	0x49c0	; 0x49c0 <f_chmod>
    1932:	fb c1       	rjmp	.+1014   	; 0x1d2a <__stack+0x14cb>
    1934:	8e 01       	movw	r16, r28
    1936:	0e 5f       	subi	r16, 0xFE	; 254
    1938:	1f 4f       	sbci	r17, 0xFF	; 255
    193a:	8e e0       	ldi	r24, 0x0E	; 14
    193c:	a8 2e       	mov	r10, r24
    193e:	b1 2c       	mov	r11, r1
    1940:	ac 0e       	add	r10, r28
    1942:	bd 1e       	adc	r11, r29
    1944:	c8 01       	movw	r24, r16
    1946:	b5 01       	movw	r22, r10
    1948:	0e 94 94 10 	call	0x2128	; 0x2128 <xatoi>
    194c:	88 23       	and	r24, r24
    194e:	11 f4       	brne	.+4      	; 0x1954 <__stack+0x10f5>
    1950:	0c 94 6b 04 	jmp	0x8d6	; 0x8d6 <__stack+0x77>
    1954:	b2 e1       	ldi	r27, 0x12	; 18
    1956:	cb 2e       	mov	r12, r27
    1958:	d1 2c       	mov	r13, r1
    195a:	cc 0e       	add	r12, r28
    195c:	dd 1e       	adc	r13, r29
    195e:	c8 01       	movw	r24, r16
    1960:	b6 01       	movw	r22, r12
    1962:	0e 94 94 10 	call	0x2128	; 0x2128 <xatoi>
    1966:	88 23       	and	r24, r24
    1968:	11 f4       	brne	.+4      	; 0x196e <__stack+0x110f>
    196a:	0c 94 6b 04 	jmp	0x8d6	; 0x8d6 <__stack+0x77>
    196e:	a6 e1       	ldi	r26, 0x16	; 22
    1970:	ea 2e       	mov	r14, r26
    1972:	f1 2c       	mov	r15, r1
    1974:	ec 0e       	add	r14, r28
    1976:	fd 1e       	adc	r15, r29
    1978:	c8 01       	movw	r24, r16
    197a:	b7 01       	movw	r22, r14
    197c:	0e 94 94 10 	call	0x2128	; 0x2128 <xatoi>
    1980:	88 23       	and	r24, r24
    1982:	11 f4       	brne	.+4      	; 0x1988 <__stack+0x1129>
    1984:	0c 94 6b 04 	jmp	0x8d6	; 0x8d6 <__stack+0x77>
    1988:	8e 85       	ldd	r24, Y+14	; 0x0e
    198a:	9f 85       	ldd	r25, Y+15	; 0x0f
    198c:	a8 89       	ldd	r26, Y+16	; 0x10
    198e:	b9 89       	ldd	r27, Y+17	; 0x11
    1990:	8c 5b       	subi	r24, 0xBC	; 188
    1992:	97 40       	sbci	r25, 0x07	; 7
    1994:	a0 40       	sbci	r26, 0x00	; 0
    1996:	b0 40       	sbci	r27, 0x00	; 0
    1998:	f9 e0       	ldi	r31, 0x09	; 9
    199a:	88 0f       	add	r24, r24
    199c:	99 1f       	adc	r25, r25
    199e:	aa 1f       	adc	r26, r26
    19a0:	bb 1f       	adc	r27, r27
    19a2:	fa 95       	dec	r31
    19a4:	d1 f7       	brne	.-12     	; 0x199a <__stack+0x113b>
    19a6:	2a 89       	ldd	r18, Y+18	; 0x12
    19a8:	3b 89       	ldd	r19, Y+19	; 0x13
    19aa:	4c 89       	ldd	r20, Y+20	; 0x14
    19ac:	5d 89       	ldd	r21, Y+21	; 0x15
    19ae:	2f 70       	andi	r18, 0x0F	; 15
    19b0:	30 70       	andi	r19, 0x00	; 0
    19b2:	40 70       	andi	r20, 0x00	; 0
    19b4:	50 70       	andi	r21, 0x00	; 0
    19b6:	e5 e0       	ldi	r30, 0x05	; 5
    19b8:	22 0f       	add	r18, r18
    19ba:	33 1f       	adc	r19, r19
    19bc:	44 1f       	adc	r20, r20
    19be:	55 1f       	adc	r21, r21
    19c0:	ea 95       	dec	r30
    19c2:	d1 f7       	brne	.-12     	; 0x19b8 <__stack+0x1159>
    19c4:	82 2b       	or	r24, r18
    19c6:	93 2b       	or	r25, r19
    19c8:	2e 89       	ldd	r18, Y+22	; 0x16
    19ca:	3f 89       	ldd	r19, Y+23	; 0x17
    19cc:	2f 71       	andi	r18, 0x1F	; 31
    19ce:	30 70       	andi	r19, 0x00	; 0
    19d0:	82 2b       	or	r24, r18
    19d2:	93 2b       	or	r25, r19
    19d4:	90 93 9f 03 	sts	0x039F, r25
    19d8:	80 93 9e 03 	sts	0x039E, r24
    19dc:	c8 01       	movw	r24, r16
    19de:	b5 01       	movw	r22, r10
    19e0:	0e 94 94 10 	call	0x2128	; 0x2128 <xatoi>
    19e4:	88 23       	and	r24, r24
    19e6:	11 f4       	brne	.+4      	; 0x19ec <__stack+0x118d>
    19e8:	0c 94 6b 04 	jmp	0x8d6	; 0x8d6 <__stack+0x77>
    19ec:	c8 01       	movw	r24, r16
    19ee:	b6 01       	movw	r22, r12
    19f0:	0e 94 94 10 	call	0x2128	; 0x2128 <xatoi>
    19f4:	88 23       	and	r24, r24
    19f6:	11 f4       	brne	.+4      	; 0x19fc <__stack+0x119d>
    19f8:	0c 94 6b 04 	jmp	0x8d6	; 0x8d6 <__stack+0x77>
    19fc:	c8 01       	movw	r24, r16
    19fe:	b7 01       	movw	r22, r14
    1a00:	0e 94 94 10 	call	0x2128	; 0x2128 <xatoi>
    1a04:	88 23       	and	r24, r24
    1a06:	11 f4       	brne	.+4      	; 0x1a0c <__stack+0x11ad>
    1a08:	0c 94 6b 04 	jmp	0x8d6	; 0x8d6 <__stack+0x77>
    1a0c:	8a 89       	ldd	r24, Y+18	; 0x12
    1a0e:	9b 89       	ldd	r25, Y+19	; 0x13
    1a10:	ac 89       	ldd	r26, Y+20	; 0x14
    1a12:	bd 89       	ldd	r27, Y+21	; 0x15
    1a14:	8f 73       	andi	r24, 0x3F	; 63
    1a16:	90 70       	andi	r25, 0x00	; 0
    1a18:	a0 70       	andi	r26, 0x00	; 0
    1a1a:	b0 70       	andi	r27, 0x00	; 0
    1a1c:	75 e0       	ldi	r23, 0x05	; 5
    1a1e:	88 0f       	add	r24, r24
    1a20:	99 1f       	adc	r25, r25
    1a22:	aa 1f       	adc	r26, r26
    1a24:	bb 1f       	adc	r27, r27
    1a26:	7a 95       	dec	r23
    1a28:	d1 f7       	brne	.-12     	; 0x1a1e <__stack+0x11bf>
    1a2a:	2e 89       	ldd	r18, Y+22	; 0x16
    1a2c:	3f 89       	ldd	r19, Y+23	; 0x17
    1a2e:	48 8d       	ldd	r20, Y+24	; 0x18
    1a30:	59 8d       	ldd	r21, Y+25	; 0x19
    1a32:	55 95       	asr	r21
    1a34:	47 95       	ror	r20
    1a36:	37 95       	ror	r19
    1a38:	27 95       	ror	r18
    1a3a:	2f 71       	andi	r18, 0x1F	; 31
    1a3c:	30 70       	andi	r19, 0x00	; 0
    1a3e:	28 2b       	or	r18, r24
    1a40:	39 2b       	or	r19, r25
    1a42:	8e 85       	ldd	r24, Y+14	; 0x0e
    1a44:	9f 85       	ldd	r25, Y+15	; 0x0f
    1a46:	a8 89       	ldd	r26, Y+16	; 0x10
    1a48:	b9 89       	ldd	r27, Y+17	; 0x11
    1a4a:	4b e0       	ldi	r20, 0x0B	; 11
    1a4c:	88 0f       	add	r24, r24
    1a4e:	99 1f       	adc	r25, r25
    1a50:	aa 1f       	adc	r26, r26
    1a52:	bb 1f       	adc	r27, r27
    1a54:	4a 95       	dec	r20
    1a56:	d1 f7       	brne	.-12     	; 0x1a4c <__stack+0x11ed>
    1a58:	28 2b       	or	r18, r24
    1a5a:	39 2b       	or	r19, r25
    1a5c:	30 93 a1 03 	sts	0x03A1, r19
    1a60:	20 93 a0 03 	sts	0x03A0, r18
    1a64:	03 c0       	rjmp	.+6      	; 0x1a6c <__stack+0x120d>
    1a66:	31 96       	adiw	r30, 0x01	; 1
    1a68:	fb 83       	std	Y+3, r31	; 0x03
    1a6a:	ea 83       	std	Y+2, r30	; 0x02
    1a6c:	ea 81       	ldd	r30, Y+2	; 0x02
    1a6e:	fb 81       	ldd	r31, Y+3	; 0x03
    1a70:	80 81       	ld	r24, Z
    1a72:	80 32       	cpi	r24, 0x20	; 32
    1a74:	c1 f3       	breq	.-16     	; 0x1a66 <__stack+0x1207>
    1a76:	cf 01       	movw	r24, r30
    1a78:	6a e9       	ldi	r22, 0x9A	; 154
    1a7a:	73 e0       	ldi	r23, 0x03	; 3
    1a7c:	0e 94 8d 24 	call	0x491a	; 0x491a <f_utime>
    1a80:	54 c1       	rjmp	.+680    	; 0x1d2a <__stack+0x14cb>
    1a82:	31 96       	adiw	r30, 0x01	; 1
    1a84:	fb 83       	std	Y+3, r31	; 0x03
    1a86:	ea 83       	std	Y+2, r30	; 0x02
    1a88:	ea 81       	ldd	r30, Y+2	; 0x02
    1a8a:	fb 81       	ldd	r31, Y+3	; 0x03
    1a8c:	80 81       	ld	r24, Z
    1a8e:	80 32       	cpi	r24, 0x20	; 32
    1a90:	c1 f3       	breq	.-16     	; 0x1a82 <__stack+0x1223>
    1a92:	cf 01       	movw	r24, r30
    1a94:	60 e2       	ldi	r22, 0x20	; 32
    1a96:	70 e0       	ldi	r23, 0x00	; 0
    1a98:	0e 94 32 36 	call	0x6c64	; 0x6c64 <strchr>
    1a9c:	00 97       	sbiw	r24, 0x00	; 0
    1a9e:	11 f4       	brne	.+4      	; 0x1aa4 <__stack+0x1245>
    1aa0:	0c 94 6b 04 	jmp	0x8d6	; 0x8d6 <__stack+0x77>
    1aa4:	dc 01       	movw	r26, r24
    1aa6:	1d 92       	st	X+, r1
    1aa8:	8d 01       	movw	r16, r26
    1aaa:	02 c0       	rjmp	.+4      	; 0x1ab0 <__stack+0x1251>
    1aac:	0f 5f       	subi	r16, 0xFF	; 255
    1aae:	1f 4f       	sbci	r17, 0xFF	; 255
    1ab0:	f8 01       	movw	r30, r16
    1ab2:	80 81       	ld	r24, Z
    1ab4:	80 32       	cpi	r24, 0x20	; 32
    1ab6:	d1 f3       	breq	.-12     	; 0x1aac <__stack+0x124d>
    1ab8:	00 d0       	rcall	.+0      	; 0x1aba <__stack+0x125b>
    1aba:	00 d0       	rcall	.+0      	; 0x1abc <__stack+0x125d>
    1abc:	e1 e0       	ldi	r30, 0x01	; 1
    1abe:	f1 e0       	ldi	r31, 0x01	; 1
    1ac0:	ad b7       	in	r26, 0x3d	; 61
    1ac2:	be b7       	in	r27, 0x3e	; 62
    1ac4:	12 96       	adiw	r26, 0x02	; 2
    1ac6:	fc 93       	st	X, r31
    1ac8:	ee 93       	st	-X, r30
    1aca:	11 97       	sbiw	r26, 0x01	; 1
    1acc:	8a 81       	ldd	r24, Y+2	; 0x02
    1ace:	9b 81       	ldd	r25, Y+3	; 0x03
    1ad0:	14 96       	adiw	r26, 0x04	; 4
    1ad2:	9c 93       	st	X, r25
    1ad4:	8e 93       	st	-X, r24
    1ad6:	13 97       	sbiw	r26, 0x03	; 3
    1ad8:	0e 94 36 10 	call	0x206c	; 0x206c <xprintf>
    1adc:	0f 90       	pop	r0
    1ade:	0f 90       	pop	r0
    1ae0:	0f 90       	pop	r0
    1ae2:	0f 90       	pop	r0
    1ae4:	30 e3       	ldi	r19, 0x30	; 48
    1ae6:	e3 2e       	mov	r14, r19
    1ae8:	f1 2c       	mov	r15, r1
    1aea:	ec 0e       	add	r14, r28
    1aec:	fd 1e       	adc	r15, r29
    1aee:	6a 81       	ldd	r22, Y+2	; 0x02
    1af0:	7b 81       	ldd	r23, Y+3	; 0x03
    1af2:	c7 01       	movw	r24, r14
    1af4:	41 e0       	ldi	r20, 0x01	; 1
    1af6:	0e 94 ac 2d 	call	0x5b58	; 0x5b58 <f_open>
    1afa:	88 23       	and	r24, r24
    1afc:	09 f0       	breq	.+2      	; 0x1b00 <__stack+0x12a1>
    1afe:	15 c1       	rjmp	.+554    	; 0x1d2a <__stack+0x14cb>
    1b00:	00 d0       	rcall	.+0      	; 0x1b02 <__stack+0x12a3>
    1b02:	00 d0       	rcall	.+0      	; 0x1b04 <__stack+0x12a5>
    1b04:	e2 ef       	ldi	r30, 0xF2	; 242
    1b06:	f0 e0       	ldi	r31, 0x00	; 0
    1b08:	ad b7       	in	r26, 0x3d	; 61
    1b0a:	be b7       	in	r27, 0x3e	; 62
    1b0c:	12 96       	adiw	r26, 0x02	; 2
    1b0e:	fc 93       	st	X, r31
    1b10:	ee 93       	st	-X, r30
    1b12:	11 97       	sbiw	r26, 0x01	; 1
    1b14:	14 96       	adiw	r26, 0x04	; 4
    1b16:	1c 93       	st	X, r17
    1b18:	0e 93       	st	-X, r16
    1b1a:	13 97       	sbiw	r26, 0x03	; 3
    1b1c:	0e 94 36 10 	call	0x206c	; 0x206c <xprintf>
    1b20:	0f 90       	pop	r0
    1b22:	0f 90       	pop	r0
    1b24:	0f 90       	pop	r0
    1b26:	0f 90       	pop	r0
    1b28:	ce 01       	movw	r24, r28
    1b2a:	80 5b       	subi	r24, 0xB0	; 176
    1b2c:	9f 4f       	sbci	r25, 0xFF	; 255
    1b2e:	b8 01       	movw	r22, r16
    1b30:	4a e0       	ldi	r20, 0x0A	; 10
    1b32:	0e 94 ac 2d 	call	0x5b58	; 0x5b58 <f_open>
    1b36:	88 23       	and	r24, r24
    1b38:	21 f0       	breq	.+8      	; 0x1b42 <__stack+0x12e3>
    1b3a:	0e 94 90 02 	call	0x520	; 0x520 <put_rc>
    1b3e:	c7 01       	movw	r24, r14
    1b40:	72 c0       	rjmp	.+228    	; 0x1c26 <__stack+0x13c7>
    1b42:	00 d0       	rcall	.+0      	; 0x1b44 <__stack+0x12e5>
    1b44:	e6 ee       	ldi	r30, 0xE6	; 230
    1b46:	f0 e0       	ldi	r31, 0x00	; 0
    1b48:	ad b7       	in	r26, 0x3d	; 61
    1b4a:	be b7       	in	r27, 0x3e	; 62
    1b4c:	12 96       	adiw	r26, 0x02	; 2
    1b4e:	fc 93       	st	X, r31
    1b50:	ee 93       	st	-X, r30
    1b52:	11 97       	sbiw	r26, 0x01	; 1
    1b54:	0e 94 36 10 	call	0x206c	; 0x206c <xprintf>
    1b58:	1e 86       	std	Y+14, r1	; 0x0e
    1b5a:	1f 86       	std	Y+15, r1	; 0x0f
    1b5c:	18 8a       	std	Y+16, r1	; 0x10
    1b5e:	19 8a       	std	Y+17, r1	; 0x11
    1b60:	0f 90       	pop	r0
    1b62:	0f 90       	pop	r0
    1b64:	87 01       	movw	r16, r14
    1b66:	c8 01       	movw	r24, r16
    1b68:	66 eb       	ldi	r22, 0xB6	; 182
    1b6a:	73 e0       	ldi	r23, 0x03	; 3
    1b6c:	40 e0       	ldi	r20, 0x00	; 0
    1b6e:	51 e0       	ldi	r21, 0x01	; 1
    1b70:	9e 01       	movw	r18, r28
    1b72:	2a 5f       	subi	r18, 0xFA	; 250
    1b74:	3f 4f       	sbci	r19, 0xFF	; 255
    1b76:	0e 94 c8 2f 	call	0x5f90	; 0x5f90 <f_read>
    1b7a:	68 2f       	mov	r22, r24
    1b7c:	88 23       	and	r24, r24
    1b7e:	49 f5       	brne	.+82     	; 0x1bd2 <__stack+0x1373>
    1b80:	4e 81       	ldd	r20, Y+6	; 0x06
    1b82:	5f 81       	ldd	r21, Y+7	; 0x07
    1b84:	41 15       	cp	r20, r1
    1b86:	51 05       	cpc	r21, r1
    1b88:	39 f1       	breq	.+78     	; 0x1bd8 <__stack+0x1379>
    1b8a:	ce 01       	movw	r24, r28
    1b8c:	80 5b       	subi	r24, 0xB0	; 176
    1b8e:	9f 4f       	sbci	r25, 0xFF	; 255
    1b90:	66 eb       	ldi	r22, 0xB6	; 182
    1b92:	73 e0       	ldi	r23, 0x03	; 3
    1b94:	9e 01       	movw	r18, r28
    1b96:	28 5f       	subi	r18, 0xF8	; 248
    1b98:	3f 4f       	sbci	r19, 0xFF	; 255
    1b9a:	0e 94 fb 29 	call	0x53f6	; 0x53f6 <f_write>
    1b9e:	68 2f       	mov	r22, r24
    1ba0:	e8 85       	ldd	r30, Y+8	; 0x08
    1ba2:	f9 85       	ldd	r31, Y+9	; 0x09
    1ba4:	9f 01       	movw	r18, r30
    1ba6:	40 e0       	ldi	r20, 0x00	; 0
    1ba8:	50 e0       	ldi	r21, 0x00	; 0
    1baa:	8e 85       	ldd	r24, Y+14	; 0x0e
    1bac:	9f 85       	ldd	r25, Y+15	; 0x0f
    1bae:	a8 89       	ldd	r26, Y+16	; 0x10
    1bb0:	b9 89       	ldd	r27, Y+17	; 0x11
    1bb2:	82 0f       	add	r24, r18
    1bb4:	93 1f       	adc	r25, r19
    1bb6:	a4 1f       	adc	r26, r20
    1bb8:	b5 1f       	adc	r27, r21
    1bba:	8e 87       	std	Y+14, r24	; 0x0e
    1bbc:	9f 87       	std	Y+15, r25	; 0x0f
    1bbe:	a8 8b       	std	Y+16, r26	; 0x10
    1bc0:	b9 8b       	std	Y+17, r27	; 0x11
    1bc2:	66 23       	and	r22, r22
    1bc4:	31 f4       	brne	.+12     	; 0x1bd2 <__stack+0x1373>
    1bc6:	8e 81       	ldd	r24, Y+6	; 0x06
    1bc8:	9f 81       	ldd	r25, Y+7	; 0x07
    1bca:	e8 17       	cp	r30, r24
    1bcc:	f9 07       	cpc	r31, r25
    1bce:	58 f6       	brcc	.-106    	; 0x1b66 <__stack+0x1307>
    1bd0:	03 c0       	rjmp	.+6      	; 0x1bd8 <__stack+0x1379>
    1bd2:	86 2f       	mov	r24, r22
    1bd4:	0e 94 90 02 	call	0x520	; 0x520 <put_rc>
    1bd8:	00 d0       	rcall	.+0      	; 0x1bda <__stack+0x137b>
    1bda:	00 d0       	rcall	.+0      	; 0x1bdc <__stack+0x137d>
    1bdc:	00 d0       	rcall	.+0      	; 0x1bde <__stack+0x137f>
    1bde:	e2 ed       	ldi	r30, 0xD2	; 210
    1be0:	f0 e0       	ldi	r31, 0x00	; 0
    1be2:	ad b7       	in	r26, 0x3d	; 61
    1be4:	be b7       	in	r27, 0x3e	; 62
    1be6:	12 96       	adiw	r26, 0x02	; 2
    1be8:	fc 93       	st	X, r31
    1bea:	ee 93       	st	-X, r30
    1bec:	11 97       	sbiw	r26, 0x01	; 1
    1bee:	8e 85       	ldd	r24, Y+14	; 0x0e
    1bf0:	9f 85       	ldd	r25, Y+15	; 0x0f
    1bf2:	a8 89       	ldd	r26, Y+16	; 0x10
    1bf4:	b9 89       	ldd	r27, Y+17	; 0x11
    1bf6:	ed b7       	in	r30, 0x3d	; 61
    1bf8:	fe b7       	in	r31, 0x3e	; 62
    1bfa:	83 83       	std	Z+3, r24	; 0x03
    1bfc:	94 83       	std	Z+4, r25	; 0x04
    1bfe:	a5 83       	std	Z+5, r26	; 0x05
    1c00:	b6 83       	std	Z+6, r27	; 0x06
    1c02:	0e 94 36 10 	call	0x206c	; 0x206c <xprintf>
    1c06:	2d b7       	in	r18, 0x3d	; 61
    1c08:	3e b7       	in	r19, 0x3e	; 62
    1c0a:	2a 5f       	subi	r18, 0xFA	; 250
    1c0c:	3f 4f       	sbci	r19, 0xFF	; 255
    1c0e:	0f b6       	in	r0, 0x3f	; 63
    1c10:	f8 94       	cli
    1c12:	3e bf       	out	0x3e, r19	; 62
    1c14:	0f be       	out	0x3f, r0	; 63
    1c16:	2d bf       	out	0x3d, r18	; 61
    1c18:	ce 01       	movw	r24, r28
    1c1a:	c0 96       	adiw	r24, 0x30	; 48
    1c1c:	0e 94 c7 1a 	call	0x358e	; 0x358e <f_close>
    1c20:	ce 01       	movw	r24, r28
    1c22:	80 5b       	subi	r24, 0xB0	; 176
    1c24:	9f 4f       	sbci	r25, 0xFF	; 255
    1c26:	0e 94 c7 1a 	call	0x358e	; 0x358e <f_close>
    1c2a:	0c 94 6b 04 	jmp	0x8d6	; 0x8d6 <__stack+0x77>
    1c2e:	31 96       	adiw	r30, 0x01	; 1
    1c30:	fb 83       	std	Y+3, r31	; 0x03
    1c32:	ea 83       	std	Y+2, r30	; 0x02
    1c34:	ea 81       	ldd	r30, Y+2	; 0x02
    1c36:	fb 81       	ldd	r31, Y+3	; 0x03
    1c38:	80 81       	ld	r24, Z
    1c3a:	80 32       	cpi	r24, 0x20	; 32
    1c3c:	c1 f3       	breq	.-16     	; 0x1c2e <__stack+0x13cf>
    1c3e:	cf 01       	movw	r24, r30
    1c40:	0e 94 d5 25 	call	0x4baa	; 0x4baa <f_chdir>
    1c44:	72 c0       	rjmp	.+228    	; 0x1d2a <__stack+0x14cb>
    1c46:	ce 01       	movw	r24, r28
    1c48:	02 96       	adiw	r24, 0x02	; 2
    1c4a:	be 01       	movw	r22, r28
    1c4c:	62 5f       	subi	r22, 0xF2	; 242
    1c4e:	7f 4f       	sbci	r23, 0xFF	; 255
    1c50:	0e 94 94 10 	call	0x2128	; 0x2128 <xatoi>
    1c54:	88 23       	and	r24, r24
    1c56:	11 f4       	brne	.+4      	; 0x1c5c <__stack+0x13fd>
    1c58:	0c 94 6b 04 	jmp	0x8d6	; 0x8d6 <__stack+0x77>
    1c5c:	8e 85       	ldd	r24, Y+14	; 0x0e
    1c5e:	0e 94 c6 11 	call	0x238c	; 0x238c <f_chdrive>
    1c62:	63 c0       	rjmp	.+198    	; 0x1d2a <__stack+0x14cb>
    1c64:	8a eb       	ldi	r24, 0xBA	; 186
    1c66:	94 e0       	ldi	r25, 0x04	; 4
    1c68:	60 e8       	ldi	r22, 0x80	; 128
    1c6a:	70 e0       	ldi	r23, 0x00	; 0
    1c6c:	0e 94 33 28 	call	0x5066	; 0x5066 <f_getcwd>
    1c70:	88 23       	and	r24, r24
    1c72:	09 f0       	breq	.+2      	; 0x1c76 <__stack+0x1417>
    1c74:	5a c0       	rjmp	.+180    	; 0x1d2a <__stack+0x14cb>
    1c76:	00 d0       	rcall	.+0      	; 0x1c78 <__stack+0x1419>
    1c78:	00 d0       	rcall	.+0      	; 0x1c7a <__stack+0x141b>
    1c7a:	e0 e6       	ldi	r30, 0x60	; 96
    1c7c:	f0 e0       	ldi	r31, 0x00	; 0
    1c7e:	ad b7       	in	r26, 0x3d	; 61
    1c80:	be b7       	in	r27, 0x3e	; 62
    1c82:	12 96       	adiw	r26, 0x02	; 2
    1c84:	fc 93       	st	X, r31
    1c86:	ee 93       	st	-X, r30
    1c88:	11 97       	sbiw	r26, 0x01	; 1
    1c8a:	14 96       	adiw	r26, 0x04	; 4
    1c8c:	7c 92       	st	X, r7
    1c8e:	6e 92       	st	-X, r6
    1c90:	13 97       	sbiw	r26, 0x03	; 3
    1c92:	0c 94 2d 05 	jmp	0xa5a	; 0xa5a <__stack+0x1fb>
    1c96:	8e 01       	movw	r16, r28
    1c98:	0e 5f       	subi	r16, 0xFE	; 254
    1c9a:	1f 4f       	sbci	r17, 0xFF	; 255
    1c9c:	c8 01       	movw	r24, r16
    1c9e:	be 01       	movw	r22, r28
    1ca0:	62 5f       	subi	r22, 0xF2	; 242
    1ca2:	7f 4f       	sbci	r23, 0xFF	; 255
    1ca4:	0e 94 94 10 	call	0x2128	; 0x2128 <xatoi>
    1ca8:	88 23       	and	r24, r24
    1caa:	11 f4       	brne	.+4      	; 0x1cb0 <__stack+0x1451>
    1cac:	0c 94 6b 04 	jmp	0x8d6	; 0x8d6 <__stack+0x77>
    1cb0:	c8 01       	movw	r24, r16
    1cb2:	be 01       	movw	r22, r28
    1cb4:	6e 5e       	subi	r22, 0xEE	; 238
    1cb6:	7f 4f       	sbci	r23, 0xFF	; 255
    1cb8:	0e 94 94 10 	call	0x2128	; 0x2128 <xatoi>
    1cbc:	88 23       	and	r24, r24
    1cbe:	11 f4       	brne	.+4      	; 0x1cc4 <__stack+0x1465>
    1cc0:	0c 94 6b 04 	jmp	0x8d6	; 0x8d6 <__stack+0x77>
    1cc4:	c8 01       	movw	r24, r16
    1cc6:	be 01       	movw	r22, r28
    1cc8:	6a 5e       	subi	r22, 0xEA	; 234
    1cca:	7f 4f       	sbci	r23, 0xFF	; 255
    1ccc:	0e 94 94 10 	call	0x2128	; 0x2128 <xatoi>
    1cd0:	88 23       	and	r24, r24
    1cd2:	11 f4       	brne	.+4      	; 0x1cd8 <__stack+0x1479>
    1cd4:	0c 94 6b 04 	jmp	0x8d6	; 0x8d6 <__stack+0x77>
    1cd8:	00 d0       	rcall	.+0      	; 0x1cda <__stack+0x147b>
    1cda:	00 d0       	rcall	.+0      	; 0x1cdc <__stack+0x147d>
    1cdc:	ed e9       	ldi	r30, 0x9D	; 157
    1cde:	f0 e0       	ldi	r31, 0x00	; 0
    1ce0:	ad b7       	in	r26, 0x3d	; 61
    1ce2:	be b7       	in	r27, 0x3e	; 62
    1ce4:	12 96       	adiw	r26, 0x02	; 2
    1ce6:	fc 93       	st	X, r31
    1ce8:	ee 93       	st	-X, r30
    1cea:	11 97       	sbiw	r26, 0x01	; 1
    1cec:	8e 85       	ldd	r24, Y+14	; 0x0e
    1cee:	9f 85       	ldd	r25, Y+15	; 0x0f
    1cf0:	14 96       	adiw	r26, 0x04	; 4
    1cf2:	9c 93       	st	X, r25
    1cf4:	8e 93       	st	-X, r24
    1cf6:	13 97       	sbiw	r26, 0x03	; 3
    1cf8:	0e 94 36 10 	call	0x206c	; 0x206c <xprintf>
    1cfc:	0f 90       	pop	r0
    1cfe:	0f 90       	pop	r0
    1d00:	0f 90       	pop	r0
    1d02:	0f 90       	pop	r0
    1d04:	8a 81       	ldd	r24, Y+2	; 0x02
    1d06:	9b 81       	ldd	r25, Y+3	; 0x03
    1d08:	60 e8       	ldi	r22, 0x80	; 128
    1d0a:	70 e0       	ldi	r23, 0x00	; 0
    1d0c:	0e 94 be 03 	call	0x77c	; 0x77c <get_line>
    1d10:	ea 81       	ldd	r30, Y+2	; 0x02
    1d12:	fb 81       	ldd	r31, Y+3	; 0x03
    1d14:	80 81       	ld	r24, Z
    1d16:	89 35       	cpi	r24, 0x59	; 89
    1d18:	11 f0       	breq	.+4      	; 0x1d1e <__stack+0x14bf>
    1d1a:	0c 94 6b 04 	jmp	0x8d6	; 0x8d6 <__stack+0x77>
    1d1e:	4e 89       	ldd	r20, Y+22	; 0x16
    1d20:	5f 89       	ldd	r21, Y+23	; 0x17
    1d22:	8e 85       	ldd	r24, Y+14	; 0x0e
    1d24:	6a 89       	ldd	r22, Y+18	; 0x12
    1d26:	0e 94 ce 11 	call	0x239c	; 0x239c <f_mkfs>
    1d2a:	0e 94 90 02 	call	0x520	; 0x520 <put_rc>
    1d2e:	0c 94 6b 04 	jmp	0x8d6	; 0x8d6 <__stack+0x77>
    1d32:	8e 01       	movw	r16, r28
    1d34:	0e 5f       	subi	r16, 0xFE	; 254
    1d36:	1f 4f       	sbci	r17, 0xFF	; 255
    1d38:	2e e0       	ldi	r18, 0x0E	; 14
    1d3a:	e2 2e       	mov	r14, r18
    1d3c:	f1 2c       	mov	r15, r1
    1d3e:	ec 0e       	add	r14, r28
    1d40:	fd 1e       	adc	r15, r29
    1d42:	c8 01       	movw	r24, r16
    1d44:	b7 01       	movw	r22, r14
    1d46:	0e 94 94 10 	call	0x2128	; 0x2128 <xatoi>
    1d4a:	88 23       	and	r24, r24
    1d4c:	91 f1       	breq	.+100    	; 0x1db2 <__stack+0x1553>
    1d4e:	ae 84       	ldd	r10, Y+14	; 0x0e
    1d50:	bf 84       	ldd	r11, Y+15	; 0x0f
    1d52:	e2 96       	adiw	r28, 0x32	; 50
    1d54:	bf ae       	std	Y+63, r11	; 0x3f
    1d56:	ae ae       	std	Y+62, r10	; 0x3e
    1d58:	e2 97       	sbiw	r28, 0x32	; 50
    1d5a:	c8 01       	movw	r24, r16
    1d5c:	b7 01       	movw	r22, r14
    1d5e:	0e 94 94 10 	call	0x2128	; 0x2128 <xatoi>
    1d62:	be 84       	ldd	r11, Y+14	; 0x0e
    1d64:	e3 96       	adiw	r28, 0x33	; 51
    1d66:	bf ae       	std	Y+63, r11	; 0x3f
    1d68:	e3 97       	sbiw	r28, 0x33	; 51
    1d6a:	c8 01       	movw	r24, r16
    1d6c:	b7 01       	movw	r22, r14
    1d6e:	0e 94 94 10 	call	0x2128	; 0x2128 <xatoi>
    1d72:	2e 85       	ldd	r18, Y+14	; 0x0e
    1d74:	e4 96       	adiw	r28, 0x34	; 52
    1d76:	2f af       	std	Y+63, r18	; 0x3f
    1d78:	e4 97       	sbiw	r28, 0x34	; 52
    1d7a:	c8 01       	movw	r24, r16
    1d7c:	b7 01       	movw	r22, r14
    1d7e:	0e 94 94 10 	call	0x2128	; 0x2128 <xatoi>
    1d82:	3e 85       	ldd	r19, Y+14	; 0x0e
    1d84:	e5 96       	adiw	r28, 0x35	; 53
    1d86:	3f af       	std	Y+63, r19	; 0x3f
    1d88:	e5 97       	sbiw	r28, 0x35	; 53
    1d8a:	c8 01       	movw	r24, r16
    1d8c:	b7 01       	movw	r22, r14
    1d8e:	0e 94 94 10 	call	0x2128	; 0x2128 <xatoi>
    1d92:	8e 85       	ldd	r24, Y+14	; 0x0e
    1d94:	e6 96       	adiw	r28, 0x36	; 54
    1d96:	8f af       	std	Y+63, r24	; 0x3f
    1d98:	e6 97       	sbiw	r28, 0x36	; 54
    1d9a:	c8 01       	movw	r24, r16
    1d9c:	b7 01       	movw	r22, r14
    1d9e:	0e 94 94 10 	call	0x2128	; 0x2128 <xatoi>
    1da2:	88 23       	and	r24, r24
    1da4:	11 f4       	brne	.+4      	; 0x1daa <__stack+0x154b>
    1da6:	0c 94 6b 04 	jmp	0x8d6	; 0x8d6 <__stack+0x77>
    1daa:	9e 85       	ldd	r25, Y+14	; 0x0e
    1dac:	e7 96       	adiw	r28, 0x37	; 55
    1dae:	9f af       	std	Y+63, r25	; 0x3f
    1db0:	e7 97       	sbiw	r28, 0x37	; 55
    1db2:	ad b7       	in	r26, 0x3d	; 61
    1db4:	be b7       	in	r27, 0x3e	; 62
    1db6:	1e 97       	sbiw	r26, 0x0e	; 14
    1db8:	0f b6       	in	r0, 0x3f	; 63
    1dba:	f8 94       	cli
    1dbc:	be bf       	out	0x3e, r27	; 62
    1dbe:	0f be       	out	0x3f, r0	; 63
    1dc0:	ad bf       	out	0x3d, r26	; 61
    1dc2:	ed b7       	in	r30, 0x3d	; 61
    1dc4:	fe b7       	in	r31, 0x3e	; 62
    1dc6:	31 96       	adiw	r30, 0x01	; 1
    1dc8:	84 e8       	ldi	r24, 0x84	; 132
    1dca:	90 e0       	ldi	r25, 0x00	; 0
    1dcc:	12 96       	adiw	r26, 0x02	; 2
    1dce:	9c 93       	st	X, r25
    1dd0:	8e 93       	st	-X, r24
    1dd2:	11 97       	sbiw	r26, 0x01	; 1
    1dd4:	e2 96       	adiw	r28, 0x32	; 50
    1dd6:	ae ac       	ldd	r10, Y+62	; 0x3e
    1dd8:	bf ac       	ldd	r11, Y+63	; 0x3f
    1dda:	e2 97       	sbiw	r28, 0x32	; 50
    1ddc:	b3 82       	std	Z+3, r11	; 0x03
    1dde:	a2 82       	std	Z+2, r10	; 0x02
    1de0:	e3 96       	adiw	r28, 0x33	; 51
    1de2:	bf ac       	ldd	r11, Y+63	; 0x3f
    1de4:	e3 97       	sbiw	r28, 0x33	; 51
    1de6:	b4 82       	std	Z+4, r11	; 0x04
    1de8:	15 82       	std	Z+5, r1	; 0x05
    1dea:	e4 96       	adiw	r28, 0x34	; 52
    1dec:	2f ad       	ldd	r18, Y+63	; 0x3f
    1dee:	e4 97       	sbiw	r28, 0x34	; 52
    1df0:	26 83       	std	Z+6, r18	; 0x06
    1df2:	17 82       	std	Z+7, r1	; 0x07
    1df4:	e5 96       	adiw	r28, 0x35	; 53
    1df6:	3f ad       	ldd	r19, Y+63	; 0x3f
    1df8:	e5 97       	sbiw	r28, 0x35	; 53
    1dfa:	30 87       	std	Z+8, r19	; 0x08
    1dfc:	11 86       	std	Z+9, r1	; 0x09
    1dfe:	e6 96       	adiw	r28, 0x36	; 54
    1e00:	8f ad       	ldd	r24, Y+63	; 0x3f
    1e02:	e6 97       	sbiw	r28, 0x36	; 54
    1e04:	82 87       	std	Z+10, r24	; 0x0a
    1e06:	13 86       	std	Z+11, r1	; 0x0b
    1e08:	e7 96       	adiw	r28, 0x37	; 55
    1e0a:	9f ad       	ldd	r25, Y+63	; 0x3f
    1e0c:	e7 97       	sbiw	r28, 0x37	; 55
    1e0e:	94 87       	std	Z+12, r25	; 0x0c
    1e10:	15 86       	std	Z+13, r1	; 0x0d
    1e12:	0e 94 36 10 	call	0x206c	; 0x206c <xprintf>
    1e16:	ad b7       	in	r26, 0x3d	; 61
    1e18:	be b7       	in	r27, 0x3e	; 62
    1e1a:	1e 96       	adiw	r26, 0x0e	; 14
    1e1c:	0f b6       	in	r0, 0x3f	; 63
    1e1e:	f8 94       	cli
    1e20:	be bf       	out	0x3e, r27	; 62
    1e22:	0f be       	out	0x3f, r0	; 63
    1e24:	ad bf       	out	0x3d, r26	; 61
    1e26:	0c 94 6b 04 	jmp	0x8d6	; 0x8d6 <__stack+0x77>

00001e2a <__vector_4>:
    1e2a:	1f 92       	push	r1
    1e2c:	0f 92       	push	r0
    1e2e:	0f b6       	in	r0, 0x3f	; 63
    1e30:	0f 92       	push	r0
    1e32:	11 24       	eor	r1, r1
    1e34:	2f 93       	push	r18
    1e36:	3f 93       	push	r19
    1e38:	4f 93       	push	r20
    1e3a:	5f 93       	push	r21
    1e3c:	6f 93       	push	r22
    1e3e:	7f 93       	push	r23
    1e40:	8f 93       	push	r24
    1e42:	9f 93       	push	r25
    1e44:	af 93       	push	r26
    1e46:	bf 93       	push	r27
    1e48:	ef 93       	push	r30
    1e4a:	ff 93       	push	r31
    1e4c:	80 91 b4 03 	lds	r24, 0x03B4
    1e50:	90 91 b5 03 	lds	r25, 0x03B5
    1e54:	01 96       	adiw	r24, 0x01	; 1
    1e56:	90 93 b5 03 	sts	0x03B5, r25
    1e5a:	80 93 b4 03 	sts	0x03B4, r24
    1e5e:	0e 94 b2 35 	call	0x6b64	; 0x6b64 <disk_timerproc>
    1e62:	ff 91       	pop	r31
    1e64:	ef 91       	pop	r30
    1e66:	bf 91       	pop	r27
    1e68:	af 91       	pop	r26
    1e6a:	9f 91       	pop	r25
    1e6c:	8f 91       	pop	r24
    1e6e:	7f 91       	pop	r23
    1e70:	6f 91       	pop	r22
    1e72:	5f 91       	pop	r21
    1e74:	4f 91       	pop	r20
    1e76:	3f 91       	pop	r19
    1e78:	2f 91       	pop	r18
    1e7a:	0f 90       	pop	r0
    1e7c:	0f be       	out	0x3f, r0	; 63
    1e7e:	0f 90       	pop	r0
    1e80:	1f 90       	pop	r1
    1e82:	18 95       	reti

00001e84 <uart_init>:
    1e84:	10 92 1c 01 	sts	0x011C, r1
    1e88:	10 92 1b 01 	sts	0x011B, r1
    1e8c:	10 92 1d 01 	sts	0x011D, r1
    1e90:	10 92 d9 00 	sts	0x00D9, r1
    1e94:	10 92 d8 00 	sts	0x00D8, r1
    1e98:	10 92 da 00 	sts	0x00DA, r1
    1e9c:	85 e0       	ldi	r24, 0x05	; 5
    1e9e:	89 b9       	out	0x09, r24	; 9
    1ea0:	88 e9       	ldi	r24, 0x98	; 152
    1ea2:	8a b9       	out	0x0a, r24	; 10
    1ea4:	08 95       	ret

00001ea6 <uart_test>:
    1ea6:	80 91 1d 01 	lds	r24, 0x011D
    1eaa:	08 95       	ret

00001eac <uart_get>:
    1eac:	90 91 1c 01 	lds	r25, 0x011C
    1eb0:	80 91 1d 01 	lds	r24, 0x011D
    1eb4:	88 23       	and	r24, r24
    1eb6:	e1 f3       	breq	.-8      	; 0x1eb0 <uart_get+0x4>
    1eb8:	e9 2f       	mov	r30, r25
    1eba:	f0 e0       	ldi	r31, 0x00	; 0
    1ebc:	e5 5e       	subi	r30, 0xE5	; 229
    1ebe:	fe 4f       	sbci	r31, 0xFE	; 254
    1ec0:	23 81       	ldd	r18, Z+3	; 0x03
    1ec2:	e9 2f       	mov	r30, r25
    1ec4:	ef 5f       	subi	r30, 0xFF	; 255
    1ec6:	f8 94       	cli
    1ec8:	80 91 1d 01 	lds	r24, 0x011D
    1ecc:	81 50       	subi	r24, 0x01	; 1
    1ece:	80 93 1d 01 	sts	0x011D, r24
    1ed2:	78 94       	sei
    1ed4:	e0 34       	cpi	r30, 0x40	; 64
    1ed6:	08 f0       	brcs	.+2      	; 0x1eda <uart_get+0x2e>
    1ed8:	e0 e0       	ldi	r30, 0x00	; 0
    1eda:	e0 93 1c 01 	sts	0x011C, r30
    1ede:	82 2f       	mov	r24, r18
    1ee0:	08 95       	ret

00001ee2 <uart_put>:
    1ee2:	28 2f       	mov	r18, r24
    1ee4:	90 91 d8 00 	lds	r25, 0x00D8
    1ee8:	80 91 da 00 	lds	r24, 0x00DA
    1eec:	80 34       	cpi	r24, 0x40	; 64
    1eee:	e0 f7       	brcc	.-8      	; 0x1ee8 <uart_put+0x6>
    1ef0:	e9 2f       	mov	r30, r25
    1ef2:	f0 e0       	ldi	r31, 0x00	; 0
    1ef4:	e8 52       	subi	r30, 0x28	; 40
    1ef6:	ff 4f       	sbci	r31, 0xFF	; 255
    1ef8:	23 83       	std	Z+3, r18	; 0x03
    1efa:	e9 2f       	mov	r30, r25
    1efc:	ef 5f       	subi	r30, 0xFF	; 255
    1efe:	f8 94       	cli
    1f00:	80 91 da 00 	lds	r24, 0x00DA
    1f04:	8f 5f       	subi	r24, 0xFF	; 255
    1f06:	80 93 da 00 	sts	0x00DA, r24
    1f0a:	88 eb       	ldi	r24, 0xB8	; 184
    1f0c:	8a b9       	out	0x0a, r24	; 10
    1f0e:	78 94       	sei
    1f10:	e0 34       	cpi	r30, 0x40	; 64
    1f12:	08 f0       	brcs	.+2      	; 0x1f16 <uart_put+0x34>
    1f14:	e0 e0       	ldi	r30, 0x00	; 0
    1f16:	e0 93 d8 00 	sts	0x00D8, r30
    1f1a:	08 95       	ret

00001f1c <__vector_13>:
    1f1c:	1f 92       	push	r1
    1f1e:	0f 92       	push	r0
    1f20:	0f b6       	in	r0, 0x3f	; 63
    1f22:	0f 92       	push	r0
    1f24:	11 24       	eor	r1, r1
    1f26:	8f 93       	push	r24
    1f28:	9f 93       	push	r25
    1f2a:	ef 93       	push	r30
    1f2c:	ff 93       	push	r31
    1f2e:	9c b1       	in	r25, 0x0c	; 12
    1f30:	80 91 1d 01 	lds	r24, 0x011D
    1f34:	80 34       	cpi	r24, 0x40	; 64
    1f36:	80 f4       	brcc	.+32     	; 0x1f58 <__vector_13+0x3c>
    1f38:	8f 5f       	subi	r24, 0xFF	; 255
    1f3a:	80 93 1d 01 	sts	0x011D, r24
    1f3e:	80 91 1b 01 	lds	r24, 0x011B
    1f42:	e8 2f       	mov	r30, r24
    1f44:	f0 e0       	ldi	r31, 0x00	; 0
    1f46:	e5 5e       	subi	r30, 0xE5	; 229
    1f48:	fe 4f       	sbci	r31, 0xFE	; 254
    1f4a:	93 83       	std	Z+3, r25	; 0x03
    1f4c:	8f 5f       	subi	r24, 0xFF	; 255
    1f4e:	80 34       	cpi	r24, 0x40	; 64
    1f50:	08 f0       	brcs	.+2      	; 0x1f54 <__vector_13+0x38>
    1f52:	80 e0       	ldi	r24, 0x00	; 0
    1f54:	80 93 1b 01 	sts	0x011B, r24
    1f58:	ff 91       	pop	r31
    1f5a:	ef 91       	pop	r30
    1f5c:	9f 91       	pop	r25
    1f5e:	8f 91       	pop	r24
    1f60:	0f 90       	pop	r0
    1f62:	0f be       	out	0x3f, r0	; 63
    1f64:	0f 90       	pop	r0
    1f66:	1f 90       	pop	r1
    1f68:	18 95       	reti

00001f6a <__vector_14>:
    1f6a:	1f 92       	push	r1
    1f6c:	0f 92       	push	r0
    1f6e:	0f b6       	in	r0, 0x3f	; 63
    1f70:	0f 92       	push	r0
    1f72:	11 24       	eor	r1, r1
    1f74:	2f 93       	push	r18
    1f76:	8f 93       	push	r24
    1f78:	9f 93       	push	r25
    1f7a:	ef 93       	push	r30
    1f7c:	ff 93       	push	r31
    1f7e:	80 91 da 00 	lds	r24, 0x00DA
    1f82:	88 23       	and	r24, r24
    1f84:	a1 f0       	breq	.+40     	; 0x1fae <__vector_14+0x44>
    1f86:	28 2f       	mov	r18, r24
    1f88:	21 50       	subi	r18, 0x01	; 1
    1f8a:	20 93 da 00 	sts	0x00DA, r18
    1f8e:	80 91 d9 00 	lds	r24, 0x00D9
    1f92:	e8 2f       	mov	r30, r24
    1f94:	f0 e0       	ldi	r31, 0x00	; 0
    1f96:	e8 52       	subi	r30, 0x28	; 40
    1f98:	ff 4f       	sbci	r31, 0xFF	; 255
    1f9a:	93 81       	ldd	r25, Z+3	; 0x03
    1f9c:	9c b9       	out	0x0c, r25	; 12
    1f9e:	8f 5f       	subi	r24, 0xFF	; 255
    1fa0:	80 34       	cpi	r24, 0x40	; 64
    1fa2:	08 f0       	brcs	.+2      	; 0x1fa6 <__vector_14+0x3c>
    1fa4:	80 e0       	ldi	r24, 0x00	; 0
    1fa6:	80 93 d9 00 	sts	0x00D9, r24
    1faa:	22 23       	and	r18, r18
    1fac:	11 f4       	brne	.+4      	; 0x1fb2 <__vector_14+0x48>
    1fae:	88 e9       	ldi	r24, 0x98	; 152
    1fb0:	8a b9       	out	0x0a, r24	; 10
    1fb2:	ff 91       	pop	r31
    1fb4:	ef 91       	pop	r30
    1fb6:	9f 91       	pop	r25
    1fb8:	8f 91       	pop	r24
    1fba:	2f 91       	pop	r18
    1fbc:	0f 90       	pop	r0
    1fbe:	0f be       	out	0x3f, r0	; 63
    1fc0:	0f 90       	pop	r0
    1fc2:	1f 90       	pop	r1
    1fc4:	18 95       	reti

00001fc6 <xputc>:
    1fc6:	8a 30       	cpi	r24, 0x0A	; 10
    1fc8:	19 f4       	brne	.+6      	; 0x1fd0 <xputc+0xa>
    1fca:	8d e0       	ldi	r24, 0x0D	; 13
    1fcc:	01 d0       	rcall	.+2      	; 0x1fd0 <xputc+0xa>
    1fce:	8a e0       	ldi	r24, 0x0A	; 10
    1fd0:	ff 93       	push	r31
    1fd2:	ef 93       	push	r30
    1fd4:	e0 91 5e 01 	lds	r30, 0x015E
    1fd8:	f0 91 5f 01 	lds	r31, 0x015F
    1fdc:	30 97       	sbiw	r30, 0x00	; 0
    1fde:	09 f0       	breq	.+2      	; 0x1fe2 <xputc+0x1c>
    1fe0:	09 95       	icall
    1fe2:	ef 91       	pop	r30
    1fe4:	ff 91       	pop	r31
    1fe6:	08 95       	ret

00001fe8 <xputs>:
    1fe8:	fc 01       	movw	r30, r24
    1fea:	85 91       	lpm	r24, Z+
    1fec:	80 30       	cpi	r24, 0x00	; 0
    1fee:	11 f0       	breq	.+4      	; 0x1ff4 <xputs+0xc>
    1ff0:	ea df       	rcall	.-44     	; 0x1fc6 <xputc>
    1ff2:	fb cf       	rjmp	.-10     	; 0x1fea <xputs+0x2>
    1ff4:	08 95       	ret

00001ff6 <xitoa>:
    1ff6:	ff 27       	eor	r31, r31
    1ff8:	e0 e2       	ldi	r30, 0x20	; 32
    1ffa:	30 e2       	ldi	r19, 0x20	; 32
    1ffc:	47 ff       	sbrs	r20, 7
    1ffe:	0c c0       	rjmp	.+24     	; 0x2018 <xitoa+0x22>
    2000:	41 95       	neg	r20
    2002:	97 ff       	sbrs	r25, 7
    2004:	09 c0       	rjmp	.+18     	; 0x2018 <xitoa+0x22>
    2006:	ed e2       	ldi	r30, 0x2D	; 45
    2008:	60 95       	com	r22
    200a:	70 95       	com	r23
    200c:	80 95       	com	r24
    200e:	90 95       	com	r25
    2010:	61 1d       	adc	r22, r1
    2012:	71 1d       	adc	r23, r1
    2014:	81 1d       	adc	r24, r1
    2016:	91 1d       	adc	r25, r1
    2018:	27 ff       	sbrs	r18, 7
    201a:	02 c0       	rjmp	.+4      	; 0x2020 <xitoa+0x2a>
    201c:	21 95       	neg	r18
    201e:	30 e3       	ldi	r19, 0x30	; 48
    2020:	50 e2       	ldi	r21, 0x20	; 32
    2022:	aa 27       	eor	r26, r26
    2024:	66 0f       	add	r22, r22
    2026:	77 1f       	adc	r23, r23
    2028:	88 1f       	adc	r24, r24
    202a:	99 1f       	adc	r25, r25
    202c:	aa 1f       	adc	r26, r26
    202e:	a4 17       	cp	r26, r20
    2030:	10 f0       	brcs	.+4      	; 0x2036 <xitoa+0x40>
    2032:	a4 1b       	sub	r26, r20
    2034:	63 95       	inc	r22
    2036:	5a 95       	dec	r21
    2038:	a9 f7       	brne	.-22     	; 0x2024 <xitoa+0x2e>
    203a:	aa 30       	cpi	r26, 0x0A	; 10
    203c:	08 f0       	brcs	.+2      	; 0x2040 <xitoa+0x4a>
    203e:	a9 5f       	subi	r26, 0xF9	; 249
    2040:	a0 5d       	subi	r26, 0xD0	; 208
    2042:	af 93       	push	r26
    2044:	f3 95       	inc	r31
    2046:	61 15       	cp	r22, r1
    2048:	71 05       	cpc	r23, r1
    204a:	81 05       	cpc	r24, r1
    204c:	91 05       	cpc	r25, r1
    204e:	41 f7       	brne	.-48     	; 0x2020 <xitoa+0x2a>
    2050:	ed 32       	cpi	r30, 0x2D	; 45
    2052:	11 f4       	brne	.+4      	; 0x2058 <xitoa+0x62>
    2054:	ef 93       	push	r30
    2056:	f3 95       	inc	r31
    2058:	f2 17       	cp	r31, r18
    205a:	18 f4       	brcc	.+6      	; 0x2062 <xitoa+0x6c>
    205c:	3f 93       	push	r19
    205e:	f3 95       	inc	r31
    2060:	fb cf       	rjmp	.-10     	; 0x2058 <xitoa+0x62>
    2062:	8f 91       	pop	r24
    2064:	b0 df       	rcall	.-160    	; 0x1fc6 <xputc>
    2066:	fa 95       	dec	r31
    2068:	e1 f7       	brne	.-8      	; 0x2062 <xitoa+0x6c>
    206a:	08 95       	ret

0000206c <xprintf>:
    206c:	df 93       	push	r29
    206e:	cf 93       	push	r28
    2070:	cd b7       	in	r28, 0x3d	; 61
    2072:	de b7       	in	r29, 0x3e	; 62
    2074:	25 96       	adiw	r28, 0x05	; 5
    2076:	e9 91       	ld	r30, Y+
    2078:	f9 91       	ld	r31, Y+
    207a:	85 91       	lpm	r24, Z+
    207c:	80 30       	cpi	r24, 0x00	; 0
    207e:	21 f0       	breq	.+8      	; 0x2088 <xprintf+0x1c>
    2080:	85 32       	cpi	r24, 0x25	; 37
    2082:	29 f0       	breq	.+10     	; 0x208e <xprintf+0x22>
    2084:	a0 df       	rcall	.-192    	; 0x1fc6 <xputc>
    2086:	f9 cf       	rjmp	.-14     	; 0x207a <xprintf+0xe>
    2088:	cf 91       	pop	r28
    208a:	df 91       	pop	r29
    208c:	08 95       	ret
    208e:	20 e0       	ldi	r18, 0x00	; 0
    2090:	e8 94       	clt
    2092:	55 91       	lpm	r21, Z+
    2094:	55 32       	cpi	r21, 0x25	; 37
    2096:	b1 f3       	breq	.-20     	; 0x2084 <xprintf+0x18>
    2098:	50 33       	cpi	r21, 0x30	; 48
    209a:	11 f4       	brne	.+4      	; 0x20a0 <xprintf+0x34>
    209c:	68 94       	set
    209e:	55 91       	lpm	r21, Z+
    20a0:	5a 33       	cpi	r21, 0x3A	; 58
    20a2:	48 f4       	brcc	.+18     	; 0x20b6 <xprintf+0x4a>
    20a4:	50 53       	subi	r21, 0x30	; 48
    20a6:	80 f3       	brcs	.-32     	; 0x2088 <xprintf+0x1c>
    20a8:	22 0f       	add	r18, r18
    20aa:	02 2e       	mov	r0, r18
    20ac:	22 0f       	add	r18, r18
    20ae:	22 0f       	add	r18, r18
    20b0:	20 0d       	add	r18, r0
    20b2:	25 0f       	add	r18, r21
    20b4:	f4 cf       	rjmp	.-24     	; 0x209e <xprintf+0x32>
    20b6:	0e f4       	brtc	.+2      	; 0x20ba <xprintf+0x4e>
    20b8:	21 95       	neg	r18
    20ba:	89 91       	ld	r24, Y+
    20bc:	99 91       	ld	r25, Y+
    20be:	53 36       	cpi	r21, 0x63	; 99
    20c0:	09 f3       	breq	.-62     	; 0x2084 <xprintf+0x18>
    20c2:	53 37       	cpi	r21, 0x73	; 115
    20c4:	29 f1       	breq	.+74     	; 0x2110 <xprintf+0xa4>
    20c6:	53 35       	cpi	r21, 0x53	; 83
    20c8:	59 f1       	breq	.+86     	; 0x2120 <xprintf+0xb4>
    20ca:	bc 01       	movw	r22, r24
    20cc:	88 27       	eor	r24, r24
    20ce:	99 27       	eor	r25, r25
    20d0:	e8 94       	clt
    20d2:	5c 36       	cpi	r21, 0x6C	; 108
    20d4:	21 f4       	brne	.+8      	; 0x20de <xprintf+0x72>
    20d6:	89 91       	ld	r24, Y+
    20d8:	99 91       	ld	r25, Y+
    20da:	68 94       	set
    20dc:	55 91       	lpm	r21, Z+
    20de:	54 36       	cpi	r21, 0x64	; 100
    20e0:	39 f4       	brne	.+14     	; 0x20f0 <xprintf+0x84>
    20e2:	46 ef       	ldi	r20, 0xF6	; 246
    20e4:	7e f0       	brts	.+30     	; 0x2104 <xprintf+0x98>
    20e6:	77 ff       	sbrs	r23, 7
    20e8:	0d c0       	rjmp	.+26     	; 0x2104 <xprintf+0x98>
    20ea:	8f ef       	ldi	r24, 0xFF	; 255
    20ec:	9f ef       	ldi	r25, 0xFF	; 255
    20ee:	0a c0       	rjmp	.+20     	; 0x2104 <xprintf+0x98>
    20f0:	55 37       	cpi	r21, 0x75	; 117
    20f2:	4a e0       	ldi	r20, 0x0A	; 10
    20f4:	39 f0       	breq	.+14     	; 0x2104 <xprintf+0x98>
    20f6:	58 35       	cpi	r21, 0x58	; 88
    20f8:	40 e1       	ldi	r20, 0x10	; 16
    20fa:	21 f0       	breq	.+8      	; 0x2104 <xprintf+0x98>
    20fc:	52 36       	cpi	r21, 0x62	; 98
    20fe:	42 e0       	ldi	r20, 0x02	; 2
    2100:	09 f0       	breq	.+2      	; 0x2104 <xprintf+0x98>
    2102:	c2 cf       	rjmp	.-124    	; 0x2088 <xprintf+0x1c>
    2104:	ff 93       	push	r31
    2106:	ef 93       	push	r30
    2108:	76 df       	rcall	.-276    	; 0x1ff6 <xitoa>
    210a:	ef 91       	pop	r30
    210c:	ff 91       	pop	r31
    210e:	b5 cf       	rjmp	.-150    	; 0x207a <xprintf+0xe>
    2110:	ff 93       	push	r31
    2112:	ef 93       	push	r30
    2114:	fc 01       	movw	r30, r24
    2116:	81 91       	ld	r24, Z+
    2118:	80 30       	cpi	r24, 0x00	; 0
    211a:	b9 f3       	breq	.-18     	; 0x210a <xprintf+0x9e>
    211c:	54 df       	rcall	.-344    	; 0x1fc6 <xputc>
    211e:	fb cf       	rjmp	.-10     	; 0x2116 <xprintf+0xaa>
    2120:	ff 93       	push	r31
    2122:	ef 93       	push	r30
    2124:	61 df       	rcall	.-318    	; 0x1fe8 <xputs>
    2126:	f1 cf       	rjmp	.-30     	; 0x210a <xprintf+0x9e>

00002128 <xatoi>:
    2128:	0b 01       	movw	r0, r22
    212a:	dc 01       	movw	r26, r24
    212c:	ed 91       	ld	r30, X+
    212e:	fd 91       	ld	r31, X+
    2130:	22 27       	eor	r18, r18
    2132:	33 27       	eor	r19, r19
    2134:	44 27       	eor	r20, r20
    2136:	55 27       	eor	r21, r21
    2138:	e8 94       	clt
    213a:	9a e0       	ldi	r25, 0x0A	; 10
    213c:	01 c0       	rjmp	.+2      	; 0x2140 <xatoi+0x18>
    213e:	31 96       	adiw	r30, 0x01	; 1
    2140:	60 81       	ld	r22, Z
    2142:	60 32       	cpi	r22, 0x20	; 32
    2144:	e1 f3       	breq	.-8      	; 0x213e <xatoi+0x16>
    2146:	a8 f1       	brcs	.+106    	; 0x21b2 <xatoi+0x8a>
    2148:	6d 32       	cpi	r22, 0x2D	; 45
    214a:	11 f4       	brne	.+4      	; 0x2150 <xatoi+0x28>
    214c:	68 94       	set
    214e:	f7 cf       	rjmp	.-18     	; 0x213e <xatoi+0x16>
    2150:	6a 33       	cpi	r22, 0x3A	; 58
    2152:	78 f5       	brcc	.+94     	; 0x21b2 <xatoi+0x8a>
    2154:	60 33       	cpi	r22, 0x30	; 48
    2156:	68 f1       	brcs	.+90     	; 0x21b2 <xatoi+0x8a>
    2158:	71 f4       	brne	.+28     	; 0x2176 <xatoi+0x4e>
    215a:	98 e0       	ldi	r25, 0x08	; 8
    215c:	31 96       	adiw	r30, 0x01	; 1
    215e:	60 81       	ld	r22, Z
    2160:	61 32       	cpi	r22, 0x21	; 33
    2162:	48 f1       	brcs	.+82     	; 0x21b6 <xatoi+0x8e>
    2164:	62 36       	cpi	r22, 0x62	; 98
    2166:	11 f4       	brne	.+4      	; 0x216c <xatoi+0x44>
    2168:	92 e0       	ldi	r25, 0x02	; 2
    216a:	03 c0       	rjmp	.+6      	; 0x2172 <xatoi+0x4a>
    216c:	68 37       	cpi	r22, 0x78	; 120
    216e:	19 f4       	brne	.+6      	; 0x2176 <xatoi+0x4e>
    2170:	90 e1       	ldi	r25, 0x10	; 16
    2172:	31 96       	adiw	r30, 0x01	; 1
    2174:	60 81       	ld	r22, Z
    2176:	61 32       	cpi	r22, 0x21	; 33
    2178:	f0 f0       	brcs	.+60     	; 0x21b6 <xatoi+0x8e>
    217a:	61 36       	cpi	r22, 0x61	; 97
    217c:	08 f0       	brcs	.+2      	; 0x2180 <xatoi+0x58>
    217e:	60 52       	subi	r22, 0x20	; 32
    2180:	60 53       	subi	r22, 0x30	; 48
    2182:	b8 f0       	brcs	.+46     	; 0x21b2 <xatoi+0x8a>
    2184:	6a 30       	cpi	r22, 0x0A	; 10
    2186:	18 f0       	brcs	.+6      	; 0x218e <xatoi+0x66>
    2188:	67 50       	subi	r22, 0x07	; 7
    218a:	6a 30       	cpi	r22, 0x0A	; 10
    218c:	90 f0       	brcs	.+36     	; 0x21b2 <xatoi+0x8a>
    218e:	69 17       	cp	r22, r25
    2190:	80 f4       	brcc	.+32     	; 0x21b2 <xatoi+0x8a>
    2192:	81 e2       	ldi	r24, 0x21	; 33
    2194:	77 1b       	sub	r23, r23
    2196:	08 f4       	brcc	.+2      	; 0x219a <xatoi+0x72>
    2198:	79 0f       	add	r23, r25
    219a:	76 95       	lsr	r23
    219c:	57 95       	ror	r21
    219e:	47 95       	ror	r20
    21a0:	37 95       	ror	r19
    21a2:	27 95       	ror	r18
    21a4:	8a 95       	dec	r24
    21a6:	b9 f7       	brne	.-18     	; 0x2196 <xatoi+0x6e>
    21a8:	26 0f       	add	r18, r22
    21aa:	38 1f       	adc	r19, r24
    21ac:	48 1f       	adc	r20, r24
    21ae:	58 1f       	adc	r21, r24
    21b0:	e0 cf       	rjmp	.-64     	; 0x2172 <xatoi+0x4a>
    21b2:	80 e0       	ldi	r24, 0x00	; 0
    21b4:	01 c0       	rjmp	.+2      	; 0x21b8 <xatoi+0x90>
    21b6:	81 e0       	ldi	r24, 0x01	; 1
    21b8:	4e f4       	brtc	.+18     	; 0x21cc <xatoi+0xa4>
    21ba:	66 27       	eor	r22, r22
    21bc:	20 95       	com	r18
    21be:	30 95       	com	r19
    21c0:	40 95       	com	r20
    21c2:	50 95       	com	r21
    21c4:	26 1f       	adc	r18, r22
    21c6:	36 1f       	adc	r19, r22
    21c8:	46 1f       	adc	r20, r22
    21ca:	56 1f       	adc	r21, r22
    21cc:	fe 93       	st	-X, r31
    21ce:	ee 93       	st	-X, r30
    21d0:	d0 01       	movw	r26, r0
    21d2:	2d 93       	st	X+, r18
    21d4:	3d 93       	st	X+, r19
    21d6:	4d 93       	st	X+, r20
    21d8:	5d 93       	st	X+, r21
    21da:	11 24       	eor	r1, r1
    21dc:	08 95       	ret

000021de <mem_cpy>:
    21de:	0f 93       	push	r16
    21e0:	1f 93       	push	r17
    21e2:	cf 93       	push	r28
    21e4:	df 93       	push	r29
    21e6:	8c 01       	movw	r16, r24
    21e8:	eb 01       	movw	r28, r22
    21ea:	ba 01       	movw	r22, r20
    21ec:	20 e0       	ldi	r18, 0x00	; 0
    21ee:	30 e0       	ldi	r19, 0x00	; 0
    21f0:	0e c0       	rjmp	.+28     	; 0x220e <mem_cpy+0x30>
    21f2:	f8 01       	movw	r30, r16
    21f4:	e2 0f       	add	r30, r18
    21f6:	f3 1f       	adc	r31, r19
    21f8:	de 01       	movw	r26, r28
    21fa:	a2 0f       	add	r26, r18
    21fc:	b3 1f       	adc	r27, r19
    21fe:	8d 91       	ld	r24, X+
    2200:	9c 91       	ld	r25, X
    2202:	91 83       	std	Z+1, r25	; 0x01
    2204:	80 83       	st	Z, r24
    2206:	42 50       	subi	r20, 0x02	; 2
    2208:	50 40       	sbci	r21, 0x00	; 0
    220a:	2e 5f       	subi	r18, 0xFE	; 254
    220c:	3f 4f       	sbci	r19, 0xFF	; 255
    220e:	42 30       	cpi	r20, 0x02	; 2
    2210:	51 05       	cpc	r21, r1
    2212:	78 f7       	brcc	.-34     	; 0x21f2 <mem_cpy+0x14>
    2214:	cb 01       	movw	r24, r22
    2216:	8e 7f       	andi	r24, 0xFE	; 254
    2218:	de 01       	movw	r26, r28
    221a:	a8 0f       	add	r26, r24
    221c:	b9 1f       	adc	r27, r25
    221e:	f8 01       	movw	r30, r16
    2220:	e8 0f       	add	r30, r24
    2222:	f9 1f       	adc	r31, r25
    2224:	60 ff       	sbrs	r22, 0
    2226:	02 c0       	rjmp	.+4      	; 0x222c <mem_cpy+0x4e>
    2228:	8c 91       	ld	r24, X
    222a:	80 83       	st	Z, r24
    222c:	df 91       	pop	r29
    222e:	cf 91       	pop	r28
    2230:	1f 91       	pop	r17
    2232:	0f 91       	pop	r16
    2234:	08 95       	ret

00002236 <clust2sect>:
    2236:	ef 92       	push	r14
    2238:	ff 92       	push	r15
    223a:	0f 93       	push	r16
    223c:	1f 93       	push	r17
    223e:	cf 93       	push	r28
    2240:	df 93       	push	r29
    2242:	ec 01       	movw	r28, r24
    2244:	7a 01       	movw	r14, r20
    2246:	8b 01       	movw	r16, r22
    2248:	8e ef       	ldi	r24, 0xFE	; 254
    224a:	9f ef       	ldi	r25, 0xFF	; 255
    224c:	af ef       	ldi	r26, 0xFF	; 255
    224e:	bf ef       	ldi	r27, 0xFF	; 255
    2250:	e8 0e       	add	r14, r24
    2252:	f9 1e       	adc	r15, r25
    2254:	0a 1f       	adc	r16, r26
    2256:	1b 1f       	adc	r17, r27
    2258:	8a 8d       	ldd	r24, Y+26	; 0x1a
    225a:	9b 8d       	ldd	r25, Y+27	; 0x1b
    225c:	ac 8d       	ldd	r26, Y+28	; 0x1c
    225e:	bd 8d       	ldd	r27, Y+29	; 0x1d
    2260:	02 97       	sbiw	r24, 0x02	; 2
    2262:	a1 09       	sbc	r26, r1
    2264:	b1 09       	sbc	r27, r1
    2266:	e8 16       	cp	r14, r24
    2268:	f9 06       	cpc	r15, r25
    226a:	0a 07       	cpc	r16, r26
    226c:	1b 07       	cpc	r17, r27
    226e:	28 f0       	brcs	.+10     	; 0x227a <clust2sect+0x44>
    2270:	20 e0       	ldi	r18, 0x00	; 0
    2272:	30 e0       	ldi	r19, 0x00	; 0
    2274:	40 e0       	ldi	r20, 0x00	; 0
    2276:	50 e0       	ldi	r21, 0x00	; 0
    2278:	12 c0       	rjmp	.+36     	; 0x229e <clust2sect+0x68>
    227a:	2a 81       	ldd	r18, Y+2	; 0x02
    227c:	30 e0       	ldi	r19, 0x00	; 0
    227e:	40 e0       	ldi	r20, 0x00	; 0
    2280:	50 e0       	ldi	r21, 0x00	; 0
    2282:	c8 01       	movw	r24, r16
    2284:	b7 01       	movw	r22, r14
    2286:	0e 94 cf 35 	call	0x6b9e	; 0x6b9e <__mulsi3>
    228a:	9b 01       	movw	r18, r22
    228c:	ac 01       	movw	r20, r24
    228e:	8a a5       	ldd	r24, Y+42	; 0x2a
    2290:	9b a5       	ldd	r25, Y+43	; 0x2b
    2292:	ac a5       	ldd	r26, Y+44	; 0x2c
    2294:	bd a5       	ldd	r27, Y+45	; 0x2d
    2296:	28 0f       	add	r18, r24
    2298:	39 1f       	adc	r19, r25
    229a:	4a 1f       	adc	r20, r26
    229c:	5b 1f       	adc	r21, r27
    229e:	b9 01       	movw	r22, r18
    22a0:	ca 01       	movw	r24, r20
    22a2:	df 91       	pop	r29
    22a4:	cf 91       	pop	r28
    22a6:	1f 91       	pop	r17
    22a8:	0f 91       	pop	r16
    22aa:	ff 90       	pop	r15
    22ac:	ef 90       	pop	r14
    22ae:	08 95       	ret

000022b0 <get_fileinfo>:
    22b0:	cf 93       	push	r28
    22b2:	df 93       	push	r29
    22b4:	fc 01       	movw	r30, r24
    22b6:	ab 01       	movw	r20, r22
    22b8:	eb 01       	movw	r28, r22
    22ba:	29 96       	adiw	r28, 0x09	; 9
    22bc:	86 85       	ldd	r24, Z+14	; 0x0e
    22be:	97 85       	ldd	r25, Z+15	; 0x0f
    22c0:	a0 89       	ldd	r26, Z+16	; 0x10
    22c2:	b1 89       	ldd	r27, Z+17	; 0x11
    22c4:	00 97       	sbiw	r24, 0x00	; 0
    22c6:	a1 05       	cpc	r26, r1
    22c8:	b1 05       	cpc	r27, r1
    22ca:	09 f4       	brne	.+2      	; 0x22ce <get_fileinfo+0x1e>
    22cc:	46 c0       	rjmp	.+140    	; 0x235a <get_fileinfo+0xaa>
    22ce:	22 89       	ldd	r18, Z+18	; 0x12
    22d0:	33 89       	ldd	r19, Z+19	; 0x13
    22d2:	80 e0       	ldi	r24, 0x00	; 0
    22d4:	90 e0       	ldi	r25, 0x00	; 0
    22d6:	f9 01       	movw	r30, r18
    22d8:	e8 0f       	add	r30, r24
    22da:	f9 1f       	adc	r31, r25
    22dc:	e0 81       	ld	r30, Z
    22de:	e0 32       	cpi	r30, 0x20	; 32
    22e0:	41 f0       	breq	.+16     	; 0x22f2 <get_fileinfo+0x42>
    22e2:	e5 30       	cpi	r30, 0x05	; 5
    22e4:	09 f4       	brne	.+2      	; 0x22e8 <get_fileinfo+0x38>
    22e6:	e5 ee       	ldi	r30, 0xE5	; 229
    22e8:	e9 93       	st	Y+, r30
    22ea:	01 96       	adiw	r24, 0x01	; 1
    22ec:	88 30       	cpi	r24, 0x08	; 8
    22ee:	91 05       	cpc	r25, r1
    22f0:	91 f7       	brne	.-28     	; 0x22d6 <get_fileinfo+0x26>
    22f2:	d9 01       	movw	r26, r18
    22f4:	18 96       	adiw	r26, 0x08	; 8
    22f6:	8c 91       	ld	r24, X
    22f8:	80 32       	cpi	r24, 0x20	; 32
    22fa:	11 f4       	brne	.+4      	; 0x2300 <get_fileinfo+0x50>
    22fc:	fe 01       	movw	r30, r28
    22fe:	11 c0       	rjmp	.+34     	; 0x2322 <get_fileinfo+0x72>
    2300:	fe 01       	movw	r30, r28
    2302:	8e e2       	ldi	r24, 0x2E	; 46
    2304:	81 93       	st	Z+, r24
    2306:	d9 01       	movw	r26, r18
    2308:	be 01       	movw	r22, r28
    230a:	6c 5f       	subi	r22, 0xFC	; 252
    230c:	7f 4f       	sbci	r23, 0xFF	; 255
    230e:	18 96       	adiw	r26, 0x08	; 8
    2310:	8c 91       	ld	r24, X
    2312:	18 97       	sbiw	r26, 0x08	; 8
    2314:	80 32       	cpi	r24, 0x20	; 32
    2316:	29 f0       	breq	.+10     	; 0x2322 <get_fileinfo+0x72>
    2318:	81 93       	st	Z+, r24
    231a:	11 96       	adiw	r26, 0x01	; 1
    231c:	e6 17       	cp	r30, r22
    231e:	f7 07       	cpc	r31, r23
    2320:	b1 f7       	brne	.-20     	; 0x230e <get_fileinfo+0x5e>
    2322:	e9 01       	movw	r28, r18
    2324:	8b 85       	ldd	r24, Y+11	; 0x0b
    2326:	da 01       	movw	r26, r20
    2328:	18 96       	adiw	r26, 0x08	; 8
    232a:	8c 93       	st	X, r24
    232c:	8c 8d       	ldd	r24, Y+28	; 0x1c
    232e:	9d 8d       	ldd	r25, Y+29	; 0x1d
    2330:	ae 8d       	ldd	r26, Y+30	; 0x1e
    2332:	bf 8d       	ldd	r27, Y+31	; 0x1f
    2334:	ea 01       	movw	r28, r20
    2336:	88 83       	st	Y, r24
    2338:	99 83       	std	Y+1, r25	; 0x01
    233a:	aa 83       	std	Y+2, r26	; 0x02
    233c:	bb 83       	std	Y+3, r27	; 0x03
    233e:	d9 01       	movw	r26, r18
    2340:	58 96       	adiw	r26, 0x18	; 24
    2342:	8d 91       	ld	r24, X+
    2344:	9c 91       	ld	r25, X
    2346:	59 97       	sbiw	r26, 0x19	; 25
    2348:	9d 83       	std	Y+5, r25	; 0x05
    234a:	8c 83       	std	Y+4, r24	; 0x04
    234c:	56 96       	adiw	r26, 0x16	; 22
    234e:	8d 91       	ld	r24, X+
    2350:	9c 91       	ld	r25, X
    2352:	57 97       	sbiw	r26, 0x17	; 23
    2354:	9f 83       	std	Y+7, r25	; 0x07
    2356:	8e 83       	std	Y+6, r24	; 0x06
    2358:	ef 01       	movw	r28, r30
    235a:	18 82       	st	Y, r1
    235c:	df 91       	pop	r29
    235e:	cf 91       	pop	r28
    2360:	08 95       	ret

00002362 <f_mount>:
    2362:	db 01       	movw	r26, r22
    2364:	88 23       	and	r24, r24
    2366:	11 f0       	breq	.+4      	; 0x236c <f_mount+0xa>
    2368:	8b e0       	ldi	r24, 0x0B	; 11
    236a:	08 95       	ret
    236c:	e0 91 60 01 	lds	r30, 0x0160
    2370:	f0 91 61 01 	lds	r31, 0x0161
    2374:	30 97       	sbiw	r30, 0x00	; 0
    2376:	09 f0       	breq	.+2      	; 0x237a <f_mount+0x18>
    2378:	10 82       	st	Z, r1
    237a:	10 97       	sbiw	r26, 0x00	; 0
    237c:	09 f0       	breq	.+2      	; 0x2380 <f_mount+0x1e>
    237e:	1c 92       	st	X, r1
    2380:	b0 93 61 01 	sts	0x0161, r27
    2384:	a0 93 60 01 	sts	0x0160, r26
    2388:	80 e0       	ldi	r24, 0x00	; 0
    238a:	08 95       	ret

0000238c <f_chdrive>:
    238c:	88 23       	and	r24, r24
    238e:	11 f0       	breq	.+4      	; 0x2394 <f_chdrive+0x8>
    2390:	8b e0       	ldi	r24, 0x0B	; 11
    2392:	08 95       	ret
    2394:	10 92 64 01 	sts	0x0164, r1
    2398:	80 e0       	ldi	r24, 0x00	; 0
    239a:	08 95       	ret

0000239c <f_mkfs>:
    239c:	2f 92       	push	r2
    239e:	3f 92       	push	r3
    23a0:	4f 92       	push	r4
    23a2:	5f 92       	push	r5
    23a4:	6f 92       	push	r6
    23a6:	7f 92       	push	r7
    23a8:	8f 92       	push	r8
    23aa:	9f 92       	push	r9
    23ac:	af 92       	push	r10
    23ae:	bf 92       	push	r11
    23b0:	cf 92       	push	r12
    23b2:	df 92       	push	r13
    23b4:	ef 92       	push	r14
    23b6:	ff 92       	push	r15
    23b8:	0f 93       	push	r16
    23ba:	1f 93       	push	r17
    23bc:	df 93       	push	r29
    23be:	cf 93       	push	r28
    23c0:	cd b7       	in	r28, 0x3d	; 61
    23c2:	de b7       	in	r29, 0x3e	; 62
    23c4:	a8 97       	sbiw	r28, 0x28	; 40
    23c6:	0f b6       	in	r0, 0x3f	; 63
    23c8:	f8 94       	cli
    23ca:	de bf       	out	0x3e, r29	; 62
    23cc:	0f be       	out	0x3f, r0	; 63
    23ce:	cd bf       	out	0x3d, r28	; 61
    23d0:	6c a3       	std	Y+36, r22	; 0x24
    23d2:	8a 01       	movw	r16, r20
    23d4:	88 23       	and	r24, r24
    23d6:	11 f0       	breq	.+4      	; 0x23dc <f_mkfs+0x40>
    23d8:	8b e0       	ldi	r24, 0x0B	; 11
    23da:	56 c4       	rjmp	.+2220   	; 0x2c88 <f_mkfs+0x8ec>
    23dc:	60 90 60 01 	lds	r6, 0x0160
    23e0:	70 90 61 01 	lds	r7, 0x0161
    23e4:	61 14       	cp	r6, r1
    23e6:	71 04       	cpc	r7, r1
    23e8:	11 f4       	brne	.+4      	; 0x23ee <f_mkfs+0x52>
    23ea:	8c e0       	ldi	r24, 0x0C	; 12
    23ec:	4d c4       	rjmp	.+2202   	; 0x2c88 <f_mkfs+0x8ec>
    23ee:	d3 01       	movw	r26, r6
    23f0:	1c 92       	st	X, r1
    23f2:	80 e0       	ldi	r24, 0x00	; 0
    23f4:	0e 94 82 32 	call	0x6504	; 0x6504 <disk_initialize>
    23f8:	80 ff       	sbrs	r24, 0
    23fa:	02 c0       	rjmp	.+4      	; 0x2400 <f_mkfs+0x64>
    23fc:	83 e0       	ldi	r24, 0x03	; 3
    23fe:	44 c4       	rjmp	.+2184   	; 0x2c88 <f_mkfs+0x8ec>
    2400:	82 ff       	sbrs	r24, 2
    2402:	02 c0       	rjmp	.+4      	; 0x2408 <f_mkfs+0x6c>
    2404:	8a e0       	ldi	r24, 0x0A	; 10
    2406:	40 c4       	rjmp	.+2176   	; 0x2c88 <f_mkfs+0x8ec>
    2408:	80 e0       	ldi	r24, 0x00	; 0
    240a:	61 e0       	ldi	r22, 0x01	; 1
    240c:	ae 01       	movw	r20, r28
    240e:	4b 5f       	subi	r20, 0xFB	; 251
    2410:	5f 4f       	sbci	r21, 0xFF	; 255
    2412:	0e 94 11 34 	call	0x6822	; 0x6822 <disk_ioctl>
    2416:	88 23       	and	r24, r24
    2418:	09 f0       	breq	.+2      	; 0x241c <f_mkfs+0x80>
    241a:	33 c4       	rjmp	.+2150   	; 0x2c82 <f_mkfs+0x8e6>
    241c:	6d 81       	ldd	r22, Y+5	; 0x05
    241e:	7e 81       	ldd	r23, Y+6	; 0x06
    2420:	8f 81       	ldd	r24, Y+7	; 0x07
    2422:	98 85       	ldd	r25, Y+8	; 0x08
    2424:	60 38       	cpi	r22, 0x80	; 128
    2426:	71 05       	cpc	r23, r1
    2428:	81 05       	cpc	r24, r1
    242a:	91 05       	cpc	r25, r1
    242c:	08 f4       	brcc	.+2      	; 0x2430 <f_mkfs+0x94>
    242e:	29 c4       	rjmp	.+2130   	; 0x2c82 <f_mkfs+0x8e6>
    2430:	bc a1       	ldd	r27, Y+36	; 0x24
    2432:	bb 23       	and	r27, r27
    2434:	51 f4       	brne	.+20     	; 0x244a <f_mkfs+0xae>
    2436:	2f e3       	ldi	r18, 0x3F	; 63
    2438:	c2 2e       	mov	r12, r18
    243a:	d1 2c       	mov	r13, r1
    243c:	e1 2c       	mov	r14, r1
    243e:	f1 2c       	mov	r15, r1
    2440:	cd 8a       	std	Y+21, r12	; 0x15
    2442:	de 8a       	std	Y+22, r13	; 0x16
    2444:	ef 8a       	std	Y+23, r14	; 0x17
    2446:	f8 8e       	std	Y+24, r15	; 0x18
    2448:	04 c0       	rjmp	.+8      	; 0x2452 <f_mkfs+0xb6>
    244a:	1d 8a       	std	Y+21, r1	; 0x15
    244c:	1e 8a       	std	Y+22, r1	; 0x16
    244e:	1f 8a       	std	Y+23, r1	; 0x17
    2450:	18 8e       	std	Y+24, r1	; 0x18
    2452:	9b 01       	movw	r18, r22
    2454:	ac 01       	movw	r20, r24
    2456:	cd 88       	ldd	r12, Y+21	; 0x15
    2458:	de 88       	ldd	r13, Y+22	; 0x16
    245a:	ef 88       	ldd	r14, Y+23	; 0x17
    245c:	f8 8c       	ldd	r15, Y+24	; 0x18
    245e:	2c 19       	sub	r18, r12
    2460:	3d 09       	sbc	r19, r13
    2462:	4e 09       	sbc	r20, r14
    2464:	5f 09       	sbc	r21, r15
    2466:	28 a3       	std	Y+32, r18	; 0x20
    2468:	39 a3       	std	Y+33, r19	; 0x21
    246a:	4a a3       	std	Y+34, r20	; 0x22
    246c:	5b a3       	std	Y+35, r21	; 0x23
    246e:	c8 01       	movw	r24, r16
    2470:	01 97       	sbiw	r24, 0x01	; 1
    2472:	80 23       	and	r24, r16
    2474:	91 23       	and	r25, r17
    2476:	89 2b       	or	r24, r25
    2478:	19 f4       	brne	.+6      	; 0x2480 <f_mkfs+0xe4>
    247a:	01 15       	cp	r16, r1
    247c:	11 05       	cpc	r17, r1
    247e:	19 f5       	brne	.+70     	; 0x24c6 <f_mkfs+0x12a>
    2480:	68 a1       	ldd	r22, Y+32	; 0x20
    2482:	79 a1       	ldd	r23, Y+33	; 0x21
    2484:	8a a1       	ldd	r24, Y+34	; 0x22
    2486:	9b a1       	ldd	r25, Y+35	; 0x23
    2488:	20 ed       	ldi	r18, 0xD0	; 208
    248a:	37 e0       	ldi	r19, 0x07	; 7
    248c:	40 e0       	ldi	r20, 0x00	; 0
    248e:	50 e0       	ldi	r21, 0x00	; 0
    2490:	0e 94 ee 35 	call	0x6bdc	; 0x6bdc <__udivmodsi4>
    2494:	79 01       	movw	r14, r18
    2496:	8a 01       	movw	r16, r20
    2498:	21 ec       	ldi	r18, 0xC1	; 193
    249a:	30 e0       	ldi	r19, 0x00	; 0
    249c:	e0 e0       	ldi	r30, 0x00	; 0
    249e:	f0 e0       	ldi	r31, 0x00	; 0
    24a0:	01 c0       	rjmp	.+2      	; 0x24a4 <f_mkfs+0x108>
    24a2:	31 96       	adiw	r30, 0x01	; 1
    24a4:	d9 01       	movw	r26, r18
    24a6:	8d 91       	ld	r24, X+
    24a8:	9d 91       	ld	r25, X+
    24aa:	9d 01       	movw	r18, r26
    24ac:	a0 e0       	ldi	r26, 0x00	; 0
    24ae:	b0 e0       	ldi	r27, 0x00	; 0
    24b0:	e8 16       	cp	r14, r24
    24b2:	f9 06       	cpc	r15, r25
    24b4:	0a 07       	cpc	r16, r26
    24b6:	1b 07       	cpc	r17, r27
    24b8:	a0 f3       	brcs	.-24     	; 0x24a2 <f_mkfs+0x106>
    24ba:	ee 0f       	add	r30, r30
    24bc:	ff 1f       	adc	r31, r31
    24be:	e5 55       	subi	r30, 0x55	; 85
    24c0:	ff 4f       	sbci	r31, 0xFF	; 255
    24c2:	00 81       	ld	r16, Z
    24c4:	11 81       	ldd	r17, Z+1	; 0x01
    24c6:	48 01       	movw	r8, r16
    24c8:	89 2c       	mov	r8, r9
    24ca:	99 24       	eor	r9, r9
    24cc:	86 94       	lsr	r8
    24ce:	81 14       	cp	r8, r1
    24d0:	91 04       	cpc	r9, r1
    24d2:	19 f4       	brne	.+6      	; 0x24da <f_mkfs+0x13e>
    24d4:	f1 e0       	ldi	r31, 0x01	; 1
    24d6:	8f 2e       	mov	r8, r31
    24d8:	91 2c       	mov	r9, r1
    24da:	64 01       	movw	r12, r8
    24dc:	ee 24       	eor	r14, r14
    24de:	ff 24       	eor	r15, r15
    24e0:	cc 8e       	std	Y+28, r12	; 0x1c
    24e2:	dd 8e       	std	Y+29, r13	; 0x1d
    24e4:	ee 8e       	std	Y+30, r14	; 0x1e
    24e6:	ff 8e       	std	Y+31, r15	; 0x1f
    24e8:	68 a1       	ldd	r22, Y+32	; 0x20
    24ea:	79 a1       	ldd	r23, Y+33	; 0x21
    24ec:	8a a1       	ldd	r24, Y+34	; 0x22
    24ee:	9b a1       	ldd	r25, Y+35	; 0x23
    24f0:	a7 01       	movw	r20, r14
    24f2:	96 01       	movw	r18, r12
    24f4:	0e 94 ee 35 	call	0x6bdc	; 0x6bdc <__udivmodsi4>
    24f8:	c9 01       	movw	r24, r18
    24fa:	da 01       	movw	r26, r20
    24fc:	86 3f       	cpi	r24, 0xF6	; 246
    24fe:	2f e0       	ldi	r18, 0x0F	; 15
    2500:	92 07       	cpc	r25, r18
    2502:	20 e0       	ldi	r18, 0x00	; 0
    2504:	a2 07       	cpc	r26, r18
    2506:	20 e0       	ldi	r18, 0x00	; 0
    2508:	b2 07       	cpc	r27, r18
    250a:	50 f0       	brcs	.+20     	; 0x2520 <f_mkfs+0x184>
    250c:	86 3f       	cpi	r24, 0xF6	; 246
    250e:	3f ef       	ldi	r19, 0xFF	; 255
    2510:	93 07       	cpc	r25, r19
    2512:	30 e0       	ldi	r19, 0x00	; 0
    2514:	a3 07       	cpc	r26, r19
    2516:	30 e0       	ldi	r19, 0x00	; 0
    2518:	b3 07       	cpc	r27, r19
    251a:	08 f0       	brcs	.+2      	; 0x251e <f_mkfs+0x182>
    251c:	ce c3       	rjmp	.+1948   	; 0x2cba <f_mkfs+0x91e>
    251e:	f6 c3       	rjmp	.+2028   	; 0x2d0c <f_mkfs+0x970>
    2520:	9c 01       	movw	r18, r24
    2522:	ad 01       	movw	r20, r26
    2524:	22 0f       	add	r18, r18
    2526:	33 1f       	adc	r19, r19
    2528:	44 1f       	adc	r20, r20
    252a:	55 1f       	adc	r21, r21
    252c:	28 0f       	add	r18, r24
    252e:	39 1f       	adc	r19, r25
    2530:	4a 1f       	adc	r20, r26
    2532:	5b 1f       	adc	r21, r27
    2534:	2f 5f       	subi	r18, 0xFF	; 255
    2536:	3f 4f       	sbci	r19, 0xFF	; 255
    2538:	4f 4f       	sbci	r20, 0xFF	; 255
    253a:	5f 4f       	sbci	r21, 0xFF	; 255
    253c:	56 95       	lsr	r21
    253e:	47 95       	ror	r20
    2540:	37 95       	ror	r19
    2542:	27 95       	ror	r18
    2544:	2d 5f       	subi	r18, 0xFD	; 253
    2546:	3f 4f       	sbci	r19, 0xFF	; 255
    2548:	4f 4f       	sbci	r20, 0xFF	; 255
    254a:	5f 4f       	sbci	r21, 0xFF	; 255
    254c:	81 e0       	ldi	r24, 0x01	; 1
    254e:	89 8f       	std	Y+25, r24	; 0x19
    2550:	6f ef       	ldi	r22, 0xFF	; 255
    2552:	26 2e       	mov	r2, r22
    2554:	61 e0       	ldi	r22, 0x01	; 1
    2556:	36 2e       	mov	r3, r22
    2558:	41 2c       	mov	r4, r1
    255a:	51 2c       	mov	r5, r1
    255c:	22 0e       	add	r2, r18
    255e:	33 1e       	adc	r3, r19
    2560:	44 1e       	adc	r4, r20
    2562:	55 1e       	adc	r5, r21
    2564:	59 e0       	ldi	r21, 0x09	; 9
    2566:	56 94       	lsr	r5
    2568:	47 94       	ror	r4
    256a:	37 94       	ror	r3
    256c:	27 94       	ror	r2
    256e:	5a 95       	dec	r21
    2570:	d1 f7       	brne	.-12     	; 0x2566 <f_mkfs+0x1ca>
    2572:	41 e0       	ldi	r20, 0x01	; 1
    2574:	c4 2e       	mov	r12, r20
    2576:	d1 2c       	mov	r13, r1
    2578:	e1 2c       	mov	r14, r1
    257a:	f1 2c       	mov	r15, r1
    257c:	cd 86       	std	Y+13, r12	; 0x0d
    257e:	de 86       	std	Y+14, r13	; 0x0e
    2580:	ef 86       	std	Y+15, r14	; 0x0f
    2582:	f8 8a       	std	Y+16, r15	; 0x10
    2584:	20 e2       	ldi	r18, 0x20	; 32
    2586:	30 e0       	ldi	r19, 0x00	; 0
    2588:	40 e0       	ldi	r20, 0x00	; 0
    258a:	50 e0       	ldi	r21, 0x00	; 0
    258c:	29 87       	std	Y+9, r18	; 0x09
    258e:	3a 87       	std	Y+10, r19	; 0x0a
    2590:	4b 87       	std	Y+11, r20	; 0x0b
    2592:	5c 87       	std	Y+12, r21	; 0x0c
    2594:	8d 85       	ldd	r24, Y+13	; 0x0d
    2596:	9e 85       	ldd	r25, Y+14	; 0x0e
    2598:	af 85       	ldd	r26, Y+15	; 0x0f
    259a:	b8 89       	ldd	r27, Y+16	; 0x10
    259c:	cd 88       	ldd	r12, Y+21	; 0x15
    259e:	de 88       	ldd	r13, Y+22	; 0x16
    25a0:	ef 88       	ldd	r14, Y+23	; 0x17
    25a2:	f8 8c       	ldd	r15, Y+24	; 0x18
    25a4:	8c 0d       	add	r24, r12
    25a6:	9d 1d       	adc	r25, r13
    25a8:	ae 1d       	adc	r26, r14
    25aa:	bf 1d       	adc	r27, r15
    25ac:	89 8b       	std	Y+17, r24	; 0x11
    25ae:	9a 8b       	std	Y+18, r25	; 0x12
    25b0:	ab 8b       	std	Y+19, r26	; 0x13
    25b2:	bc 8b       	std	Y+20, r27	; 0x14
    25b4:	a9 84       	ldd	r10, Y+9	; 0x09
    25b6:	ba 84       	ldd	r11, Y+10	; 0x0a
    25b8:	cb 84       	ldd	r12, Y+11	; 0x0b
    25ba:	dc 84       	ldd	r13, Y+12	; 0x0c
    25bc:	a2 0c       	add	r10, r2
    25be:	b3 1c       	adc	r11, r3
    25c0:	c4 1c       	adc	r12, r4
    25c2:	d5 1c       	adc	r13, r5
    25c4:	a8 0e       	add	r10, r24
    25c6:	b9 1e       	adc	r11, r25
    25c8:	ca 1e       	adc	r12, r26
    25ca:	db 1e       	adc	r13, r27
    25cc:	8c 8d       	ldd	r24, Y+28	; 0x1c
    25ce:	9d 8d       	ldd	r25, Y+29	; 0x1d
    25d0:	ae 8d       	ldd	r26, Y+30	; 0x1e
    25d2:	bf 8d       	ldd	r27, Y+31	; 0x1f
    25d4:	8a 0d       	add	r24, r10
    25d6:	9b 1d       	adc	r25, r11
    25d8:	ac 1d       	adc	r26, r12
    25da:	bd 1d       	adc	r27, r13
    25dc:	28 a1       	ldd	r18, Y+32	; 0x20
    25de:	39 a1       	ldd	r19, Y+33	; 0x21
    25e0:	4a a1       	ldd	r20, Y+34	; 0x22
    25e2:	5b a1       	ldd	r21, Y+35	; 0x23
    25e4:	28 17       	cp	r18, r24
    25e6:	39 07       	cpc	r19, r25
    25e8:	4a 07       	cpc	r20, r26
    25ea:	5b 07       	cpc	r21, r27
    25ec:	08 f4       	brcc	.+2      	; 0x25f0 <f_mkfs+0x254>
    25ee:	4b c3       	rjmp	.+1686   	; 0x2c86 <f_mkfs+0x8ea>
    25f0:	2d 83       	std	Y+5, r18	; 0x05
    25f2:	3e 83       	std	Y+6, r19	; 0x06
    25f4:	4f 83       	std	Y+7, r20	; 0x07
    25f6:	58 87       	std	Y+8, r21	; 0x08
    25f8:	80 e0       	ldi	r24, 0x00	; 0
    25fa:	63 e0       	ldi	r22, 0x03	; 3
    25fc:	ae 01       	movw	r20, r28
    25fe:	4f 5f       	subi	r20, 0xFF	; 255
    2600:	5f 4f       	sbci	r21, 0xFF	; 255
    2602:	0e 94 11 34 	call	0x6822	; 0x6822 <disk_ioctl>
    2606:	88 23       	and	r24, r24
    2608:	69 f4       	brne	.+26     	; 0x2624 <f_mkfs+0x288>
    260a:	89 81       	ldd	r24, Y+1	; 0x01
    260c:	9a 81       	ldd	r25, Y+2	; 0x02
    260e:	ab 81       	ldd	r26, Y+3	; 0x03
    2610:	bc 81       	ldd	r27, Y+4	; 0x04
    2612:	00 97       	sbiw	r24, 0x00	; 0
    2614:	a1 05       	cpc	r26, r1
    2616:	b1 05       	cpc	r27, r1
    2618:	29 f0       	breq	.+10     	; 0x2624 <f_mkfs+0x288>
    261a:	81 50       	subi	r24, 0x01	; 1
    261c:	90 48       	sbci	r25, 0x80	; 128
    261e:	a0 40       	sbci	r26, 0x00	; 0
    2620:	b0 40       	sbci	r27, 0x00	; 0
    2622:	40 f0       	brcs	.+16     	; 0x2634 <f_mkfs+0x298>
    2624:	81 e0       	ldi	r24, 0x01	; 1
    2626:	90 e0       	ldi	r25, 0x00	; 0
    2628:	a0 e0       	ldi	r26, 0x00	; 0
    262a:	b0 e0       	ldi	r27, 0x00	; 0
    262c:	89 83       	std	Y+1, r24	; 0x01
    262e:	9a 83       	std	Y+2, r25	; 0x02
    2630:	ab 83       	std	Y+3, r26	; 0x03
    2632:	bc 83       	std	Y+4, r27	; 0x04
    2634:	89 81       	ldd	r24, Y+1	; 0x01
    2636:	9a 81       	ldd	r25, Y+2	; 0x02
    2638:	ab 81       	ldd	r26, Y+3	; 0x03
    263a:	bc 81       	ldd	r27, Y+4	; 0x04
    263c:	7c 01       	movw	r14, r24
    263e:	8d 01       	movw	r16, r26
    2640:	08 94       	sec
    2642:	e1 08       	sbc	r14, r1
    2644:	f1 08       	sbc	r15, r1
    2646:	01 09       	sbc	r16, r1
    2648:	11 09       	sbc	r17, r1
    264a:	ea 0c       	add	r14, r10
    264c:	fb 1c       	adc	r15, r11
    264e:	0c 1d       	adc	r16, r12
    2650:	1d 1d       	adc	r17, r13
    2652:	b0 95       	com	r27
    2654:	a0 95       	com	r26
    2656:	90 95       	com	r25
    2658:	81 95       	neg	r24
    265a:	9f 4f       	sbci	r25, 0xFF	; 255
    265c:	af 4f       	sbci	r26, 0xFF	; 255
    265e:	bf 4f       	sbci	r27, 0xFF	; 255
    2660:	e8 22       	and	r14, r24
    2662:	f9 22       	and	r15, r25
    2664:	0a 23       	and	r16, r26
    2666:	1b 23       	and	r17, r27
    2668:	ea 18       	sub	r14, r10
    266a:	fb 08       	sbc	r15, r11
    266c:	0c 09       	sbc	r16, r12
    266e:	1d 09       	sbc	r17, r13
    2670:	49 8d       	ldd	r20, Y+25	; 0x19
    2672:	43 30       	cpi	r20, 0x03	; 3
    2674:	c9 f4       	brne	.+50     	; 0x26a8 <f_mkfs+0x30c>
    2676:	8d 85       	ldd	r24, Y+13	; 0x0d
    2678:	9e 85       	ldd	r25, Y+14	; 0x0e
    267a:	af 85       	ldd	r26, Y+15	; 0x0f
    267c:	b8 89       	ldd	r27, Y+16	; 0x10
    267e:	8e 0d       	add	r24, r14
    2680:	9f 1d       	adc	r25, r15
    2682:	a0 1f       	adc	r26, r16
    2684:	b1 1f       	adc	r27, r17
    2686:	8d 87       	std	Y+13, r24	; 0x0d
    2688:	9e 87       	std	Y+14, r25	; 0x0e
    268a:	af 87       	std	Y+15, r26	; 0x0f
    268c:	b8 8b       	std	Y+16, r27	; 0x10
    268e:	29 89       	ldd	r18, Y+17	; 0x11
    2690:	3a 89       	ldd	r19, Y+18	; 0x12
    2692:	4b 89       	ldd	r20, Y+19	; 0x13
    2694:	5c 89       	ldd	r21, Y+20	; 0x14
    2696:	2e 0d       	add	r18, r14
    2698:	3f 1d       	adc	r19, r15
    269a:	40 1f       	adc	r20, r16
    269c:	51 1f       	adc	r21, r17
    269e:	29 8b       	std	Y+17, r18	; 0x11
    26a0:	3a 8b       	std	Y+18, r19	; 0x12
    26a2:	4b 8b       	std	Y+19, r20	; 0x13
    26a4:	5c 8b       	std	Y+20, r21	; 0x14
    26a6:	04 c0       	rjmp	.+8      	; 0x26b0 <f_mkfs+0x314>
    26a8:	2e 0c       	add	r2, r14
    26aa:	3f 1c       	adc	r3, r15
    26ac:	40 1e       	adc	r4, r16
    26ae:	51 1e       	adc	r5, r17
    26b0:	ad 80       	ldd	r10, Y+5	; 0x05
    26b2:	be 80       	ldd	r11, Y+6	; 0x06
    26b4:	cf 80       	ldd	r12, Y+7	; 0x07
    26b6:	d8 84       	ldd	r13, Y+8	; 0x08
    26b8:	c6 01       	movw	r24, r12
    26ba:	b5 01       	movw	r22, r10
    26bc:	2d 85       	ldd	r18, Y+13	; 0x0d
    26be:	3e 85       	ldd	r19, Y+14	; 0x0e
    26c0:	4f 85       	ldd	r20, Y+15	; 0x0f
    26c2:	58 89       	ldd	r21, Y+16	; 0x10
    26c4:	62 1b       	sub	r22, r18
    26c6:	73 0b       	sbc	r23, r19
    26c8:	84 0b       	sbc	r24, r20
    26ca:	95 0b       	sbc	r25, r21
    26cc:	62 19       	sub	r22, r2
    26ce:	73 09       	sbc	r23, r3
    26d0:	84 09       	sbc	r24, r4
    26d2:	95 09       	sbc	r25, r5
    26d4:	29 85       	ldd	r18, Y+9	; 0x09
    26d6:	3a 85       	ldd	r19, Y+10	; 0x0a
    26d8:	4b 85       	ldd	r20, Y+11	; 0x0b
    26da:	5c 85       	ldd	r21, Y+12	; 0x0c
    26dc:	62 1b       	sub	r22, r18
    26de:	73 0b       	sbc	r23, r19
    26e0:	84 0b       	sbc	r24, r20
    26e2:	95 0b       	sbc	r25, r21
    26e4:	2c 8d       	ldd	r18, Y+28	; 0x1c
    26e6:	3d 8d       	ldd	r19, Y+29	; 0x1d
    26e8:	4e 8d       	ldd	r20, Y+30	; 0x1e
    26ea:	5f 8d       	ldd	r21, Y+31	; 0x1f
    26ec:	0e 94 ee 35 	call	0x6bdc	; 0x6bdc <__udivmodsi4>
    26f0:	2d a3       	std	Y+37, r18	; 0x25
    26f2:	3e a3       	std	Y+38, r19	; 0x26
    26f4:	4f a3       	std	Y+39, r20	; 0x27
    26f6:	58 a7       	std	Y+40, r21	; 0x28
    26f8:	39 8d       	ldd	r19, Y+25	; 0x19
    26fa:	32 30       	cpi	r19, 0x02	; 2
    26fc:	51 f4       	brne	.+20     	; 0x2712 <f_mkfs+0x376>
    26fe:	8d a1       	ldd	r24, Y+37	; 0x25
    2700:	9e a1       	ldd	r25, Y+38	; 0x26
    2702:	af a1       	ldd	r26, Y+39	; 0x27
    2704:	b8 a5       	ldd	r27, Y+40	; 0x28
    2706:	86 5f       	subi	r24, 0xF6	; 246
    2708:	9f 40       	sbci	r25, 0x0F	; 15
    270a:	a0 40       	sbci	r26, 0x00	; 0
    270c:	b0 40       	sbci	r27, 0x00	; 0
    270e:	70 f4       	brcc	.+28     	; 0x272c <f_mkfs+0x390>
    2710:	ba c2       	rjmp	.+1396   	; 0x2c86 <f_mkfs+0x8ea>
    2712:	f9 8d       	ldd	r31, Y+25	; 0x19
    2714:	f3 30       	cpi	r31, 0x03	; 3
    2716:	51 f4       	brne	.+20     	; 0x272c <f_mkfs+0x390>
    2718:	2d a1       	ldd	r18, Y+37	; 0x25
    271a:	3e a1       	ldd	r19, Y+38	; 0x26
    271c:	4f a1       	ldd	r20, Y+39	; 0x27
    271e:	58 a5       	ldd	r21, Y+40	; 0x28
    2720:	26 5f       	subi	r18, 0xF6	; 246
    2722:	3f 4f       	sbci	r19, 0xFF	; 255
    2724:	40 40       	sbci	r20, 0x00	; 0
    2726:	50 40       	sbci	r21, 0x00	; 0
    2728:	08 f4       	brcc	.+2      	; 0x272c <f_mkfs+0x390>
    272a:	ad c2       	rjmp	.+1370   	; 0x2c86 <f_mkfs+0x8ea>
    272c:	e9 82       	std	Y+1, r14	; 0x01
    272e:	fa 82       	std	Y+2, r15	; 0x02
    2730:	0b 83       	std	Y+3, r16	; 0x03
    2732:	1c 83       	std	Y+4, r17	; 0x04
    2734:	9c a1       	ldd	r25, Y+36	; 0x24
    2736:	99 23       	and	r25, r25
    2738:	11 f0       	breq	.+4      	; 0x273e <f_mkfs+0x3a2>
    273a:	10 ef       	ldi	r17, 0xF0	; 240
    273c:	85 c0       	rjmp	.+266    	; 0x2848 <f_mkfs+0x4ac>
    273e:	4d 89       	ldd	r20, Y+21	; 0x15
    2740:	5e 89       	ldd	r21, Y+22	; 0x16
    2742:	6f 89       	ldd	r22, Y+23	; 0x17
    2744:	78 8d       	ldd	r23, Y+24	; 0x18
    2746:	4a 0d       	add	r20, r10
    2748:	5b 1d       	adc	r21, r11
    274a:	6c 1d       	adc	r22, r12
    274c:	7d 1d       	adc	r23, r13
    274e:	32 e3       	ldi	r19, 0x32	; 50
    2750:	e3 2e       	mov	r14, r19
    2752:	f1 2c       	mov	r15, r1
    2754:	e6 0c       	add	r14, r6
    2756:	f7 1c       	adc	r15, r7
    2758:	f7 01       	movw	r30, r14
    275a:	20 e0       	ldi	r18, 0x00	; 0
    275c:	32 e0       	ldi	r19, 0x02	; 2
    275e:	01 c0       	rjmp	.+2      	; 0x2762 <f_mkfs+0x3c6>
    2760:	11 92       	st	Z+, r1
    2762:	21 50       	subi	r18, 0x01	; 1
    2764:	30 40       	sbci	r19, 0x00	; 0
    2766:	af ef       	ldi	r26, 0xFF	; 255
    2768:	2f 3f       	cpi	r18, 0xFF	; 255
    276a:	3a 07       	cpc	r19, r26
    276c:	c9 f7       	brne	.-14     	; 0x2760 <f_mkfs+0x3c4>
    276e:	83 01       	movw	r16, r6
    2770:	00 51       	subi	r16, 0x10	; 16
    2772:	1e 4f       	sbci	r17, 0xFE	; 254
    2774:	80 e8       	ldi	r24, 0x80	; 128
    2776:	91 e0       	ldi	r25, 0x01	; 1
    2778:	a1 e0       	ldi	r26, 0x01	; 1
    277a:	b0 e0       	ldi	r27, 0x00	; 0
    277c:	f8 01       	movw	r30, r16
    277e:	80 83       	st	Z, r24
    2780:	91 83       	std	Z+1, r25	; 0x01
    2782:	a2 83       	std	Z+2, r26	; 0x02
    2784:	b3 83       	std	Z+3, r27	; 0x03
    2786:	40 30       	cpi	r20, 0x00	; 0
    2788:	f4 e0       	ldi	r31, 0x04	; 4
    278a:	5f 07       	cpc	r21, r31
    278c:	fb ef       	ldi	r31, 0xFB	; 251
    278e:	6f 07       	cpc	r22, r31
    2790:	f0 e0       	ldi	r31, 0x00	; 0
    2792:	7f 07       	cpc	r23, r31
    2794:	b0 f4       	brcc	.+44     	; 0x27c2 <f_mkfs+0x426>
    2796:	cb 01       	movw	r24, r22
    2798:	ba 01       	movw	r22, r20
    279a:	21 ec       	ldi	r18, 0xC1	; 193
    279c:	3e e3       	ldi	r19, 0x3E	; 62
    279e:	40 e0       	ldi	r20, 0x00	; 0
    27a0:	50 e0       	ldi	r21, 0x00	; 0
    27a2:	0e 94 ee 35 	call	0x6bdc	; 0x6bdc <__udivmodsi4>
    27a6:	c9 01       	movw	r24, r18
    27a8:	da 01       	movw	r26, r20
    27aa:	f8 01       	movw	r30, r16
    27ac:	27 83       	std	Z+7, r18	; 0x07
    27ae:	22 e0       	ldi	r18, 0x02	; 2
    27b0:	b6 95       	lsr	r27
    27b2:	a7 95       	ror	r26
    27b4:	97 95       	ror	r25
    27b6:	87 95       	ror	r24
    27b8:	2a 95       	dec	r18
    27ba:	d1 f7       	brne	.-12     	; 0x27b0 <f_mkfs+0x414>
    27bc:	8f 63       	ori	r24, 0x3F	; 63
    27be:	86 83       	std	Z+6, r24	; 0x06
    27c0:	05 c0       	rjmp	.+10     	; 0x27cc <f_mkfs+0x430>
    27c2:	d8 01       	movw	r26, r16
    27c4:	17 96       	adiw	r26, 0x07	; 7
    27c6:	3c 93       	st	X, r19
    27c8:	2e 93       	st	-X, r18
    27ca:	16 97       	sbiw	r26, 0x06	; 6
    27cc:	8e ef       	ldi	r24, 0xFE	; 254
    27ce:	f8 01       	movw	r30, r16
    27d0:	85 83       	std	Z+5, r24	; 0x05
    27d2:	f9 8d       	ldd	r31, Y+25	; 0x19
    27d4:	f3 30       	cpi	r31, 0x03	; 3
    27d6:	81 f0       	breq	.+32     	; 0x27f8 <f_mkfs+0x45c>
    27d8:	8d 81       	ldd	r24, Y+5	; 0x05
    27da:	9e 81       	ldd	r25, Y+6	; 0x06
    27dc:	af 81       	ldd	r26, Y+7	; 0x07
    27de:	b8 85       	ldd	r27, Y+8	; 0x08
    27e0:	80 50       	subi	r24, 0x00	; 0
    27e2:	90 40       	sbci	r25, 0x00	; 0
    27e4:	a1 40       	sbci	r26, 0x01	; 1
    27e6:	b0 40       	sbci	r27, 0x00	; 0
    27e8:	10 f0       	brcs	.+4      	; 0x27ee <f_mkfs+0x452>
    27ea:	86 e0       	ldi	r24, 0x06	; 6
    27ec:	01 c0       	rjmp	.+2      	; 0x27f0 <f_mkfs+0x454>
    27ee:	84 e0       	ldi	r24, 0x04	; 4
    27f0:	d8 01       	movw	r26, r16
    27f2:	14 96       	adiw	r26, 0x04	; 4
    27f4:	8c 93       	st	X, r24
    27f6:	03 c0       	rjmp	.+6      	; 0x27fe <f_mkfs+0x462>
    27f8:	8c e0       	ldi	r24, 0x0C	; 12
    27fa:	f8 01       	movw	r30, r16
    27fc:	84 83       	std	Z+4, r24	; 0x04
    27fe:	8f e3       	ldi	r24, 0x3F	; 63
    2800:	90 e0       	ldi	r25, 0x00	; 0
    2802:	a0 e0       	ldi	r26, 0x00	; 0
    2804:	b0 e0       	ldi	r27, 0x00	; 0
    2806:	f8 01       	movw	r30, r16
    2808:	80 87       	std	Z+8, r24	; 0x08
    280a:	91 87       	std	Z+9, r25	; 0x09
    280c:	a2 87       	std	Z+10, r26	; 0x0a
    280e:	b3 87       	std	Z+11, r27	; 0x0b
    2810:	8d 81       	ldd	r24, Y+5	; 0x05
    2812:	9e 81       	ldd	r25, Y+6	; 0x06
    2814:	af 81       	ldd	r26, Y+7	; 0x07
    2816:	b8 85       	ldd	r27, Y+8	; 0x08
    2818:	84 87       	std	Z+12, r24	; 0x0c
    281a:	95 87       	std	Z+13, r25	; 0x0d
    281c:	a6 87       	std	Z+14, r26	; 0x0e
    281e:	b7 87       	std	Z+15, r27	; 0x0f
    2820:	00 5c       	subi	r16, 0xC0	; 192
    2822:	1f 4f       	sbci	r17, 0xFF	; 255
    2824:	85 e5       	ldi	r24, 0x55	; 85
    2826:	9a ea       	ldi	r25, 0xAA	; 170
    2828:	d8 01       	movw	r26, r16
    282a:	8d 93       	st	X+, r24
    282c:	9c 93       	st	X, r25
    282e:	80 e0       	ldi	r24, 0x00	; 0
    2830:	b7 01       	movw	r22, r14
    2832:	20 e0       	ldi	r18, 0x00	; 0
    2834:	30 e0       	ldi	r19, 0x00	; 0
    2836:	40 e0       	ldi	r20, 0x00	; 0
    2838:	50 e0       	ldi	r21, 0x00	; 0
    283a:	01 e0       	ldi	r16, 0x01	; 1
    283c:	0e 94 a1 33 	call	0x6742	; 0x6742 <disk_write>
    2840:	88 23       	and	r24, r24
    2842:	09 f0       	breq	.+2      	; 0x2846 <f_mkfs+0x4aa>
    2844:	1e c2       	rjmp	.+1084   	; 0x2c82 <f_mkfs+0x8e6>
    2846:	18 ef       	ldi	r17, 0xF8	; 248
    2848:	e2 e3       	ldi	r30, 0x32	; 50
    284a:	ee 2e       	mov	r14, r30
    284c:	f1 2c       	mov	r15, r1
    284e:	e6 0c       	add	r14, r6
    2850:	f7 1c       	adc	r15, r7
    2852:	f7 01       	movw	r30, r14
    2854:	80 e0       	ldi	r24, 0x00	; 0
    2856:	92 e0       	ldi	r25, 0x02	; 2
    2858:	01 c0       	rjmp	.+2      	; 0x285c <f_mkfs+0x4c0>
    285a:	11 92       	st	Z+, r1
    285c:	01 97       	sbiw	r24, 0x01	; 1
    285e:	bf ef       	ldi	r27, 0xFF	; 255
    2860:	8f 3f       	cpi	r24, 0xFF	; 255
    2862:	9b 07       	cpc	r25, r27
    2864:	d1 f7       	brne	.-12     	; 0x285a <f_mkfs+0x4be>
    2866:	c7 01       	movw	r24, r14
    2868:	68 e6       	ldi	r22, 0x68	; 104
    286a:	70 e0       	ldi	r23, 0x00	; 0
    286c:	4b e0       	ldi	r20, 0x0B	; 11
    286e:	50 e0       	ldi	r21, 0x00	; 0
    2870:	0e 94 ef 10 	call	0x21de	; 0x21de <mem_cpy>
    2874:	80 e0       	ldi	r24, 0x00	; 0
    2876:	92 e0       	ldi	r25, 0x02	; 2
    2878:	f7 01       	movw	r30, r14
    287a:	94 87       	std	Z+12, r25	; 0x0c
    287c:	83 87       	std	Z+11, r24	; 0x0b
    287e:	d3 01       	movw	r26, r6
    2880:	df 96       	adiw	r26, 0x3f	; 63
    2882:	8c 92       	st	X, r8
    2884:	cd 84       	ldd	r12, Y+13	; 0x0d
    2886:	de 84       	ldd	r13, Y+14	; 0x0e
    2888:	d7 86       	std	Z+15, r13	; 0x0f
    288a:	c6 86       	std	Z+14, r12	; 0x0e
    288c:	22 e4       	ldi	r18, 0x42	; 66
    288e:	30 e0       	ldi	r19, 0x00	; 0
    2890:	62 0e       	add	r6, r18
    2892:	73 1e       	adc	r7, r19
    2894:	81 e0       	ldi	r24, 0x01	; 1
    2896:	d3 01       	movw	r26, r6
    2898:	8c 93       	st	X, r24
    289a:	ee eb       	ldi	r30, 0xBE	; 190
    289c:	ff ef       	ldi	r31, 0xFF	; 255
    289e:	6e 0e       	add	r6, r30
    28a0:	7f 1e       	adc	r7, r31
    28a2:	f9 8d       	ldd	r31, Y+25	; 0x19
    28a4:	f3 30       	cpi	r31, 0x03	; 3
    28a6:	19 f0       	breq	.+6      	; 0x28ae <f_mkfs+0x512>
    28a8:	80 e0       	ldi	r24, 0x00	; 0
    28aa:	92 e0       	ldi	r25, 0x02	; 2
    28ac:	02 c0       	rjmp	.+4      	; 0x28b2 <f_mkfs+0x516>
    28ae:	80 e0       	ldi	r24, 0x00	; 0
    28b0:	90 e0       	ldi	r25, 0x00	; 0
    28b2:	d7 01       	movw	r26, r14
    28b4:	52 96       	adiw	r26, 0x12	; 18
    28b6:	9c 93       	st	X, r25
    28b8:	8e 93       	st	-X, r24
    28ba:	51 97       	sbiw	r26, 0x11	; 17
    28bc:	8d 81       	ldd	r24, Y+5	; 0x05
    28be:	9e 81       	ldd	r25, Y+6	; 0x06
    28c0:	af 81       	ldd	r26, Y+7	; 0x07
    28c2:	b8 85       	ldd	r27, Y+8	; 0x08
    28c4:	80 30       	cpi	r24, 0x00	; 0
    28c6:	e0 e0       	ldi	r30, 0x00	; 0
    28c8:	9e 07       	cpc	r25, r30
    28ca:	e1 e0       	ldi	r30, 0x01	; 1
    28cc:	ae 07       	cpc	r26, r30
    28ce:	e0 e0       	ldi	r30, 0x00	; 0
    28d0:	be 07       	cpc	r27, r30
    28d2:	20 f4       	brcc	.+8      	; 0x28dc <f_mkfs+0x540>
    28d4:	f7 01       	movw	r30, r14
    28d6:	94 8b       	std	Z+20, r25	; 0x14
    28d8:	83 8b       	std	Z+19, r24	; 0x13
    28da:	05 c0       	rjmp	.+10     	; 0x28e6 <f_mkfs+0x54a>
    28dc:	f7 01       	movw	r30, r14
    28de:	80 a3       	std	Z+32, r24	; 0x20
    28e0:	91 a3       	std	Z+33, r25	; 0x21
    28e2:	a2 a3       	std	Z+34, r26	; 0x22
    28e4:	b3 a3       	std	Z+35, r27	; 0x23
    28e6:	77 e4       	ldi	r23, 0x47	; 71
    28e8:	c7 2e       	mov	r12, r23
    28ea:	d1 2c       	mov	r13, r1
    28ec:	6c 0c       	add	r6, r12
    28ee:	7d 1c       	adc	r7, r13
    28f0:	d3 01       	movw	r26, r6
    28f2:	1c 93       	st	X, r17
    28f4:	e9 eb       	ldi	r30, 0xB9	; 185
    28f6:	ff ef       	ldi	r31, 0xFF	; 255
    28f8:	6e 0e       	add	r6, r30
    28fa:	7f 1e       	adc	r7, r31
    28fc:	8f e3       	ldi	r24, 0x3F	; 63
    28fe:	90 e0       	ldi	r25, 0x00	; 0
    2900:	d7 01       	movw	r26, r14
    2902:	59 96       	adiw	r26, 0x19	; 25
    2904:	9c 93       	st	X, r25
    2906:	8e 93       	st	-X, r24
    2908:	58 97       	sbiw	r26, 0x18	; 24
    290a:	8f ef       	ldi	r24, 0xFF	; 255
    290c:	90 e0       	ldi	r25, 0x00	; 0
    290e:	5b 96       	adiw	r26, 0x1b	; 27
    2910:	9c 93       	st	X, r25
    2912:	8e 93       	st	-X, r24
    2914:	5a 97       	sbiw	r26, 0x1a	; 26
    2916:	2d 89       	ldd	r18, Y+21	; 0x15
    2918:	3e 89       	ldd	r19, Y+22	; 0x16
    291a:	4f 89       	ldd	r20, Y+23	; 0x17
    291c:	58 8d       	ldd	r21, Y+24	; 0x18
    291e:	5c 96       	adiw	r26, 0x1c	; 28
    2920:	2d 93       	st	X+, r18
    2922:	3d 93       	st	X+, r19
    2924:	4d 93       	st	X+, r20
    2926:	5c 93       	st	X, r21
    2928:	5f 97       	sbiw	r26, 0x1f	; 31
    292a:	0e 94 8b 02 	call	0x516	; 0x516 <get_fattime>
    292e:	69 83       	std	Y+1, r22	; 0x01
    2930:	7a 83       	std	Y+2, r23	; 0x02
    2932:	8b 83       	std	Y+3, r24	; 0x03
    2934:	9c 83       	std	Y+4, r25	; 0x04
    2936:	b9 8d       	ldd	r27, Y+25	; 0x19
    2938:	b3 30       	cpi	r27, 0x03	; 3
    293a:	09 f0       	breq	.+2      	; 0x293e <f_mkfs+0x5a2>
    293c:	3f c0       	rjmp	.+126    	; 0x29bc <f_mkfs+0x620>
    293e:	e3 e4       	ldi	r30, 0x43	; 67
    2940:	f0 e0       	ldi	r31, 0x00	; 0
    2942:	ee 0e       	add	r14, r30
    2944:	ff 1e       	adc	r15, r31
    2946:	d7 01       	movw	r26, r14
    2948:	6d 93       	st	X+, r22
    294a:	7d 93       	st	X+, r23
    294c:	8d 93       	st	X+, r24
    294e:	9c 93       	st	X, r25
    2950:	13 97       	sbiw	r26, 0x03	; 3
    2952:	ed eb       	ldi	r30, 0xBD	; 189
    2954:	ff ef       	ldi	r31, 0xFF	; 255
    2956:	ee 0e       	add	r14, r30
    2958:	ff 1e       	adc	r15, r31
    295a:	d7 01       	movw	r26, r14
    295c:	94 96       	adiw	r26, 0x24	; 36
    295e:	2d 92       	st	X+, r2
    2960:	3d 92       	st	X+, r3
    2962:	4d 92       	st	X+, r4
    2964:	5c 92       	st	X, r5
    2966:	97 97       	sbiw	r26, 0x27	; 39
    2968:	82 e0       	ldi	r24, 0x02	; 2
    296a:	90 e0       	ldi	r25, 0x00	; 0
    296c:	a0 e0       	ldi	r26, 0x00	; 0
    296e:	b0 e0       	ldi	r27, 0x00	; 0
    2970:	f7 01       	movw	r30, r14
    2972:	84 a7       	std	Z+44, r24	; 0x2c
    2974:	95 a7       	std	Z+45, r25	; 0x2d
    2976:	a6 a7       	std	Z+46, r26	; 0x2e
    2978:	b7 a7       	std	Z+47, r27	; 0x2f
    297a:	81 e0       	ldi	r24, 0x01	; 1
    297c:	90 e0       	ldi	r25, 0x00	; 0
    297e:	91 ab       	std	Z+49, r25	; 0x31
    2980:	80 ab       	std	Z+48, r24	; 0x30
    2982:	86 e0       	ldi	r24, 0x06	; 6
    2984:	90 e0       	ldi	r25, 0x00	; 0
    2986:	93 ab       	std	Z+51, r25	; 0x33
    2988:	82 ab       	std	Z+50, r24	; 0x32
    298a:	62 e7       	ldi	r22, 0x72	; 114
    298c:	c6 2e       	mov	r12, r22
    298e:	d1 2c       	mov	r13, r1
    2990:	6c 0c       	add	r6, r12
    2992:	7d 1c       	adc	r7, r13
    2994:	80 e8       	ldi	r24, 0x80	; 128
    2996:	d3 01       	movw	r26, r6
    2998:	8c 93       	st	X, r24
    299a:	e2 e0       	ldi	r30, 0x02	; 2
    299c:	f0 e0       	ldi	r31, 0x00	; 0
    299e:	6e 0e       	add	r6, r30
    29a0:	7f 1e       	adc	r7, r31
    29a2:	89 e2       	ldi	r24, 0x29	; 41
    29a4:	d3 01       	movw	r26, r6
    29a6:	8c 93       	st	X, r24
    29a8:	ec e8       	ldi	r30, 0x8C	; 140
    29aa:	ff ef       	ldi	r31, 0xFF	; 255
    29ac:	6e 0e       	add	r6, r30
    29ae:	7f 1e       	adc	r7, r31
    29b0:	c7 01       	movw	r24, r14
    29b2:	89 5b       	subi	r24, 0xB9	; 185
    29b4:	9f 4f       	sbci	r25, 0xFF	; 255
    29b6:	64 e7       	ldi	r22, 0x74	; 116
    29b8:	70 e0       	ldi	r23, 0x00	; 0
    29ba:	21 c0       	rjmp	.+66     	; 0x29fe <f_mkfs+0x662>
    29bc:	d7 01       	movw	r26, r14
    29be:	97 96       	adiw	r26, 0x27	; 39
    29c0:	6d 93       	st	X+, r22
    29c2:	7d 93       	st	X+, r23
    29c4:	8d 93       	st	X+, r24
    29c6:	9c 93       	st	X, r25
    29c8:	9a 97       	sbiw	r26, 0x2a	; 42
    29ca:	57 96       	adiw	r26, 0x17	; 23
    29cc:	3c 92       	st	X, r3
    29ce:	2e 92       	st	-X, r2
    29d0:	56 97       	sbiw	r26, 0x16	; 22
    29d2:	e6 e5       	ldi	r30, 0x56	; 86
    29d4:	f0 e0       	ldi	r31, 0x00	; 0
    29d6:	6e 0e       	add	r6, r30
    29d8:	7f 1e       	adc	r7, r31
    29da:	80 e8       	ldi	r24, 0x80	; 128
    29dc:	d3 01       	movw	r26, r6
    29de:	8c 93       	st	X, r24
    29e0:	e2 e0       	ldi	r30, 0x02	; 2
    29e2:	f0 e0       	ldi	r31, 0x00	; 0
    29e4:	6e 0e       	add	r6, r30
    29e6:	7f 1e       	adc	r7, r31
    29e8:	89 e2       	ldi	r24, 0x29	; 41
    29ea:	d3 01       	movw	r26, r6
    29ec:	8c 93       	st	X, r24
    29ee:	e8 ea       	ldi	r30, 0xA8	; 168
    29f0:	ff ef       	ldi	r31, 0xFF	; 255
    29f2:	6e 0e       	add	r6, r30
    29f4:	7f 1e       	adc	r7, r31
    29f6:	c7 01       	movw	r24, r14
    29f8:	8b 96       	adiw	r24, 0x2b	; 43
    29fa:	68 e8       	ldi	r22, 0x88	; 136
    29fc:	70 e0       	ldi	r23, 0x00	; 0
    29fe:	43 e1       	ldi	r20, 0x13	; 19
    2a00:	50 e0       	ldi	r21, 0x00	; 0
    2a02:	0e 94 ef 10 	call	0x21de	; 0x21de <mem_cpy>
    2a06:	97 01       	movw	r18, r14
    2a08:	22 50       	subi	r18, 0x02	; 2
    2a0a:	3e 4f       	sbci	r19, 0xFE	; 254
    2a0c:	3b 8f       	std	Y+27, r19	; 0x1b
    2a0e:	2a 8f       	std	Y+26, r18	; 0x1a
    2a10:	85 e5       	ldi	r24, 0x55	; 85
    2a12:	9a ea       	ldi	r25, 0xAA	; 170
    2a14:	d9 01       	movw	r26, r18
    2a16:	8d 93       	st	X+, r24
    2a18:	9c 93       	st	X, r25
    2a1a:	80 e0       	ldi	r24, 0x00	; 0
    2a1c:	b7 01       	movw	r22, r14
    2a1e:	2d 89       	ldd	r18, Y+21	; 0x15
    2a20:	3e 89       	ldd	r19, Y+22	; 0x16
    2a22:	4f 89       	ldd	r20, Y+23	; 0x17
    2a24:	58 8d       	ldd	r21, Y+24	; 0x18
    2a26:	01 e0       	ldi	r16, 0x01	; 1
    2a28:	0e 94 a1 33 	call	0x6742	; 0x6742 <disk_write>
    2a2c:	88 23       	and	r24, r24
    2a2e:	09 f0       	breq	.+2      	; 0x2a32 <f_mkfs+0x696>
    2a30:	28 c1       	rjmp	.+592    	; 0x2c82 <f_mkfs+0x8e6>
    2a32:	b9 8d       	ldd	r27, Y+25	; 0x19
    2a34:	b3 30       	cpi	r27, 0x03	; 3
    2a36:	59 f4       	brne	.+22     	; 0x2a4e <f_mkfs+0x6b2>
    2a38:	2d 89       	ldd	r18, Y+21	; 0x15
    2a3a:	3e 89       	ldd	r19, Y+22	; 0x16
    2a3c:	4f 89       	ldd	r20, Y+23	; 0x17
    2a3e:	58 8d       	ldd	r21, Y+24	; 0x18
    2a40:	2a 5f       	subi	r18, 0xFA	; 250
    2a42:	3f 4f       	sbci	r19, 0xFF	; 255
    2a44:	4f 4f       	sbci	r20, 0xFF	; 255
    2a46:	5f 4f       	sbci	r21, 0xFF	; 255
    2a48:	b7 01       	movw	r22, r14
    2a4a:	0e 94 a1 33 	call	0x6742	; 0x6742 <disk_write>
    2a4e:	f7 01       	movw	r30, r14
    2a50:	80 e0       	ldi	r24, 0x00	; 0
    2a52:	92 e0       	ldi	r25, 0x02	; 2
    2a54:	01 c0       	rjmp	.+2      	; 0x2a58 <f_mkfs+0x6bc>
    2a56:	11 92       	st	Z+, r1
    2a58:	01 97       	sbiw	r24, 0x01	; 1
    2a5a:	2f ef       	ldi	r18, 0xFF	; 255
    2a5c:	8f 3f       	cpi	r24, 0xFF	; 255
    2a5e:	92 07       	cpc	r25, r18
    2a60:	d1 f7       	brne	.-12     	; 0x2a56 <f_mkfs+0x6ba>
    2a62:	21 2f       	mov	r18, r17
    2a64:	30 e0       	ldi	r19, 0x00	; 0
    2a66:	40 e0       	ldi	r20, 0x00	; 0
    2a68:	50 e0       	ldi	r21, 0x00	; 0
    2a6a:	89 8d       	ldd	r24, Y+25	; 0x19
    2a6c:	83 30       	cpi	r24, 0x03	; 3
    2a6e:	c9 f0       	breq	.+50     	; 0x2aa2 <f_mkfs+0x706>
    2a70:	81 30       	cpi	r24, 0x01	; 1
    2a72:	29 f0       	breq	.+10     	; 0x2a7e <f_mkfs+0x6e2>
    2a74:	80 e0       	ldi	r24, 0x00	; 0
    2a76:	9f ef       	ldi	r25, 0xFF	; 255
    2a78:	af ef       	ldi	r26, 0xFF	; 255
    2a7a:	bf ef       	ldi	r27, 0xFF	; 255
    2a7c:	04 c0       	rjmp	.+8      	; 0x2a86 <f_mkfs+0x6ea>
    2a7e:	80 e0       	ldi	r24, 0x00	; 0
    2a80:	9f ef       	ldi	r25, 0xFF	; 255
    2a82:	af ef       	ldi	r26, 0xFF	; 255
    2a84:	b0 e0       	ldi	r27, 0x00	; 0
    2a86:	82 2b       	or	r24, r18
    2a88:	93 2b       	or	r25, r19
    2a8a:	a4 2b       	or	r26, r20
    2a8c:	b5 2b       	or	r27, r21
    2a8e:	89 83       	std	Y+1, r24	; 0x01
    2a90:	9a 83       	std	Y+2, r25	; 0x02
    2a92:	ab 83       	std	Y+3, r26	; 0x03
    2a94:	bc 83       	std	Y+4, r27	; 0x04
    2a96:	f3 01       	movw	r30, r6
    2a98:	82 ab       	std	Z+50, r24	; 0x32
    2a9a:	93 ab       	std	Z+51, r25	; 0x33
    2a9c:	a4 ab       	std	Z+52, r26	; 0x34
    2a9e:	b5 ab       	std	Z+53, r27	; 0x35
    2aa0:	1f c0       	rjmp	.+62     	; 0x2ae0 <f_mkfs+0x744>
    2aa2:	da 01       	movw	r26, r20
    2aa4:	c9 01       	movw	r24, r18
    2aa6:	9f 6f       	ori	r25, 0xFF	; 255
    2aa8:	af 6f       	ori	r26, 0xFF	; 255
    2aaa:	bf 6f       	ori	r27, 0xFF	; 255
    2aac:	89 83       	std	Y+1, r24	; 0x01
    2aae:	9a 83       	std	Y+2, r25	; 0x02
    2ab0:	ab 83       	std	Y+3, r26	; 0x03
    2ab2:	bc 83       	std	Y+4, r27	; 0x04
    2ab4:	f3 01       	movw	r30, r6
    2ab6:	82 ab       	std	Z+50, r24	; 0x32
    2ab8:	93 ab       	std	Z+51, r25	; 0x33
    2aba:	a4 ab       	std	Z+52, r26	; 0x34
    2abc:	b5 ab       	std	Z+53, r27	; 0x35
    2abe:	8f ef       	ldi	r24, 0xFF	; 255
    2ac0:	9f ef       	ldi	r25, 0xFF	; 255
    2ac2:	af ef       	ldi	r26, 0xFF	; 255
    2ac4:	bf ef       	ldi	r27, 0xFF	; 255
    2ac6:	f7 01       	movw	r30, r14
    2ac8:	84 83       	std	Z+4, r24	; 0x04
    2aca:	95 83       	std	Z+5, r25	; 0x05
    2acc:	a6 83       	std	Z+6, r26	; 0x06
    2ace:	b7 83       	std	Z+7, r27	; 0x07
    2ad0:	8f ef       	ldi	r24, 0xFF	; 255
    2ad2:	9f ef       	ldi	r25, 0xFF	; 255
    2ad4:	af ef       	ldi	r26, 0xFF	; 255
    2ad6:	bf e0       	ldi	r27, 0x0F	; 15
    2ad8:	80 87       	std	Z+8, r24	; 0x08
    2ada:	91 87       	std	Z+9, r25	; 0x09
    2adc:	a2 87       	std	Z+10, r26	; 0x0a
    2ade:	b3 87       	std	Z+11, r27	; 0x0b
    2ae0:	80 e0       	ldi	r24, 0x00	; 0
    2ae2:	b7 01       	movw	r22, r14
    2ae4:	29 89       	ldd	r18, Y+17	; 0x11
    2ae6:	3a 89       	ldd	r19, Y+18	; 0x12
    2ae8:	4b 89       	ldd	r20, Y+19	; 0x13
    2aea:	5c 89       	ldd	r21, Y+20	; 0x14
    2aec:	01 e0       	ldi	r16, 0x01	; 1
    2aee:	0e 94 a1 33 	call	0x6742	; 0x6742 <disk_write>
    2af2:	88 23       	and	r24, r24
    2af4:	09 f0       	breq	.+2      	; 0x2af8 <f_mkfs+0x75c>
    2af6:	c5 c0       	rjmp	.+394    	; 0x2c82 <f_mkfs+0x8e6>
    2af8:	f7 01       	movw	r30, r14
    2afa:	80 e0       	ldi	r24, 0x00	; 0
    2afc:	92 e0       	ldi	r25, 0x02	; 2
    2afe:	01 c0       	rjmp	.+2      	; 0x2b02 <f_mkfs+0x766>
    2b00:	11 92       	st	Z+, r1
    2b02:	01 97       	sbiw	r24, 0x01	; 1
    2b04:	2f ef       	ldi	r18, 0xFF	; 255
    2b06:	8f 3f       	cpi	r24, 0xFF	; 255
    2b08:	92 07       	cpc	r25, r18
    2b0a:	d1 f7       	brne	.-12     	; 0x2b00 <f_mkfs+0x764>
    2b0c:	a9 88       	ldd	r10, Y+17	; 0x11
    2b0e:	ba 88       	ldd	r11, Y+18	; 0x12
    2b10:	cb 88       	ldd	r12, Y+19	; 0x13
    2b12:	dc 88       	ldd	r13, Y+20	; 0x14
    2b14:	08 94       	sec
    2b16:	a1 1c       	adc	r10, r1
    2b18:	b1 1c       	adc	r11, r1
    2b1a:	c1 1c       	adc	r12, r1
    2b1c:	d1 1c       	adc	r13, r1
    2b1e:	81 e0       	ldi	r24, 0x01	; 1
    2b20:	90 e0       	ldi	r25, 0x00	; 0
    2b22:	a0 e0       	ldi	r26, 0x00	; 0
    2b24:	b0 e0       	ldi	r27, 0x00	; 0
    2b26:	16 c0       	rjmp	.+44     	; 0x2b54 <f_mkfs+0x7b8>
    2b28:	80 e0       	ldi	r24, 0x00	; 0
    2b2a:	b7 01       	movw	r22, r14
    2b2c:	a6 01       	movw	r20, r12
    2b2e:	95 01       	movw	r18, r10
    2b30:	01 e0       	ldi	r16, 0x01	; 1
    2b32:	0e 94 a1 33 	call	0x6742	; 0x6742 <disk_write>
    2b36:	88 23       	and	r24, r24
    2b38:	09 f0       	breq	.+2      	; 0x2b3c <f_mkfs+0x7a0>
    2b3a:	a3 c0       	rjmp	.+326    	; 0x2c82 <f_mkfs+0x8e6>
    2b3c:	08 94       	sec
    2b3e:	a1 1c       	adc	r10, r1
    2b40:	b1 1c       	adc	r11, r1
    2b42:	c1 1c       	adc	r12, r1
    2b44:	d1 1c       	adc	r13, r1
    2b46:	89 81       	ldd	r24, Y+1	; 0x01
    2b48:	9a 81       	ldd	r25, Y+2	; 0x02
    2b4a:	ab 81       	ldd	r26, Y+3	; 0x03
    2b4c:	bc 81       	ldd	r27, Y+4	; 0x04
    2b4e:	01 96       	adiw	r24, 0x01	; 1
    2b50:	a1 1d       	adc	r26, r1
    2b52:	b1 1d       	adc	r27, r1
    2b54:	89 83       	std	Y+1, r24	; 0x01
    2b56:	9a 83       	std	Y+2, r25	; 0x02
    2b58:	ab 83       	std	Y+3, r26	; 0x03
    2b5a:	bc 83       	std	Y+4, r27	; 0x04
    2b5c:	89 81       	ldd	r24, Y+1	; 0x01
    2b5e:	9a 81       	ldd	r25, Y+2	; 0x02
    2b60:	ab 81       	ldd	r26, Y+3	; 0x03
    2b62:	bc 81       	ldd	r27, Y+4	; 0x04
    2b64:	82 15       	cp	r24, r2
    2b66:	93 05       	cpc	r25, r3
    2b68:	a4 05       	cpc	r26, r4
    2b6a:	b5 05       	cpc	r27, r5
    2b6c:	e8 f2       	brcs	.-70     	; 0x2b28 <f_mkfs+0x78c>
    2b6e:	39 8d       	ldd	r19, Y+25	; 0x19
    2b70:	33 30       	cpi	r19, 0x03	; 3
    2b72:	11 f0       	breq	.+4      	; 0x2b78 <f_mkfs+0x7dc>
    2b74:	89 84       	ldd	r8, Y+9	; 0x09
    2b76:	9a 84       	ldd	r9, Y+10	; 0x0a
    2b78:	15 01       	movw	r2, r10
    2b7a:	26 01       	movw	r4, r12
    2b7c:	08 94       	sec
    2b7e:	21 1c       	adc	r2, r1
    2b80:	31 1c       	adc	r3, r1
    2b82:	41 1c       	adc	r4, r1
    2b84:	51 1c       	adc	r5, r1
    2b86:	80 e0       	ldi	r24, 0x00	; 0
    2b88:	b7 01       	movw	r22, r14
    2b8a:	a6 01       	movw	r20, r12
    2b8c:	95 01       	movw	r18, r10
    2b8e:	01 e0       	ldi	r16, 0x01	; 1
    2b90:	0e 94 a1 33 	call	0x6742	; 0x6742 <disk_write>
    2b94:	88 23       	and	r24, r24
    2b96:	09 f0       	breq	.+2      	; 0x2b9a <f_mkfs+0x7fe>
    2b98:	74 c0       	rjmp	.+232    	; 0x2c82 <f_mkfs+0x8e6>
    2b9a:	08 94       	sec
    2b9c:	81 08       	sbc	r8, r1
    2b9e:	91 08       	sbc	r9, r1
    2ba0:	81 14       	cp	r8, r1
    2ba2:	91 04       	cpc	r9, r1
    2ba4:	19 f0       	breq	.+6      	; 0x2bac <f_mkfs+0x810>
    2ba6:	62 01       	movw	r12, r4
    2ba8:	51 01       	movw	r10, r2
    2baa:	e6 cf       	rjmp	.-52     	; 0x2b78 <f_mkfs+0x7dc>
    2bac:	49 8d       	ldd	r20, Y+25	; 0x19
    2bae:	43 30       	cpi	r20, 0x03	; 3
    2bb0:	09 f0       	breq	.+2      	; 0x2bb4 <f_mkfs+0x818>
    2bb2:	5f c0       	rjmp	.+190    	; 0x2c72 <f_mkfs+0x8d6>
    2bb4:	85 e5       	ldi	r24, 0x55	; 85
    2bb6:	9a ea       	ldi	r25, 0xAA	; 170
    2bb8:	aa 8d       	ldd	r26, Y+26	; 0x1a
    2bba:	bb 8d       	ldd	r27, Y+27	; 0x1b
    2bbc:	8d 93       	st	X+, r24
    2bbe:	9c 93       	st	X, r25
    2bc0:	82 e5       	ldi	r24, 0x52	; 82
    2bc2:	92 e5       	ldi	r25, 0x52	; 82
    2bc4:	a1 e6       	ldi	r26, 0x61	; 97
    2bc6:	b1 e4       	ldi	r27, 0x41	; 65
    2bc8:	f3 01       	movw	r30, r6
    2bca:	82 ab       	std	Z+50, r24	; 0x32
    2bcc:	93 ab       	std	Z+51, r25	; 0x33
    2bce:	a4 ab       	std	Z+52, r26	; 0x34
    2bd0:	b5 ab       	std	Z+53, r27	; 0x35
    2bd2:	54 ee       	ldi	r21, 0xE4	; 228
    2bd4:	c5 2e       	mov	r12, r21
    2bd6:	51 e0       	ldi	r21, 0x01	; 1
    2bd8:	d5 2e       	mov	r13, r21
    2bda:	ec 0c       	add	r14, r12
    2bdc:	fd 1c       	adc	r15, r13
    2bde:	82 e7       	ldi	r24, 0x72	; 114
    2be0:	92 e7       	ldi	r25, 0x72	; 114
    2be2:	a1 e4       	ldi	r26, 0x41	; 65
    2be4:	b1 e6       	ldi	r27, 0x61	; 97
    2be6:	f7 01       	movw	r30, r14
    2be8:	81 93       	st	Z+, r24
    2bea:	91 93       	st	Z+, r25
    2bec:	a1 93       	st	Z+, r26
    2bee:	b1 93       	st	Z+, r27
    2bf0:	2d a1       	ldd	r18, Y+37	; 0x25
    2bf2:	3e a1       	ldd	r19, Y+38	; 0x26
    2bf4:	4f a1       	ldd	r20, Y+39	; 0x27
    2bf6:	58 a5       	ldd	r21, Y+40	; 0x28
    2bf8:	21 50       	subi	r18, 0x01	; 1
    2bfa:	30 40       	sbci	r19, 0x00	; 0
    2bfc:	40 40       	sbci	r20, 0x00	; 0
    2bfe:	50 40       	sbci	r21, 0x00	; 0
    2c00:	df 01       	movw	r26, r30
    2c02:	2d 93       	st	X+, r18
    2c04:	3d 93       	st	X+, r19
    2c06:	4d 93       	st	X+, r20
    2c08:	5d 93       	st	X+, r21
    2c0a:	7d 01       	movw	r14, r26
    2c0c:	8f ef       	ldi	r24, 0xFF	; 255
    2c0e:	9f ef       	ldi	r25, 0xFF	; 255
    2c10:	af ef       	ldi	r26, 0xFF	; 255
    2c12:	bf ef       	ldi	r27, 0xFF	; 255
    2c14:	f7 01       	movw	r30, r14
    2c16:	80 83       	st	Z, r24
    2c18:	91 83       	std	Z+1, r25	; 0x01
    2c1a:	a2 83       	std	Z+2, r26	; 0x02
    2c1c:	b3 83       	std	Z+3, r27	; 0x03
    2c1e:	44 e1       	ldi	r20, 0x14	; 20
    2c20:	c4 2e       	mov	r12, r20
    2c22:	4e ef       	ldi	r20, 0xFE	; 254
    2c24:	d4 2e       	mov	r13, r20
    2c26:	ec 0c       	add	r14, r12
    2c28:	fd 1c       	adc	r15, r13
    2c2a:	2d 89       	ldd	r18, Y+21	; 0x15
    2c2c:	3e 89       	ldd	r19, Y+22	; 0x16
    2c2e:	4f 89       	ldd	r20, Y+23	; 0x17
    2c30:	58 8d       	ldd	r21, Y+24	; 0x18
    2c32:	2f 5f       	subi	r18, 0xFF	; 255
    2c34:	3f 4f       	sbci	r19, 0xFF	; 255
    2c36:	4f 4f       	sbci	r20, 0xFF	; 255
    2c38:	5f 4f       	sbci	r21, 0xFF	; 255
    2c3a:	2d 8b       	std	Y+21, r18	; 0x15
    2c3c:	3e 8b       	std	Y+22, r19	; 0x16
    2c3e:	4f 8b       	std	Y+23, r20	; 0x17
    2c40:	58 8f       	std	Y+24, r21	; 0x18
    2c42:	80 e0       	ldi	r24, 0x00	; 0
    2c44:	b7 01       	movw	r22, r14
    2c46:	01 e0       	ldi	r16, 0x01	; 1
    2c48:	0e 94 a1 33 	call	0x6742	; 0x6742 <disk_write>
    2c4c:	8d 89       	ldd	r24, Y+21	; 0x15
    2c4e:	9e 89       	ldd	r25, Y+22	; 0x16
    2c50:	af 89       	ldd	r26, Y+23	; 0x17
    2c52:	b8 8d       	ldd	r27, Y+24	; 0x18
    2c54:	06 96       	adiw	r24, 0x06	; 6
    2c56:	a1 1d       	adc	r26, r1
    2c58:	b1 1d       	adc	r27, r1
    2c5a:	8d 8b       	std	Y+21, r24	; 0x15
    2c5c:	9e 8b       	std	Y+22, r25	; 0x16
    2c5e:	af 8b       	std	Y+23, r26	; 0x17
    2c60:	b8 8f       	std	Y+24, r27	; 0x18
    2c62:	80 e0       	ldi	r24, 0x00	; 0
    2c64:	b7 01       	movw	r22, r14
    2c66:	2d 89       	ldd	r18, Y+21	; 0x15
    2c68:	3e 89       	ldd	r19, Y+22	; 0x16
    2c6a:	4f 89       	ldd	r20, Y+23	; 0x17
    2c6c:	58 8d       	ldd	r21, Y+24	; 0x18
    2c6e:	0e 94 a1 33 	call	0x6742	; 0x6742 <disk_write>
    2c72:	80 e0       	ldi	r24, 0x00	; 0
    2c74:	60 e0       	ldi	r22, 0x00	; 0
    2c76:	40 e0       	ldi	r20, 0x00	; 0
    2c78:	50 e0       	ldi	r21, 0x00	; 0
    2c7a:	0e 94 11 34 	call	0x6822	; 0x6822 <disk_ioctl>
    2c7e:	88 23       	and	r24, r24
    2c80:	19 f0       	breq	.+6      	; 0x2c88 <f_mkfs+0x8ec>
    2c82:	81 e0       	ldi	r24, 0x01	; 1
    2c84:	01 c0       	rjmp	.+2      	; 0x2c88 <f_mkfs+0x8ec>
    2c86:	8e e0       	ldi	r24, 0x0E	; 14
    2c88:	a8 96       	adiw	r28, 0x28	; 40
    2c8a:	0f b6       	in	r0, 0x3f	; 63
    2c8c:	f8 94       	cli
    2c8e:	de bf       	out	0x3e, r29	; 62
    2c90:	0f be       	out	0x3f, r0	; 63
    2c92:	cd bf       	out	0x3d, r28	; 61
    2c94:	cf 91       	pop	r28
    2c96:	df 91       	pop	r29
    2c98:	1f 91       	pop	r17
    2c9a:	0f 91       	pop	r16
    2c9c:	ff 90       	pop	r15
    2c9e:	ef 90       	pop	r14
    2ca0:	df 90       	pop	r13
    2ca2:	cf 90       	pop	r12
    2ca4:	bf 90       	pop	r11
    2ca6:	af 90       	pop	r10
    2ca8:	9f 90       	pop	r9
    2caa:	8f 90       	pop	r8
    2cac:	7f 90       	pop	r7
    2cae:	6f 90       	pop	r6
    2cb0:	5f 90       	pop	r5
    2cb2:	4f 90       	pop	r4
    2cb4:	3f 90       	pop	r3
    2cb6:	2f 90       	pop	r2
    2cb8:	08 95       	ret
    2cba:	1c 01       	movw	r2, r24
    2cbc:	2d 01       	movw	r4, r26
    2cbe:	32 e0       	ldi	r19, 0x02	; 2
    2cc0:	22 0c       	add	r2, r2
    2cc2:	33 1c       	adc	r3, r3
    2cc4:	44 1c       	adc	r4, r4
    2cc6:	55 1c       	adc	r5, r5
    2cc8:	3a 95       	dec	r19
    2cca:	d1 f7       	brne	.-12     	; 0x2cc0 <f_mkfs+0x924>
    2ccc:	27 e0       	ldi	r18, 0x07	; 7
    2cce:	c2 2e       	mov	r12, r18
    2cd0:	22 e0       	ldi	r18, 0x02	; 2
    2cd2:	d2 2e       	mov	r13, r18
    2cd4:	e1 2c       	mov	r14, r1
    2cd6:	f1 2c       	mov	r15, r1
    2cd8:	2c 0c       	add	r2, r12
    2cda:	3d 1c       	adc	r3, r13
    2cdc:	4e 1c       	adc	r4, r14
    2cde:	5f 1c       	adc	r5, r15
    2ce0:	99 e0       	ldi	r25, 0x09	; 9
    2ce2:	56 94       	lsr	r5
    2ce4:	47 94       	ror	r4
    2ce6:	37 94       	ror	r3
    2ce8:	27 94       	ror	r2
    2cea:	9a 95       	dec	r25
    2cec:	d1 f7       	brne	.-12     	; 0x2ce2 <f_mkfs+0x946>
    2cee:	20 e2       	ldi	r18, 0x20	; 32
    2cf0:	30 e0       	ldi	r19, 0x00	; 0
    2cf2:	40 e0       	ldi	r20, 0x00	; 0
    2cf4:	50 e0       	ldi	r21, 0x00	; 0
    2cf6:	2d 87       	std	Y+13, r18	; 0x0d
    2cf8:	3e 87       	std	Y+14, r19	; 0x0e
    2cfa:	4f 87       	std	Y+15, r20	; 0x0f
    2cfc:	58 8b       	std	Y+16, r21	; 0x10
    2cfe:	19 86       	std	Y+9, r1	; 0x09
    2d00:	1a 86       	std	Y+10, r1	; 0x0a
    2d02:	1b 86       	std	Y+11, r1	; 0x0b
    2d04:	1c 86       	std	Y+12, r1	; 0x0c
    2d06:	33 e0       	ldi	r19, 0x03	; 3
    2d08:	39 8f       	std	Y+25, r19	; 0x19
    2d0a:	44 cc       	rjmp	.-1912   	; 0x2594 <f_mkfs+0x1f8>
    2d0c:	9c 01       	movw	r18, r24
    2d0e:	ad 01       	movw	r20, r26
    2d10:	2e 5f       	subi	r18, 0xFE	; 254
    2d12:	3f 4f       	sbci	r19, 0xFF	; 255
    2d14:	4f 4f       	sbci	r20, 0xFF	; 255
    2d16:	5f 4f       	sbci	r21, 0xFF	; 255
    2d18:	22 0f       	add	r18, r18
    2d1a:	33 1f       	adc	r19, r19
    2d1c:	44 1f       	adc	r20, r20
    2d1e:	55 1f       	adc	r21, r21
    2d20:	82 e0       	ldi	r24, 0x02	; 2
    2d22:	15 cc       	rjmp	.-2006   	; 0x254e <f_mkfs+0x1b2>

00002d24 <validate>:
    2d24:	fc 01       	movw	r30, r24
    2d26:	00 97       	sbiw	r24, 0x00	; 0
    2d28:	89 f0       	breq	.+34     	; 0x2d4c <validate+0x28>
    2d2a:	80 81       	ld	r24, Z
    2d2c:	88 23       	and	r24, r24
    2d2e:	71 f0       	breq	.+28     	; 0x2d4c <validate+0x28>
    2d30:	86 81       	ldd	r24, Z+6	; 0x06
    2d32:	97 81       	ldd	r25, Z+7	; 0x07
    2d34:	86 17       	cp	r24, r22
    2d36:	97 07       	cpc	r25, r23
    2d38:	49 f4       	brne	.+18     	; 0x2d4c <validate+0x28>
    2d3a:	81 81       	ldd	r24, Z+1	; 0x01
    2d3c:	0e 94 42 33 	call	0x6684	; 0x6684 <disk_status>
    2d40:	80 fd       	sbrc	r24, 0
    2d42:	02 c0       	rjmp	.+4      	; 0x2d48 <validate+0x24>
    2d44:	80 e0       	ldi	r24, 0x00	; 0
    2d46:	08 95       	ret
    2d48:	83 e0       	ldi	r24, 0x03	; 3
    2d4a:	08 95       	ret
    2d4c:	89 e0       	ldi	r24, 0x09	; 9
    2d4e:	08 95       	ret

00002d50 <check_fs>:
    2d50:	0f 93       	push	r16
    2d52:	cf 93       	push	r28
    2d54:	df 93       	push	r29
    2d56:	ec 01       	movw	r28, r24
    2d58:	9a 01       	movw	r18, r20
    2d5a:	ab 01       	movw	r20, r22
    2d5c:	bc 01       	movw	r22, r24
    2d5e:	6e 5c       	subi	r22, 0xCE	; 206
    2d60:	7f 4f       	sbci	r23, 0xFF	; 255
    2d62:	89 81       	ldd	r24, Y+1	; 0x01
    2d64:	01 e0       	ldi	r16, 0x01	; 1
    2d66:	0e 94 49 33 	call	0x6692	; 0x6692 <disk_read>
    2d6a:	88 23       	and	r24, r24
    2d6c:	11 f0       	breq	.+4      	; 0x2d72 <check_fs+0x22>
    2d6e:	23 e0       	ldi	r18, 0x03	; 3
    2d70:	29 c0       	rjmp	.+82     	; 0x2dc4 <check_fs+0x74>
    2d72:	c0 5d       	subi	r28, 0xD0	; 208
    2d74:	dd 4f       	sbci	r29, 0xFD	; 253
    2d76:	88 81       	ld	r24, Y
    2d78:	99 81       	ldd	r25, Y+1	; 0x01
    2d7a:	c0 53       	subi	r28, 0x30	; 48
    2d7c:	d2 40       	sbci	r29, 0x02	; 2
    2d7e:	85 55       	subi	r24, 0x55	; 85
    2d80:	9a 4a       	sbci	r25, 0xAA	; 170
    2d82:	11 f0       	breq	.+4      	; 0x2d88 <check_fs+0x38>
    2d84:	22 e0       	ldi	r18, 0x02	; 2
    2d86:	1e c0       	rjmp	.+60     	; 0x2dc4 <check_fs+0x74>
    2d88:	c8 59       	subi	r28, 0x98	; 152
    2d8a:	df 4f       	sbci	r29, 0xFF	; 255
    2d8c:	88 81       	ld	r24, Y
    2d8e:	99 81       	ldd	r25, Y+1	; 0x01
    2d90:	aa 81       	ldd	r26, Y+2	; 0x02
    2d92:	bb 81       	ldd	r27, Y+3	; 0x03
    2d94:	c8 56       	subi	r28, 0x68	; 104
    2d96:	d0 40       	sbci	r29, 0x00	; 0
    2d98:	b0 70       	andi	r27, 0x00	; 0
    2d9a:	86 54       	subi	r24, 0x46	; 70
    2d9c:	91 44       	sbci	r25, 0x41	; 65
    2d9e:	a4 45       	sbci	r26, 0x54	; 84
    2da0:	b0 40       	sbci	r27, 0x00	; 0
    2da2:	11 f4       	brne	.+4      	; 0x2da8 <check_fs+0x58>
    2da4:	20 e0       	ldi	r18, 0x00	; 0
    2da6:	0e c0       	rjmp	.+28     	; 0x2dc4 <check_fs+0x74>
    2da8:	20 e0       	ldi	r18, 0x00	; 0
    2daa:	cc 57       	subi	r28, 0x7C	; 124
    2dac:	df 4f       	sbci	r29, 0xFF	; 255
    2dae:	88 81       	ld	r24, Y
    2db0:	99 81       	ldd	r25, Y+1	; 0x01
    2db2:	aa 81       	ldd	r26, Y+2	; 0x02
    2db4:	bb 81       	ldd	r27, Y+3	; 0x03
    2db6:	b0 70       	andi	r27, 0x00	; 0
    2db8:	86 54       	subi	r24, 0x46	; 70
    2dba:	91 44       	sbci	r25, 0x41	; 65
    2dbc:	a4 45       	sbci	r26, 0x54	; 84
    2dbe:	b0 40       	sbci	r27, 0x00	; 0
    2dc0:	09 f0       	breq	.+2      	; 0x2dc4 <check_fs+0x74>
    2dc2:	21 e0       	ldi	r18, 0x01	; 1
    2dc4:	82 2f       	mov	r24, r18
    2dc6:	df 91       	pop	r29
    2dc8:	cf 91       	pop	r28
    2dca:	0f 91       	pop	r16
    2dcc:	08 95       	ret

00002dce <chk_mounted>:
    2dce:	2f 92       	push	r2
    2dd0:	3f 92       	push	r3
    2dd2:	4f 92       	push	r4
    2dd4:	5f 92       	push	r5
    2dd6:	6f 92       	push	r6
    2dd8:	7f 92       	push	r7
    2dda:	8f 92       	push	r8
    2ddc:	9f 92       	push	r9
    2dde:	af 92       	push	r10
    2de0:	bf 92       	push	r11
    2de2:	cf 92       	push	r12
    2de4:	df 92       	push	r13
    2de6:	ef 92       	push	r14
    2de8:	ff 92       	push	r15
    2dea:	0f 93       	push	r16
    2dec:	1f 93       	push	r17
    2dee:	df 93       	push	r29
    2df0:	cf 93       	push	r28
    2df2:	cd b7       	in	r28, 0x3d	; 61
    2df4:	de b7       	in	r29, 0x3e	; 62
    2df6:	2a 97       	sbiw	r28, 0x0a	; 10
    2df8:	0f b6       	in	r0, 0x3f	; 63
    2dfa:	f8 94       	cli
    2dfc:	de bf       	out	0x3e, r29	; 62
    2dfe:	0f be       	out	0x3f, r0	; 63
    2e00:	cd bf       	out	0x3d, r28	; 61
    2e02:	dc 01       	movw	r26, r24
    2e04:	14 2f       	mov	r17, r20
    2e06:	ed 91       	ld	r30, X+
    2e08:	fc 91       	ld	r31, X
    2e0a:	11 97       	sbiw	r26, 0x01	; 1
    2e0c:	80 81       	ld	r24, Z
    2e0e:	28 2f       	mov	r18, r24
    2e10:	30 e0       	ldi	r19, 0x00	; 0
    2e12:	20 53       	subi	r18, 0x30	; 48
    2e14:	30 40       	sbci	r19, 0x00	; 0
    2e16:	2a 30       	cpi	r18, 0x0A	; 10
    2e18:	31 05       	cpc	r19, r1
    2e1a:	38 f4       	brcc	.+14     	; 0x2e2a <chk_mounted+0x5c>
    2e1c:	81 81       	ldd	r24, Z+1	; 0x01
    2e1e:	8a 33       	cpi	r24, 0x3A	; 58
    2e20:	21 f4       	brne	.+8      	; 0x2e2a <chk_mounted+0x5c>
    2e22:	32 96       	adiw	r30, 0x02	; 2
    2e24:	ed 93       	st	X+, r30
    2e26:	fc 93       	st	X, r31
    2e28:	04 c0       	rjmp	.+8      	; 0x2e32 <chk_mounted+0x64>
    2e2a:	80 91 64 01 	lds	r24, 0x0164
    2e2e:	28 2f       	mov	r18, r24
    2e30:	30 e0       	ldi	r19, 0x00	; 0
    2e32:	23 2b       	or	r18, r19
    2e34:	11 f0       	breq	.+4      	; 0x2e3a <chk_mounted+0x6c>
    2e36:	8b e0       	ldi	r24, 0x0B	; 11
    2e38:	59 c2       	rjmp	.+1202   	; 0x32ec <chk_mounted+0x51e>
    2e3a:	20 91 60 01 	lds	r18, 0x0160
    2e3e:	30 91 61 01 	lds	r19, 0x0161
    2e42:	3a 87       	std	Y+10, r19	; 0x0a
    2e44:	29 87       	std	Y+9, r18	; 0x09
    2e46:	db 01       	movw	r26, r22
    2e48:	2d 93       	st	X+, r18
    2e4a:	3c 93       	st	X, r19
    2e4c:	23 2b       	or	r18, r19
    2e4e:	11 f4       	brne	.+4      	; 0x2e54 <chk_mounted+0x86>
    2e50:	8c e0       	ldi	r24, 0x0C	; 12
    2e52:	4c c2       	rjmp	.+1176   	; 0x32ec <chk_mounted+0x51e>
    2e54:	e9 85       	ldd	r30, Y+9	; 0x09
    2e56:	fa 85       	ldd	r31, Y+10	; 0x0a
    2e58:	80 81       	ld	r24, Z
    2e5a:	88 23       	and	r24, r24
    2e5c:	59 f0       	breq	.+22     	; 0x2e74 <chk_mounted+0xa6>
    2e5e:	81 81       	ldd	r24, Z+1	; 0x01
    2e60:	0e 94 42 33 	call	0x6684	; 0x6684 <disk_status>
    2e64:	80 fd       	sbrc	r24, 0
    2e66:	06 c0       	rjmp	.+12     	; 0x2e74 <chk_mounted+0xa6>
    2e68:	11 23       	and	r17, r17
    2e6a:	09 f4       	brne	.+2      	; 0x2e6e <chk_mounted+0xa0>
    2e6c:	3c c2       	rjmp	.+1144   	; 0x32e6 <chk_mounted+0x518>
    2e6e:	82 fd       	sbrc	r24, 2
    2e70:	38 c2       	rjmp	.+1136   	; 0x32e2 <chk_mounted+0x514>
    2e72:	39 c2       	rjmp	.+1138   	; 0x32e6 <chk_mounted+0x518>
    2e74:	a9 85       	ldd	r26, Y+9	; 0x09
    2e76:	ba 85       	ldd	r27, Y+10	; 0x0a
    2e78:	1c 92       	st	X, r1
    2e7a:	11 96       	adiw	r26, 0x01	; 1
    2e7c:	1c 92       	st	X, r1
    2e7e:	80 e0       	ldi	r24, 0x00	; 0
    2e80:	0e 94 82 32 	call	0x6504	; 0x6504 <disk_initialize>
    2e84:	80 ff       	sbrs	r24, 0
    2e86:	02 c0       	rjmp	.+4      	; 0x2e8c <chk_mounted+0xbe>
    2e88:	83 e0       	ldi	r24, 0x03	; 3
    2e8a:	30 c2       	rjmp	.+1120   	; 0x32ec <chk_mounted+0x51e>
    2e8c:	11 23       	and	r17, r17
    2e8e:	11 f0       	breq	.+4      	; 0x2e94 <chk_mounted+0xc6>
    2e90:	82 fd       	sbrc	r24, 2
    2e92:	27 c2       	rjmp	.+1102   	; 0x32e2 <chk_mounted+0x514>
    2e94:	89 85       	ldd	r24, Y+9	; 0x09
    2e96:	9a 85       	ldd	r25, Y+10	; 0x0a
    2e98:	40 e0       	ldi	r20, 0x00	; 0
    2e9a:	50 e0       	ldi	r21, 0x00	; 0
    2e9c:	60 e0       	ldi	r22, 0x00	; 0
    2e9e:	70 e0       	ldi	r23, 0x00	; 0
    2ea0:	0e 94 a8 16 	call	0x2d50	; 0x2d50 <check_fs>
    2ea4:	81 30       	cpi	r24, 0x01	; 1
    2ea6:	21 f0       	breq	.+8      	; 0x2eb0 <chk_mounted+0xe2>
    2ea8:	22 24       	eor	r2, r2
    2eaa:	33 24       	eor	r3, r3
    2eac:	21 01       	movw	r4, r2
    2eae:	12 c0       	rjmp	.+36     	; 0x2ed4 <chk_mounted+0x106>
    2eb0:	e9 85       	ldd	r30, Y+9	; 0x09
    2eb2:	fa 85       	ldd	r31, Y+10	; 0x0a
    2eb4:	e0 51       	subi	r30, 0x10	; 16
    2eb6:	fe 4f       	sbci	r31, 0xFE	; 254
    2eb8:	84 81       	ldd	r24, Z+4	; 0x04
    2eba:	88 23       	and	r24, r24
    2ebc:	09 f4       	brne	.+2      	; 0x2ec0 <chk_mounted+0xf2>
    2ebe:	15 c2       	rjmp	.+1066   	; 0x32ea <chk_mounted+0x51c>
    2ec0:	20 84       	ldd	r2, Z+8	; 0x08
    2ec2:	31 84       	ldd	r3, Z+9	; 0x09
    2ec4:	42 84       	ldd	r4, Z+10	; 0x0a
    2ec6:	53 84       	ldd	r5, Z+11	; 0x0b
    2ec8:	89 85       	ldd	r24, Y+9	; 0x09
    2eca:	9a 85       	ldd	r25, Y+10	; 0x0a
    2ecc:	b2 01       	movw	r22, r4
    2ece:	a1 01       	movw	r20, r2
    2ed0:	0e 94 a8 16 	call	0x2d50	; 0x2d50 <check_fs>
    2ed4:	83 30       	cpi	r24, 0x03	; 3
    2ed6:	11 f4       	brne	.+4      	; 0x2edc <chk_mounted+0x10e>
    2ed8:	81 e0       	ldi	r24, 0x01	; 1
    2eda:	08 c2       	rjmp	.+1040   	; 0x32ec <chk_mounted+0x51e>
    2edc:	88 23       	and	r24, r24
    2ede:	09 f0       	breq	.+2      	; 0x2ee2 <chk_mounted+0x114>
    2ee0:	04 c2       	rjmp	.+1032   	; 0x32ea <chk_mounted+0x51c>
    2ee2:	e9 85       	ldd	r30, Y+9	; 0x09
    2ee4:	fa 85       	ldd	r31, Y+10	; 0x0a
    2ee6:	85 ad       	ldd	r24, Z+61	; 0x3d
    2ee8:	96 ad       	ldd	r25, Z+62	; 0x3e
    2eea:	80 50       	subi	r24, 0x00	; 0
    2eec:	92 40       	sbci	r25, 0x02	; 2
    2eee:	09 f0       	breq	.+2      	; 0x2ef2 <chk_mounted+0x124>
    2ef0:	fc c1       	rjmp	.+1016   	; 0x32ea <chk_mounted+0x51c>
    2ef2:	29 85       	ldd	r18, Y+9	; 0x09
    2ef4:	3a 85       	ldd	r19, Y+10	; 0x0a
    2ef6:	28 5b       	subi	r18, 0xB8	; 184
    2ef8:	3f 4f       	sbci	r19, 0xFF	; 255
    2efa:	d9 01       	movw	r26, r18
    2efc:	8d 91       	ld	r24, X+
    2efe:	9c 91       	ld	r25, X
    2f00:	11 97       	sbiw	r26, 0x01	; 1
    2f02:	a8 54       	subi	r26, 0x48	; 72
    2f04:	b0 40       	sbci	r27, 0x00	; 0
    2f06:	ba 87       	std	Y+10, r27	; 0x0a
    2f08:	a9 87       	std	Y+9, r26	; 0x09
    2f0a:	5c 01       	movw	r10, r24
    2f0c:	cc 24       	eor	r12, r12
    2f0e:	dd 24       	eor	r13, r13
    2f10:	a1 14       	cp	r10, r1
    2f12:	b1 04       	cpc	r11, r1
    2f14:	c1 04       	cpc	r12, r1
    2f16:	d1 04       	cpc	r13, r1
    2f18:	59 f4       	brne	.+22     	; 0x2f30 <chk_mounted+0x162>
    2f1a:	aa 5a       	subi	r26, 0xAA	; 170
    2f1c:	bf 4f       	sbci	r27, 0xFF	; 255
    2f1e:	ad 90       	ld	r10, X+
    2f20:	bd 90       	ld	r11, X+
    2f22:	cd 90       	ld	r12, X+
    2f24:	dc 90       	ld	r13, X
    2f26:	13 97       	sbiw	r26, 0x03	; 3
    2f28:	a6 55       	subi	r26, 0x56	; 86
    2f2a:	b0 40       	sbci	r27, 0x00	; 0
    2f2c:	ba 87       	std	Y+10, r27	; 0x0a
    2f2e:	a9 87       	std	Y+9, r26	; 0x09
    2f30:	e9 85       	ldd	r30, Y+9	; 0x09
    2f32:	fa 85       	ldd	r31, Y+10	; 0x0a
    2f34:	a6 8e       	std	Z+30, r10	; 0x1e
    2f36:	b7 8e       	std	Z+31, r11	; 0x1f
    2f38:	c0 a2       	std	Z+32, r12	; 0x20
    2f3a:	d1 a2       	std	Z+33, r13	; 0x21
    2f3c:	ee 5b       	subi	r30, 0xBE	; 190
    2f3e:	ff 4f       	sbci	r31, 0xFF	; 255
    2f40:	40 81       	ld	r20, Z
    2f42:	e2 54       	subi	r30, 0x42	; 66
    2f44:	f0 40       	sbci	r31, 0x00	; 0
    2f46:	fa 87       	std	Y+10, r31	; 0x0a
    2f48:	e9 87       	std	Y+9, r30	; 0x09
    2f4a:	43 83       	std	Z+3, r20	; 0x03
    2f4c:	84 2f       	mov	r24, r20
    2f4e:	81 50       	subi	r24, 0x01	; 1
    2f50:	82 30       	cpi	r24, 0x02	; 2
    2f52:	08 f0       	brcs	.+2      	; 0x2f56 <chk_mounted+0x188>
    2f54:	ca c1       	rjmp	.+916    	; 0x32ea <chk_mounted+0x51c>
    2f56:	27 ad       	ldd	r18, Z+63	; 0x3f
    2f58:	22 83       	std	Z+2, r18	; 0x02
    2f5a:	22 23       	and	r18, r18
    2f5c:	09 f4       	brne	.+2      	; 0x2f60 <chk_mounted+0x192>
    2f5e:	c5 c1       	rjmp	.+906    	; 0x32ea <chk_mounted+0x51c>
    2f60:	30 e0       	ldi	r19, 0x00	; 0
    2f62:	c9 01       	movw	r24, r18
    2f64:	01 97       	sbiw	r24, 0x01	; 1
    2f66:	82 23       	and	r24, r18
    2f68:	93 23       	and	r25, r19
    2f6a:	89 2b       	or	r24, r25
    2f6c:	09 f0       	breq	.+2      	; 0x2f70 <chk_mounted+0x1a2>
    2f6e:	bd c1       	rjmp	.+890    	; 0x32ea <chk_mounted+0x51c>
    2f70:	ed 5b       	subi	r30, 0xBD	; 189
    2f72:	ff 4f       	sbci	r31, 0xFF	; 255
    2f74:	80 80       	ld	r8, Z
    2f76:	91 80       	ldd	r9, Z+1	; 0x01
    2f78:	e3 54       	subi	r30, 0x43	; 67
    2f7a:	f0 40       	sbci	r31, 0x00	; 0
    2f7c:	fa 87       	std	Y+10, r31	; 0x0a
    2f7e:	e9 87       	std	Y+9, r30	; 0x09
    2f80:	91 86       	std	Z+9, r9	; 0x09
    2f82:	80 86       	std	Z+8, r8	; 0x08
    2f84:	c4 01       	movw	r24, r8
    2f86:	8f 70       	andi	r24, 0x0F	; 15
    2f88:	90 70       	andi	r25, 0x00	; 0
    2f8a:	89 2b       	or	r24, r25
    2f8c:	09 f0       	breq	.+2      	; 0x2f90 <chk_mounted+0x1c2>
    2f8e:	ad c1       	rjmp	.+858    	; 0x32ea <chk_mounted+0x51c>
    2f90:	eb 5b       	subi	r30, 0xBB	; 187
    2f92:	ff 4f       	sbci	r31, 0xFF	; 255
    2f94:	80 81       	ld	r24, Z
    2f96:	91 81       	ldd	r25, Z+1	; 0x01
    2f98:	e5 54       	subi	r30, 0x45	; 69
    2f9a:	f0 40       	sbci	r31, 0x00	; 0
    2f9c:	fa 87       	std	Y+10, r31	; 0x0a
    2f9e:	e9 87       	std	Y+9, r30	; 0x09
    2fa0:	7c 01       	movw	r14, r24
    2fa2:	00 e0       	ldi	r16, 0x00	; 0
    2fa4:	10 e0       	ldi	r17, 0x00	; 0
    2fa6:	e1 14       	cp	r14, r1
    2fa8:	f1 04       	cpc	r15, r1
    2faa:	01 05       	cpc	r16, r1
    2fac:	11 05       	cpc	r17, r1
    2fae:	51 f4       	brne	.+20     	; 0x2fc4 <chk_mounted+0x1f6>
    2fb0:	ee 5a       	subi	r30, 0xAE	; 174
    2fb2:	ff 4f       	sbci	r31, 0xFF	; 255
    2fb4:	e0 80       	ld	r14, Z
    2fb6:	f1 80       	ldd	r15, Z+1	; 0x01
    2fb8:	02 81       	ldd	r16, Z+2	; 0x02
    2fba:	13 81       	ldd	r17, Z+3	; 0x03
    2fbc:	e2 55       	subi	r30, 0x52	; 82
    2fbe:	f0 40       	sbci	r31, 0x00	; 0
    2fc0:	fa 87       	std	Y+10, r31	; 0x0a
    2fc2:	e9 87       	std	Y+9, r30	; 0x09
    2fc4:	29 85       	ldd	r18, Y+9	; 0x09
    2fc6:	3a 85       	ldd	r19, Y+10	; 0x0a
    2fc8:	20 5c       	subi	r18, 0xC0	; 192
    2fca:	3f 4f       	sbci	r19, 0xFF	; 255
    2fcc:	d9 01       	movw	r26, r18
    2fce:	6d 90       	ld	r6, X+
    2fd0:	7c 90       	ld	r7, X
    2fd2:	11 97       	sbiw	r26, 0x01	; 1
    2fd4:	a0 54       	subi	r26, 0x40	; 64
    2fd6:	b0 40       	sbci	r27, 0x00	; 0
    2fd8:	ba 87       	std	Y+10, r27	; 0x0a
    2fda:	a9 87       	std	Y+9, r26	; 0x09
    2fdc:	61 14       	cp	r6, r1
    2fde:	71 04       	cpc	r7, r1
    2fe0:	09 f4       	brne	.+2      	; 0x2fe4 <chk_mounted+0x216>
    2fe2:	83 c1       	rjmp	.+774    	; 0x32ea <chk_mounted+0x51c>
    2fe4:	24 2f       	mov	r18, r20
    2fe6:	30 e0       	ldi	r19, 0x00	; 0
    2fe8:	40 e0       	ldi	r20, 0x00	; 0
    2fea:	50 e0       	ldi	r21, 0x00	; 0
    2fec:	c6 01       	movw	r24, r12
    2fee:	b5 01       	movw	r22, r10
    2ff0:	0e 94 cf 35 	call	0x6b9e	; 0x6b9e <__mulsi3>
    2ff4:	69 83       	std	Y+1, r22	; 0x01
    2ff6:	7a 83       	std	Y+2, r23	; 0x02
    2ff8:	8b 83       	std	Y+3, r24	; 0x03
    2ffa:	9c 83       	std	Y+4, r25	; 0x04
    2ffc:	93 01       	movw	r18, r6
    2ffe:	40 e0       	ldi	r20, 0x00	; 0
    3000:	50 e0       	ldi	r21, 0x00	; 0
    3002:	2d 83       	std	Y+5, r18	; 0x05
    3004:	3e 83       	std	Y+6, r19	; 0x06
    3006:	4f 83       	std	Y+7, r20	; 0x07
    3008:	58 87       	std	Y+8, r21	; 0x08
    300a:	e4 e0       	ldi	r30, 0x04	; 4
    300c:	96 94       	lsr	r9
    300e:	87 94       	ror	r8
    3010:	ea 95       	dec	r30
    3012:	e1 f7       	brne	.-8      	; 0x300c <chk_mounted+0x23e>
    3014:	54 01       	movw	r10, r8
    3016:	cc 24       	eor	r12, r12
    3018:	dd 24       	eor	r13, r13
    301a:	a2 0e       	add	r10, r18
    301c:	b3 1e       	adc	r11, r19
    301e:	c4 1e       	adc	r12, r20
    3020:	d5 1e       	adc	r13, r21
    3022:	a6 0e       	add	r10, r22
    3024:	b7 1e       	adc	r11, r23
    3026:	c8 1e       	adc	r12, r24
    3028:	d9 1e       	adc	r13, r25
    302a:	ea 14       	cp	r14, r10
    302c:	fb 04       	cpc	r15, r11
    302e:	0c 05       	cpc	r16, r12
    3030:	1d 05       	cpc	r17, r13
    3032:	08 f4       	brcc	.+2      	; 0x3036 <chk_mounted+0x268>
    3034:	5a c1       	rjmp	.+692    	; 0x32ea <chk_mounted+0x51c>
    3036:	ea 18       	sub	r14, r10
    3038:	fb 08       	sbc	r15, r11
    303a:	0c 09       	sbc	r16, r12
    303c:	1d 09       	sbc	r17, r13
    303e:	a9 85       	ldd	r26, Y+9	; 0x09
    3040:	ba 85       	ldd	r27, Y+10	; 0x0a
    3042:	12 96       	adiw	r26, 0x02	; 2
    3044:	2c 91       	ld	r18, X
    3046:	30 e0       	ldi	r19, 0x00	; 0
    3048:	40 e0       	ldi	r20, 0x00	; 0
    304a:	50 e0       	ldi	r21, 0x00	; 0
    304c:	c8 01       	movw	r24, r16
    304e:	b7 01       	movw	r22, r14
    3050:	0e 94 ee 35 	call	0x6bdc	; 0x6bdc <__udivmodsi4>
    3054:	c9 01       	movw	r24, r18
    3056:	da 01       	movw	r26, r20
    3058:	00 97       	sbiw	r24, 0x00	; 0
    305a:	a1 05       	cpc	r26, r1
    305c:	b1 05       	cpc	r27, r1
    305e:	09 f4       	brne	.+2      	; 0x3062 <chk_mounted+0x294>
    3060:	44 c1       	rjmp	.+648    	; 0x32ea <chk_mounted+0x51c>
    3062:	86 3f       	cpi	r24, 0xF6	; 246
    3064:	ef e0       	ldi	r30, 0x0F	; 15
    3066:	9e 07       	cpc	r25, r30
    3068:	e0 e0       	ldi	r30, 0x00	; 0
    306a:	ae 07       	cpc	r26, r30
    306c:	e0 e0       	ldi	r30, 0x00	; 0
    306e:	be 07       	cpc	r27, r30
    3070:	18 f4       	brcc	.+6      	; 0x3078 <chk_mounted+0x2aa>
    3072:	99 24       	eor	r9, r9
    3074:	93 94       	inc	r9
    3076:	0d c0       	rjmp	.+26     	; 0x3092 <chk_mounted+0x2c4>
    3078:	86 3f       	cpi	r24, 0xF6	; 246
    307a:	ff ef       	ldi	r31, 0xFF	; 255
    307c:	9f 07       	cpc	r25, r31
    307e:	f0 e0       	ldi	r31, 0x00	; 0
    3080:	af 07       	cpc	r26, r31
    3082:	f0 e0       	ldi	r31, 0x00	; 0
    3084:	bf 07       	cpc	r27, r31
    3086:	18 f0       	brcs	.+6      	; 0x308e <chk_mounted+0x2c0>
    3088:	43 e0       	ldi	r20, 0x03	; 3
    308a:	94 2e       	mov	r9, r20
    308c:	02 c0       	rjmp	.+4      	; 0x3092 <chk_mounted+0x2c4>
    308e:	32 e0       	ldi	r19, 0x02	; 2
    3090:	93 2e       	mov	r9, r19
    3092:	22 e0       	ldi	r18, 0x02	; 2
    3094:	e2 2e       	mov	r14, r18
    3096:	f1 2c       	mov	r15, r1
    3098:	01 2d       	mov	r16, r1
    309a:	11 2d       	mov	r17, r1
    309c:	e8 0e       	add	r14, r24
    309e:	f9 1e       	adc	r15, r25
    30a0:	0a 1f       	adc	r16, r26
    30a2:	1b 1f       	adc	r17, r27
    30a4:	a9 85       	ldd	r26, Y+9	; 0x09
    30a6:	ba 85       	ldd	r27, Y+10	; 0x0a
    30a8:	5a 96       	adiw	r26, 0x1a	; 26
    30aa:	ed 92       	st	X+, r14
    30ac:	fd 92       	st	X+, r15
    30ae:	0d 93       	st	X+, r16
    30b0:	1c 93       	st	X, r17
    30b2:	5d 97       	sbiw	r26, 0x1d	; 29
    30b4:	a2 0c       	add	r10, r2
    30b6:	b3 1c       	adc	r11, r3
    30b8:	c4 1c       	adc	r12, r4
    30ba:	d5 1c       	adc	r13, r5
    30bc:	fd 01       	movw	r30, r26
    30be:	a2 a6       	std	Z+42, r10	; 0x2a
    30c0:	b3 a6       	std	Z+43, r11	; 0x2b
    30c2:	c4 a6       	std	Z+44, r12	; 0x2c
    30c4:	d5 a6       	std	Z+45, r13	; 0x2d
    30c6:	8d 81       	ldd	r24, Y+5	; 0x05
    30c8:	9e 81       	ldd	r25, Y+6	; 0x06
    30ca:	af 81       	ldd	r26, Y+7	; 0x07
    30cc:	b8 85       	ldd	r27, Y+8	; 0x08
    30ce:	82 0d       	add	r24, r2
    30d0:	93 1d       	adc	r25, r3
    30d2:	a4 1d       	adc	r26, r4
    30d4:	b5 1d       	adc	r27, r5
    30d6:	82 a3       	std	Z+34, r24	; 0x22
    30d8:	93 a3       	std	Z+35, r25	; 0x23
    30da:	a4 a3       	std	Z+36, r26	; 0x24
    30dc:	b5 a3       	std	Z+37, r27	; 0x25
    30de:	20 85       	ldd	r18, Z+8	; 0x08
    30e0:	31 85       	ldd	r19, Z+9	; 0x09
    30e2:	f3 e0       	ldi	r31, 0x03	; 3
    30e4:	9f 16       	cp	r9, r31
    30e6:	f1 f4       	brne	.+60     	; 0x3124 <chk_mounted+0x356>
    30e8:	23 2b       	or	r18, r19
    30ea:	09 f0       	breq	.+2      	; 0x30ee <chk_mounted+0x320>
    30ec:	fe c0       	rjmp	.+508    	; 0x32ea <chk_mounted+0x51c>
    30ee:	29 85       	ldd	r18, Y+9	; 0x09
    30f0:	3a 85       	ldd	r19, Y+10	; 0x0a
    30f2:	22 5a       	subi	r18, 0xA2	; 162
    30f4:	3f 4f       	sbci	r19, 0xFF	; 255
    30f6:	f9 01       	movw	r30, r18
    30f8:	80 81       	ld	r24, Z
    30fa:	91 81       	ldd	r25, Z+1	; 0x01
    30fc:	a2 81       	ldd	r26, Z+2	; 0x02
    30fe:	b3 81       	ldd	r27, Z+3	; 0x03
    3100:	ee 55       	subi	r30, 0x5E	; 94
    3102:	f0 40       	sbci	r31, 0x00	; 0
    3104:	fa 87       	std	Y+10, r31	; 0x0a
    3106:	e9 87       	std	Y+9, r30	; 0x09
    3108:	86 a3       	std	Z+38, r24	; 0x26
    310a:	97 a3       	std	Z+39, r25	; 0x27
    310c:	a0 a7       	std	Z+40, r26	; 0x28
    310e:	b1 a7       	std	Z+41, r27	; 0x29
    3110:	a8 01       	movw	r20, r16
    3112:	97 01       	movw	r18, r14
    3114:	f2 e0       	ldi	r31, 0x02	; 2
    3116:	22 0f       	add	r18, r18
    3118:	33 1f       	adc	r19, r19
    311a:	44 1f       	adc	r20, r20
    311c:	55 1f       	adc	r21, r21
    311e:	fa 95       	dec	r31
    3120:	d1 f7       	brne	.-12     	; 0x3116 <chk_mounted+0x348>
    3122:	33 c0       	rjmp	.+102    	; 0x318a <chk_mounted+0x3bc>
    3124:	23 2b       	or	r18, r19
    3126:	09 f4       	brne	.+2      	; 0x312a <chk_mounted+0x35c>
    3128:	e0 c0       	rjmp	.+448    	; 0x32ea <chk_mounted+0x51c>
    312a:	29 81       	ldd	r18, Y+1	; 0x01
    312c:	3a 81       	ldd	r19, Y+2	; 0x02
    312e:	4b 81       	ldd	r20, Y+3	; 0x03
    3130:	5c 81       	ldd	r21, Y+4	; 0x04
    3132:	82 0f       	add	r24, r18
    3134:	93 1f       	adc	r25, r19
    3136:	a4 1f       	adc	r26, r20
    3138:	b5 1f       	adc	r27, r21
    313a:	e9 85       	ldd	r30, Y+9	; 0x09
    313c:	fa 85       	ldd	r31, Y+10	; 0x0a
    313e:	86 a3       	std	Z+38, r24	; 0x26
    3140:	97 a3       	std	Z+39, r25	; 0x27
    3142:	a0 a7       	std	Z+40, r26	; 0x28
    3144:	b1 a7       	std	Z+41, r27	; 0x29
    3146:	d8 01       	movw	r26, r16
    3148:	c7 01       	movw	r24, r14
    314a:	88 0f       	add	r24, r24
    314c:	99 1f       	adc	r25, r25
    314e:	aa 1f       	adc	r26, r26
    3150:	bb 1f       	adc	r27, r27
    3152:	f2 e0       	ldi	r31, 0x02	; 2
    3154:	9f 16       	cp	r9, r31
    3156:	19 f4       	brne	.+6      	; 0x315e <chk_mounted+0x390>
    3158:	9c 01       	movw	r18, r24
    315a:	ad 01       	movw	r20, r26
    315c:	16 c0       	rjmp	.+44     	; 0x318a <chk_mounted+0x3bc>
    315e:	9c 01       	movw	r18, r24
    3160:	ad 01       	movw	r20, r26
    3162:	2e 0d       	add	r18, r14
    3164:	3f 1d       	adc	r19, r15
    3166:	40 1f       	adc	r20, r16
    3168:	51 1f       	adc	r21, r17
    316a:	56 95       	lsr	r21
    316c:	47 95       	ror	r20
    316e:	37 95       	ror	r19
    3170:	27 95       	ror	r18
    3172:	81 e0       	ldi	r24, 0x01	; 1
    3174:	90 e0       	ldi	r25, 0x00	; 0
    3176:	a0 e0       	ldi	r26, 0x00	; 0
    3178:	b0 e0       	ldi	r27, 0x00	; 0
    317a:	e8 22       	and	r14, r24
    317c:	f9 22       	and	r15, r25
    317e:	0a 23       	and	r16, r26
    3180:	1b 23       	and	r17, r27
    3182:	2e 0d       	add	r18, r14
    3184:	3f 1d       	adc	r19, r15
    3186:	40 1f       	adc	r20, r16
    3188:	51 1f       	adc	r21, r17
    318a:	21 50       	subi	r18, 0x01	; 1
    318c:	3e 4f       	sbci	r19, 0xFE	; 254
    318e:	4f 4f       	sbci	r20, 0xFF	; 255
    3190:	5f 4f       	sbci	r21, 0xFF	; 255
    3192:	69 e0       	ldi	r22, 0x09	; 9
    3194:	56 95       	lsr	r21
    3196:	47 95       	ror	r20
    3198:	37 95       	ror	r19
    319a:	27 95       	ror	r18
    319c:	6a 95       	dec	r22
    319e:	d1 f7       	brne	.-12     	; 0x3194 <chk_mounted+0x3c6>
    31a0:	e9 85       	ldd	r30, Y+9	; 0x09
    31a2:	fa 85       	ldd	r31, Y+10	; 0x0a
    31a4:	86 8d       	ldd	r24, Z+30	; 0x1e
    31a6:	97 8d       	ldd	r25, Z+31	; 0x1f
    31a8:	a0 a1       	ldd	r26, Z+32	; 0x20
    31aa:	b1 a1       	ldd	r27, Z+33	; 0x21
    31ac:	82 17       	cp	r24, r18
    31ae:	93 07       	cpc	r25, r19
    31b0:	a4 07       	cpc	r26, r20
    31b2:	b5 07       	cpc	r27, r21
    31b4:	08 f4       	brcc	.+2      	; 0x31b8 <chk_mounted+0x3ea>
    31b6:	99 c0       	rjmp	.+306    	; 0x32ea <chk_mounted+0x51c>
    31b8:	8f ef       	ldi	r24, 0xFF	; 255
    31ba:	9f ef       	ldi	r25, 0xFF	; 255
    31bc:	af ef       	ldi	r26, 0xFF	; 255
    31be:	bf ef       	ldi	r27, 0xFF	; 255
    31c0:	86 87       	std	Z+14, r24	; 0x0e
    31c2:	97 87       	std	Z+15, r25	; 0x0f
    31c4:	a0 8b       	std	Z+16, r26	; 0x10
    31c6:	b1 8b       	std	Z+17, r27	; 0x11
    31c8:	12 86       	std	Z+10, r1	; 0x0a
    31ca:	13 86       	std	Z+11, r1	; 0x0b
    31cc:	14 86       	std	Z+12, r1	; 0x0c
    31ce:	15 86       	std	Z+13, r1	; 0x0d
    31d0:	b3 e0       	ldi	r27, 0x03	; 3
    31d2:	9b 16       	cp	r9, r27
    31d4:	09 f0       	breq	.+2      	; 0x31d8 <chk_mounted+0x40a>
    31d6:	65 c0       	rjmp	.+202    	; 0x32a2 <chk_mounted+0x4d4>
    31d8:	15 82       	std	Z+5, r1	; 0x05
    31da:	ee 59       	subi	r30, 0x9E	; 158
    31dc:	ff 4f       	sbci	r31, 0xFF	; 255
    31de:	20 81       	ld	r18, Z
    31e0:	31 81       	ldd	r19, Z+1	; 0x01
    31e2:	e2 56       	subi	r30, 0x62	; 98
    31e4:	f0 40       	sbci	r31, 0x00	; 0
    31e6:	fa 87       	std	Y+10, r31	; 0x0a
    31e8:	e9 87       	std	Y+9, r30	; 0x09
    31ea:	40 e0       	ldi	r20, 0x00	; 0
    31ec:	50 e0       	ldi	r21, 0x00	; 0
    31ee:	22 0d       	add	r18, r2
    31f0:	33 1d       	adc	r19, r3
    31f2:	44 1d       	adc	r20, r4
    31f4:	55 1d       	adc	r21, r5
    31f6:	22 8b       	std	Z+18, r18	; 0x12
    31f8:	33 8b       	std	Z+19, r19	; 0x13
    31fa:	44 8b       	std	Z+20, r20	; 0x14
    31fc:	55 8b       	std	Z+21, r21	; 0x15
    31fe:	bf 01       	movw	r22, r30
    3200:	6e 5c       	subi	r22, 0xCE	; 206
    3202:	7f 4f       	sbci	r23, 0xFF	; 255
    3204:	81 81       	ldd	r24, Z+1	; 0x01
    3206:	01 e0       	ldi	r16, 0x01	; 1
    3208:	0e 94 49 33 	call	0x6692	; 0x6692 <disk_read>
    320c:	88 23       	and	r24, r24
    320e:	09 f0       	breq	.+2      	; 0x3212 <chk_mounted+0x444>
    3210:	48 c0       	rjmp	.+144    	; 0x32a2 <chk_mounted+0x4d4>
    3212:	e9 85       	ldd	r30, Y+9	; 0x09
    3214:	fa 85       	ldd	r31, Y+10	; 0x0a
    3216:	e0 5d       	subi	r30, 0xD0	; 208
    3218:	fd 4f       	sbci	r31, 0xFD	; 253
    321a:	80 81       	ld	r24, Z
    321c:	91 81       	ldd	r25, Z+1	; 0x01
    321e:	e0 53       	subi	r30, 0x30	; 48
    3220:	f2 40       	sbci	r31, 0x02	; 2
    3222:	fa 87       	std	Y+10, r31	; 0x0a
    3224:	e9 87       	std	Y+9, r30	; 0x09
    3226:	85 55       	subi	r24, 0x55	; 85
    3228:	9a 4a       	sbci	r25, 0xAA	; 170
    322a:	09 f0       	breq	.+2      	; 0x322e <chk_mounted+0x460>
    322c:	3a c0       	rjmp	.+116    	; 0x32a2 <chk_mounted+0x4d4>
    322e:	e9 85       	ldd	r30, Y+9	; 0x09
    3230:	fa 85       	ldd	r31, Y+10	; 0x0a
    3232:	82 a9       	ldd	r24, Z+50	; 0x32
    3234:	93 a9       	ldd	r25, Z+51	; 0x33
    3236:	a4 a9       	ldd	r26, Z+52	; 0x34
    3238:	b5 a9       	ldd	r27, Z+53	; 0x35
    323a:	82 55       	subi	r24, 0x52	; 82
    323c:	92 45       	sbci	r25, 0x52	; 82
    323e:	a1 46       	sbci	r26, 0x61	; 97
    3240:	b1 44       	sbci	r27, 0x41	; 65
    3242:	79 f5       	brne	.+94     	; 0x32a2 <chk_mounted+0x4d4>
    3244:	29 85       	ldd	r18, Y+9	; 0x09
    3246:	3a 85       	ldd	r19, Y+10	; 0x0a
    3248:	2a 5e       	subi	r18, 0xEA	; 234
    324a:	3d 4f       	sbci	r19, 0xFD	; 253
    324c:	f9 01       	movw	r30, r18
    324e:	80 81       	ld	r24, Z
    3250:	91 81       	ldd	r25, Z+1	; 0x01
    3252:	a2 81       	ldd	r26, Z+2	; 0x02
    3254:	b3 81       	ldd	r27, Z+3	; 0x03
    3256:	e6 51       	subi	r30, 0x16	; 22
    3258:	f2 40       	sbci	r31, 0x02	; 2
    325a:	fa 87       	std	Y+10, r31	; 0x0a
    325c:	e9 87       	std	Y+9, r30	; 0x09
    325e:	82 57       	subi	r24, 0x72	; 114
    3260:	92 47       	sbci	r25, 0x72	; 114
    3262:	a1 44       	sbci	r26, 0x41	; 65
    3264:	b1 46       	sbci	r27, 0x61	; 97
    3266:	e9 f4       	brne	.+58     	; 0x32a2 <chk_mounted+0x4d4>
    3268:	29 85       	ldd	r18, Y+9	; 0x09
    326a:	3a 85       	ldd	r19, Y+10	; 0x0a
    326c:	22 5e       	subi	r18, 0xE2	; 226
    326e:	3d 4f       	sbci	r19, 0xFD	; 253
    3270:	f9 01       	movw	r30, r18
    3272:	80 81       	ld	r24, Z
    3274:	91 81       	ldd	r25, Z+1	; 0x01
    3276:	a2 81       	ldd	r26, Z+2	; 0x02
    3278:	b3 81       	ldd	r27, Z+3	; 0x03
    327a:	ee 51       	subi	r30, 0x1E	; 30
    327c:	f2 40       	sbci	r31, 0x02	; 2
    327e:	82 87       	std	Z+10, r24	; 0x0a
    3280:	93 87       	std	Z+11, r25	; 0x0b
    3282:	a4 87       	std	Z+12, r26	; 0x0c
    3284:	b5 87       	std	Z+13, r27	; 0x0d
    3286:	e6 5e       	subi	r30, 0xE6	; 230
    3288:	fd 4f       	sbci	r31, 0xFD	; 253
    328a:	80 81       	ld	r24, Z
    328c:	91 81       	ldd	r25, Z+1	; 0x01
    328e:	a2 81       	ldd	r26, Z+2	; 0x02
    3290:	b3 81       	ldd	r27, Z+3	; 0x03
    3292:	ea 51       	subi	r30, 0x1A	; 26
    3294:	f2 40       	sbci	r31, 0x02	; 2
    3296:	fa 87       	std	Y+10, r31	; 0x0a
    3298:	e9 87       	std	Y+9, r30	; 0x09
    329a:	86 87       	std	Z+14, r24	; 0x0e
    329c:	97 87       	std	Z+15, r25	; 0x0f
    329e:	a0 8b       	std	Z+16, r26	; 0x10
    32a0:	b1 8b       	std	Z+17, r27	; 0x11
    32a2:	a9 85       	ldd	r26, Y+9	; 0x09
    32a4:	ba 85       	ldd	r27, Y+10	; 0x0a
    32a6:	9c 92       	st	X, r9
    32a8:	80 91 62 01 	lds	r24, 0x0162
    32ac:	90 91 63 01 	lds	r25, 0x0163
    32b0:	01 96       	adiw	r24, 0x01	; 1
    32b2:	90 93 63 01 	sts	0x0163, r25
    32b6:	80 93 62 01 	sts	0x0162, r24
    32ba:	17 96       	adiw	r26, 0x07	; 7
    32bc:	9c 93       	st	X, r25
    32be:	8e 93       	st	-X, r24
    32c0:	16 97       	sbiw	r26, 0x06	; 6
    32c2:	e9 85       	ldd	r30, Y+9	; 0x09
    32c4:	fa 85       	ldd	r31, Y+10	; 0x0a
    32c6:	16 a6       	std	Z+46, r1	; 0x2e
    32c8:	17 a6       	std	Z+47, r1	; 0x2f
    32ca:	10 aa       	std	Z+48, r1	; 0x30
    32cc:	11 aa       	std	Z+49, r1	; 0x31
    32ce:	14 82       	std	Z+4, r1	; 0x04
    32d0:	a9 85       	ldd	r26, Y+9	; 0x09
    32d2:	ba 85       	ldd	r27, Y+10	; 0x0a
    32d4:	56 96       	adiw	r26, 0x16	; 22
    32d6:	1d 92       	st	X+, r1
    32d8:	1d 92       	st	X+, r1
    32da:	1d 92       	st	X+, r1
    32dc:	1c 92       	st	X, r1
    32de:	59 97       	sbiw	r26, 0x19	; 25
    32e0:	02 c0       	rjmp	.+4      	; 0x32e6 <chk_mounted+0x518>
    32e2:	8a e0       	ldi	r24, 0x0A	; 10
    32e4:	03 c0       	rjmp	.+6      	; 0x32ec <chk_mounted+0x51e>
    32e6:	80 e0       	ldi	r24, 0x00	; 0
    32e8:	01 c0       	rjmp	.+2      	; 0x32ec <chk_mounted+0x51e>
    32ea:	8d e0       	ldi	r24, 0x0D	; 13
    32ec:	2a 96       	adiw	r28, 0x0a	; 10
    32ee:	0f b6       	in	r0, 0x3f	; 63
    32f0:	f8 94       	cli
    32f2:	de bf       	out	0x3e, r29	; 62
    32f4:	0f be       	out	0x3f, r0	; 63
    32f6:	cd bf       	out	0x3d, r28	; 61
    32f8:	cf 91       	pop	r28
    32fa:	df 91       	pop	r29
    32fc:	1f 91       	pop	r17
    32fe:	0f 91       	pop	r16
    3300:	ff 90       	pop	r15
    3302:	ef 90       	pop	r14
    3304:	df 90       	pop	r13
    3306:	cf 90       	pop	r12
    3308:	bf 90       	pop	r11
    330a:	af 90       	pop	r10
    330c:	9f 90       	pop	r9
    330e:	8f 90       	pop	r8
    3310:	7f 90       	pop	r7
    3312:	6f 90       	pop	r6
    3314:	5f 90       	pop	r5
    3316:	4f 90       	pop	r4
    3318:	3f 90       	pop	r3
    331a:	2f 90       	pop	r2
    331c:	08 95       	ret

0000331e <move_window>:
    331e:	6f 92       	push	r6
    3320:	7f 92       	push	r7
    3322:	8f 92       	push	r8
    3324:	9f 92       	push	r9
    3326:	af 92       	push	r10
    3328:	bf 92       	push	r11
    332a:	cf 92       	push	r12
    332c:	df 92       	push	r13
    332e:	ef 92       	push	r14
    3330:	ff 92       	push	r15
    3332:	0f 93       	push	r16
    3334:	1f 93       	push	r17
    3336:	cf 93       	push	r28
    3338:	df 93       	push	r29
    333a:	ec 01       	movw	r28, r24
    333c:	4a 01       	movw	r8, r20
    333e:	5b 01       	movw	r10, r22
    3340:	ce a4       	ldd	r12, Y+46	; 0x2e
    3342:	df a4       	ldd	r13, Y+47	; 0x2f
    3344:	e8 a8       	ldd	r14, Y+48	; 0x30
    3346:	f9 a8       	ldd	r15, Y+49	; 0x31
    3348:	c4 16       	cp	r12, r20
    334a:	d5 06       	cpc	r13, r21
    334c:	e6 06       	cpc	r14, r22
    334e:	f7 06       	cpc	r15, r23
    3350:	09 f4       	brne	.+2      	; 0x3354 <move_window+0x36>
    3352:	4e c0       	rjmp	.+156    	; 0x33f0 <move_window+0xd2>
    3354:	8c 81       	ldd	r24, Y+4	; 0x04
    3356:	88 23       	and	r24, r24
    3358:	a1 f1       	breq	.+104    	; 0x33c2 <move_window+0xa4>
    335a:	f2 e3       	ldi	r31, 0x32	; 50
    335c:	6f 2e       	mov	r6, r31
    335e:	71 2c       	mov	r7, r1
    3360:	6c 0e       	add	r6, r28
    3362:	7d 1e       	adc	r7, r29
    3364:	89 81       	ldd	r24, Y+1	; 0x01
    3366:	b3 01       	movw	r22, r6
    3368:	a7 01       	movw	r20, r14
    336a:	96 01       	movw	r18, r12
    336c:	01 e0       	ldi	r16, 0x01	; 1
    336e:	0e 94 a1 33 	call	0x6742	; 0x6742 <disk_write>
    3372:	88 23       	and	r24, r24
    3374:	d9 f5       	brne	.+118    	; 0x33ec <move_window+0xce>
    3376:	1c 82       	std	Y+4, r1	; 0x04
    3378:	8e 8d       	ldd	r24, Y+30	; 0x1e
    337a:	9f 8d       	ldd	r25, Y+31	; 0x1f
    337c:	a8 a1       	ldd	r26, Y+32	; 0x20
    337e:	b9 a1       	ldd	r27, Y+33	; 0x21
    3380:	2a a1       	ldd	r18, Y+34	; 0x22
    3382:	3b a1       	ldd	r19, Y+35	; 0x23
    3384:	4c a1       	ldd	r20, Y+36	; 0x24
    3386:	5d a1       	ldd	r21, Y+37	; 0x25
    3388:	82 0f       	add	r24, r18
    338a:	93 1f       	adc	r25, r19
    338c:	a4 1f       	adc	r26, r20
    338e:	b5 1f       	adc	r27, r21
    3390:	c8 16       	cp	r12, r24
    3392:	d9 06       	cpc	r13, r25
    3394:	ea 06       	cpc	r14, r26
    3396:	fb 06       	cpc	r15, r27
    3398:	a0 f4       	brcc	.+40     	; 0x33c2 <move_window+0xa4>
    339a:	1b 81       	ldd	r17, Y+3	; 0x03
    339c:	10 c0       	rjmp	.+32     	; 0x33be <move_window+0xa0>
    339e:	8e 8d       	ldd	r24, Y+30	; 0x1e
    33a0:	9f 8d       	ldd	r25, Y+31	; 0x1f
    33a2:	a8 a1       	ldd	r26, Y+32	; 0x20
    33a4:	b9 a1       	ldd	r27, Y+33	; 0x21
    33a6:	c8 0e       	add	r12, r24
    33a8:	d9 1e       	adc	r13, r25
    33aa:	ea 1e       	adc	r14, r26
    33ac:	fb 1e       	adc	r15, r27
    33ae:	89 81       	ldd	r24, Y+1	; 0x01
    33b0:	b3 01       	movw	r22, r6
    33b2:	a7 01       	movw	r20, r14
    33b4:	96 01       	movw	r18, r12
    33b6:	01 e0       	ldi	r16, 0x01	; 1
    33b8:	0e 94 a1 33 	call	0x6742	; 0x6742 <disk_write>
    33bc:	11 50       	subi	r17, 0x01	; 1
    33be:	12 30       	cpi	r17, 0x02	; 2
    33c0:	70 f7       	brcc	.-36     	; 0x339e <move_window+0x80>
    33c2:	81 14       	cp	r8, r1
    33c4:	91 04       	cpc	r9, r1
    33c6:	a1 04       	cpc	r10, r1
    33c8:	b1 04       	cpc	r11, r1
    33ca:	91 f0       	breq	.+36     	; 0x33f0 <move_window+0xd2>
    33cc:	be 01       	movw	r22, r28
    33ce:	6e 5c       	subi	r22, 0xCE	; 206
    33d0:	7f 4f       	sbci	r23, 0xFF	; 255
    33d2:	89 81       	ldd	r24, Y+1	; 0x01
    33d4:	a5 01       	movw	r20, r10
    33d6:	94 01       	movw	r18, r8
    33d8:	01 e0       	ldi	r16, 0x01	; 1
    33da:	0e 94 49 33 	call	0x6692	; 0x6692 <disk_read>
    33de:	88 23       	and	r24, r24
    33e0:	29 f4       	brne	.+10     	; 0x33ec <move_window+0xce>
    33e2:	8e a6       	std	Y+46, r8	; 0x2e
    33e4:	9f a6       	std	Y+47, r9	; 0x2f
    33e6:	a8 aa       	std	Y+48, r10	; 0x30
    33e8:	b9 aa       	std	Y+49, r11	; 0x31
    33ea:	03 c0       	rjmp	.+6      	; 0x33f2 <move_window+0xd4>
    33ec:	81 e0       	ldi	r24, 0x01	; 1
    33ee:	01 c0       	rjmp	.+2      	; 0x33f2 <move_window+0xd4>
    33f0:	80 e0       	ldi	r24, 0x00	; 0
    33f2:	df 91       	pop	r29
    33f4:	cf 91       	pop	r28
    33f6:	1f 91       	pop	r17
    33f8:	0f 91       	pop	r16
    33fa:	ff 90       	pop	r15
    33fc:	ef 90       	pop	r14
    33fe:	df 90       	pop	r13
    3400:	cf 90       	pop	r12
    3402:	bf 90       	pop	r11
    3404:	af 90       	pop	r10
    3406:	9f 90       	pop	r9
    3408:	8f 90       	pop	r8
    340a:	7f 90       	pop	r7
    340c:	6f 90       	pop	r6
    340e:	08 95       	ret

00003410 <sync>:
    3410:	0f 93       	push	r16
    3412:	cf 93       	push	r28
    3414:	df 93       	push	r29
    3416:	ec 01       	movw	r28, r24
    3418:	40 e0       	ldi	r20, 0x00	; 0
    341a:	50 e0       	ldi	r21, 0x00	; 0
    341c:	60 e0       	ldi	r22, 0x00	; 0
    341e:	70 e0       	ldi	r23, 0x00	; 0
    3420:	0e 94 8f 19 	call	0x331e	; 0x331e <move_window>
    3424:	88 23       	and	r24, r24
    3426:	09 f0       	breq	.+2      	; 0x342a <sync+0x1a>
    3428:	5e c0       	rjmp	.+188    	; 0x34e6 <sync+0xd6>
    342a:	88 81       	ld	r24, Y
    342c:	83 30       	cpi	r24, 0x03	; 3
    342e:	09 f0       	breq	.+2      	; 0x3432 <sync+0x22>
    3430:	52 c0       	rjmp	.+164    	; 0x34d6 <sync+0xc6>
    3432:	8d 81       	ldd	r24, Y+5	; 0x05
    3434:	88 23       	and	r24, r24
    3436:	09 f4       	brne	.+2      	; 0x343a <sync+0x2a>
    3438:	4e c0       	rjmp	.+156    	; 0x34d6 <sync+0xc6>
    343a:	1e a6       	std	Y+46, r1	; 0x2e
    343c:	1f a6       	std	Y+47, r1	; 0x2f
    343e:	18 aa       	std	Y+48, r1	; 0x30
    3440:	19 aa       	std	Y+49, r1	; 0x31
    3442:	be 01       	movw	r22, r28
    3444:	6e 5c       	subi	r22, 0xCE	; 206
    3446:	7f 4f       	sbci	r23, 0xFF	; 255
    3448:	fb 01       	movw	r30, r22
    344a:	80 e0       	ldi	r24, 0x00	; 0
    344c:	92 e0       	ldi	r25, 0x02	; 2
    344e:	01 c0       	rjmp	.+2      	; 0x3452 <sync+0x42>
    3450:	11 92       	st	Z+, r1
    3452:	01 97       	sbiw	r24, 0x01	; 1
    3454:	2f ef       	ldi	r18, 0xFF	; 255
    3456:	8f 3f       	cpi	r24, 0xFF	; 255
    3458:	92 07       	cpc	r25, r18
    345a:	d1 f7       	brne	.-12     	; 0x3450 <sync+0x40>
    345c:	c0 5d       	subi	r28, 0xD0	; 208
    345e:	dd 4f       	sbci	r29, 0xFD	; 253
    3460:	85 e5       	ldi	r24, 0x55	; 85
    3462:	9a ea       	ldi	r25, 0xAA	; 170
    3464:	99 83       	std	Y+1, r25	; 0x01
    3466:	88 83       	st	Y, r24
    3468:	c0 53       	subi	r28, 0x30	; 48
    346a:	d2 40       	sbci	r29, 0x02	; 2
    346c:	82 e5       	ldi	r24, 0x52	; 82
    346e:	92 e5       	ldi	r25, 0x52	; 82
    3470:	a1 e6       	ldi	r26, 0x61	; 97
    3472:	b1 e4       	ldi	r27, 0x41	; 65
    3474:	8a ab       	std	Y+50, r24	; 0x32
    3476:	9b ab       	std	Y+51, r25	; 0x33
    3478:	ac ab       	std	Y+52, r26	; 0x34
    347a:	bd ab       	std	Y+53, r27	; 0x35
    347c:	ca 5e       	subi	r28, 0xEA	; 234
    347e:	dd 4f       	sbci	r29, 0xFD	; 253
    3480:	82 e7       	ldi	r24, 0x72	; 114
    3482:	92 e7       	ldi	r25, 0x72	; 114
    3484:	a1 e4       	ldi	r26, 0x41	; 65
    3486:	b1 e6       	ldi	r27, 0x61	; 97
    3488:	88 83       	st	Y, r24
    348a:	99 83       	std	Y+1, r25	; 0x01
    348c:	aa 83       	std	Y+2, r26	; 0x02
    348e:	bb 83       	std	Y+3, r27	; 0x03
    3490:	c6 51       	subi	r28, 0x16	; 22
    3492:	d2 40       	sbci	r29, 0x02	; 2
    3494:	8e 85       	ldd	r24, Y+14	; 0x0e
    3496:	9f 85       	ldd	r25, Y+15	; 0x0f
    3498:	a8 89       	ldd	r26, Y+16	; 0x10
    349a:	b9 89       	ldd	r27, Y+17	; 0x11
    349c:	c6 5e       	subi	r28, 0xE6	; 230
    349e:	dd 4f       	sbci	r29, 0xFD	; 253
    34a0:	88 83       	st	Y, r24
    34a2:	99 83       	std	Y+1, r25	; 0x01
    34a4:	aa 83       	std	Y+2, r26	; 0x02
    34a6:	bb 83       	std	Y+3, r27	; 0x03
    34a8:	ca 51       	subi	r28, 0x1A	; 26
    34aa:	d2 40       	sbci	r29, 0x02	; 2
    34ac:	8a 85       	ldd	r24, Y+10	; 0x0a
    34ae:	9b 85       	ldd	r25, Y+11	; 0x0b
    34b0:	ac 85       	ldd	r26, Y+12	; 0x0c
    34b2:	bd 85       	ldd	r27, Y+13	; 0x0d
    34b4:	c2 5e       	subi	r28, 0xE2	; 226
    34b6:	dd 4f       	sbci	r29, 0xFD	; 253
    34b8:	88 83       	st	Y, r24
    34ba:	99 83       	std	Y+1, r25	; 0x01
    34bc:	aa 83       	std	Y+2, r26	; 0x02
    34be:	bb 83       	std	Y+3, r27	; 0x03
    34c0:	ce 51       	subi	r28, 0x1E	; 30
    34c2:	d2 40       	sbci	r29, 0x02	; 2
    34c4:	2a 89       	ldd	r18, Y+18	; 0x12
    34c6:	3b 89       	ldd	r19, Y+19	; 0x13
    34c8:	4c 89       	ldd	r20, Y+20	; 0x14
    34ca:	5d 89       	ldd	r21, Y+21	; 0x15
    34cc:	89 81       	ldd	r24, Y+1	; 0x01
    34ce:	01 e0       	ldi	r16, 0x01	; 1
    34d0:	0e 94 a1 33 	call	0x6742	; 0x6742 <disk_write>
    34d4:	1d 82       	std	Y+5, r1	; 0x05
    34d6:	89 81       	ldd	r24, Y+1	; 0x01
    34d8:	60 e0       	ldi	r22, 0x00	; 0
    34da:	40 e0       	ldi	r20, 0x00	; 0
    34dc:	50 e0       	ldi	r21, 0x00	; 0
    34de:	0e 94 11 34 	call	0x6822	; 0x6822 <disk_ioctl>
    34e2:	81 11       	cpse	r24, r1
    34e4:	81 e0       	ldi	r24, 0x01	; 1
    34e6:	df 91       	pop	r29
    34e8:	cf 91       	pop	r28
    34ea:	0f 91       	pop	r16
    34ec:	08 95       	ret

000034ee <f_sync>:
    34ee:	0f 93       	push	r16
    34f0:	1f 93       	push	r17
    34f2:	cf 93       	push	r28
    34f4:	df 93       	push	r29
    34f6:	ec 01       	movw	r28, r24
    34f8:	6a 81       	ldd	r22, Y+2	; 0x02
    34fa:	7b 81       	ldd	r23, Y+3	; 0x03
    34fc:	88 81       	ld	r24, Y
    34fe:	99 81       	ldd	r25, Y+1	; 0x01
    3500:	0e 94 92 16 	call	0x2d24	; 0x2d24 <validate>
    3504:	98 2f       	mov	r25, r24
    3506:	88 23       	and	r24, r24
    3508:	e1 f5       	brne	.+120    	; 0x3582 <f_sync+0x94>
    350a:	8c 81       	ldd	r24, Y+4	; 0x04
    350c:	85 ff       	sbrs	r24, 5
    350e:	39 c0       	rjmp	.+114    	; 0x3582 <f_sync+0x94>
    3510:	4a 8d       	ldd	r20, Y+26	; 0x1a
    3512:	5b 8d       	ldd	r21, Y+27	; 0x1b
    3514:	6c 8d       	ldd	r22, Y+28	; 0x1c
    3516:	7d 8d       	ldd	r23, Y+29	; 0x1d
    3518:	88 81       	ld	r24, Y
    351a:	99 81       	ldd	r25, Y+1	; 0x01
    351c:	0e 94 8f 19 	call	0x331e	; 0x331e <move_window>
    3520:	98 2f       	mov	r25, r24
    3522:	88 23       	and	r24, r24
    3524:	71 f5       	brne	.+92     	; 0x3582 <f_sync+0x94>
    3526:	0e 8d       	ldd	r16, Y+30	; 0x1e
    3528:	1f 8d       	ldd	r17, Y+31	; 0x1f
    352a:	f8 01       	movw	r30, r16
    352c:	83 85       	ldd	r24, Z+11	; 0x0b
    352e:	80 62       	ori	r24, 0x20	; 32
    3530:	83 87       	std	Z+11, r24	; 0x0b
    3532:	8a 85       	ldd	r24, Y+10	; 0x0a
    3534:	9b 85       	ldd	r25, Y+11	; 0x0b
    3536:	ac 85       	ldd	r26, Y+12	; 0x0c
    3538:	bd 85       	ldd	r27, Y+13	; 0x0d
    353a:	84 8f       	std	Z+28, r24	; 0x1c
    353c:	95 8f       	std	Z+29, r25	; 0x1d
    353e:	a6 8f       	std	Z+30, r26	; 0x1e
    3540:	b7 8f       	std	Z+31, r27	; 0x1f
    3542:	8e 85       	ldd	r24, Y+14	; 0x0e
    3544:	9f 85       	ldd	r25, Y+15	; 0x0f
    3546:	93 8f       	std	Z+27, r25	; 0x1b
    3548:	82 8f       	std	Z+26, r24	; 0x1a
    354a:	8e 85       	ldd	r24, Y+14	; 0x0e
    354c:	9f 85       	ldd	r25, Y+15	; 0x0f
    354e:	a8 89       	ldd	r26, Y+16	; 0x10
    3550:	b9 89       	ldd	r27, Y+17	; 0x11
    3552:	cd 01       	movw	r24, r26
    3554:	aa 27       	eor	r26, r26
    3556:	bb 27       	eor	r27, r27
    3558:	95 8b       	std	Z+21, r25	; 0x15
    355a:	84 8b       	std	Z+20, r24	; 0x14
    355c:	0e 94 8b 02 	call	0x516	; 0x516 <get_fattime>
    3560:	f8 01       	movw	r30, r16
    3562:	66 8b       	std	Z+22, r22	; 0x16
    3564:	77 8b       	std	Z+23, r23	; 0x17
    3566:	80 8f       	std	Z+24, r24	; 0x18
    3568:	91 8f       	std	Z+25, r25	; 0x19
    356a:	8c 81       	ldd	r24, Y+4	; 0x04
    356c:	8f 7d       	andi	r24, 0xDF	; 223
    356e:	8c 83       	std	Y+4, r24	; 0x04
    3570:	e8 81       	ld	r30, Y
    3572:	f9 81       	ldd	r31, Y+1	; 0x01
    3574:	81 e0       	ldi	r24, 0x01	; 1
    3576:	84 83       	std	Z+4, r24	; 0x04
    3578:	88 81       	ld	r24, Y
    357a:	99 81       	ldd	r25, Y+1	; 0x01
    357c:	0e 94 08 1a 	call	0x3410	; 0x3410 <sync>
    3580:	98 2f       	mov	r25, r24
    3582:	89 2f       	mov	r24, r25
    3584:	df 91       	pop	r29
    3586:	cf 91       	pop	r28
    3588:	1f 91       	pop	r17
    358a:	0f 91       	pop	r16
    358c:	08 95       	ret

0000358e <f_close>:
    358e:	cf 93       	push	r28
    3590:	df 93       	push	r29
    3592:	ec 01       	movw	r28, r24
    3594:	0e 94 77 1a 	call	0x34ee	; 0x34ee <f_sync>
    3598:	88 23       	and	r24, r24
    359a:	11 f4       	brne	.+4      	; 0x35a0 <f_close+0x12>
    359c:	19 82       	std	Y+1, r1	; 0x01
    359e:	18 82       	st	Y, r1
    35a0:	df 91       	pop	r29
    35a2:	cf 91       	pop	r28
    35a4:	08 95       	ret

000035a6 <put_fat>:
    35a6:	8f 92       	push	r8
    35a8:	9f 92       	push	r9
    35aa:	af 92       	push	r10
    35ac:	bf 92       	push	r11
    35ae:	cf 92       	push	r12
    35b0:	df 92       	push	r13
    35b2:	ef 92       	push	r14
    35b4:	ff 92       	push	r15
    35b6:	0f 93       	push	r16
    35b8:	1f 93       	push	r17
    35ba:	cf 93       	push	r28
    35bc:	df 93       	push	r29
    35be:	ec 01       	movw	r28, r24
    35c0:	6a 01       	movw	r12, r20
    35c2:	7b 01       	movw	r14, r22
    35c4:	48 01       	movw	r8, r16
    35c6:	59 01       	movw	r10, r18
    35c8:	42 30       	cpi	r20, 0x02	; 2
    35ca:	51 05       	cpc	r21, r1
    35cc:	61 05       	cpc	r22, r1
    35ce:	71 05       	cpc	r23, r1
    35d0:	08 f4       	brcc	.+2      	; 0x35d4 <put_fat+0x2e>
    35d2:	d1 c0       	rjmp	.+418    	; 0x3776 <put_fat+0x1d0>
    35d4:	8a 8d       	ldd	r24, Y+26	; 0x1a
    35d6:	9b 8d       	ldd	r25, Y+27	; 0x1b
    35d8:	ac 8d       	ldd	r26, Y+28	; 0x1c
    35da:	bd 8d       	ldd	r27, Y+29	; 0x1d
    35dc:	48 17       	cp	r20, r24
    35de:	59 07       	cpc	r21, r25
    35e0:	6a 07       	cpc	r22, r26
    35e2:	7b 07       	cpc	r23, r27
    35e4:	08 f0       	brcs	.+2      	; 0x35e8 <put_fat+0x42>
    35e6:	c7 c0       	rjmp	.+398    	; 0x3776 <put_fat+0x1d0>
    35e8:	88 81       	ld	r24, Y
    35ea:	82 30       	cpi	r24, 0x02	; 2
    35ec:	09 f4       	brne	.+2      	; 0x35f0 <put_fat+0x4a>
    35ee:	70 c0       	rjmp	.+224    	; 0x36d0 <put_fat+0x12a>
    35f0:	83 30       	cpi	r24, 0x03	; 3
    35f2:	09 f4       	brne	.+2      	; 0x35f6 <put_fat+0x50>
    35f4:	8c c0       	rjmp	.+280    	; 0x370e <put_fat+0x168>
    35f6:	81 30       	cpi	r24, 0x01	; 1
    35f8:	11 f0       	breq	.+4      	; 0x35fe <put_fat+0x58>
    35fa:	22 e0       	ldi	r18, 0x02	; 2
    35fc:	b9 c0       	rjmp	.+370    	; 0x3770 <put_fat+0x1ca>
    35fe:	8a 01       	movw	r16, r20
    3600:	16 95       	lsr	r17
    3602:	07 95       	ror	r16
    3604:	04 0f       	add	r16, r20
    3606:	15 1f       	adc	r17, r21
    3608:	a8 01       	movw	r20, r16
    360a:	45 2f       	mov	r20, r21
    360c:	55 27       	eor	r21, r21
    360e:	46 95       	lsr	r20
    3610:	60 e0       	ldi	r22, 0x00	; 0
    3612:	70 e0       	ldi	r23, 0x00	; 0
    3614:	8a a1       	ldd	r24, Y+34	; 0x22
    3616:	9b a1       	ldd	r25, Y+35	; 0x23
    3618:	ac a1       	ldd	r26, Y+36	; 0x24
    361a:	bd a1       	ldd	r27, Y+37	; 0x25
    361c:	48 0f       	add	r20, r24
    361e:	59 1f       	adc	r21, r25
    3620:	6a 1f       	adc	r22, r26
    3622:	7b 1f       	adc	r23, r27
    3624:	ce 01       	movw	r24, r28
    3626:	0e 94 8f 19 	call	0x331e	; 0x331e <move_window>
    362a:	28 2f       	mov	r18, r24
    362c:	88 23       	and	r24, r24
    362e:	09 f0       	breq	.+2      	; 0x3632 <put_fat+0x8c>
    3630:	9f c0       	rjmp	.+318    	; 0x3770 <put_fat+0x1ca>
    3632:	d8 01       	movw	r26, r16
    3634:	b1 70       	andi	r27, 0x01	; 1
    3636:	91 e0       	ldi	r25, 0x01	; 1
    3638:	e9 2e       	mov	r14, r25
    363a:	f1 2c       	mov	r15, r1
    363c:	ec 20       	and	r14, r12
    363e:	fd 20       	and	r15, r13
    3640:	e1 14       	cp	r14, r1
    3642:	f1 04       	cpc	r15, r1
    3644:	51 f0       	breq	.+20     	; 0x365a <put_fat+0xb4>
    3646:	fe 01       	movw	r30, r28
    3648:	ea 0f       	add	r30, r26
    364a:	fb 1f       	adc	r31, r27
    364c:	82 a9       	ldd	r24, Z+50	; 0x32
    364e:	8f 70       	andi	r24, 0x0F	; 15
    3650:	98 2d       	mov	r25, r8
    3652:	92 95       	swap	r25
    3654:	90 7f       	andi	r25, 0xF0	; 240
    3656:	98 2b       	or	r25, r24
    3658:	01 c0       	rjmp	.+2      	; 0x365c <put_fat+0xb6>
    365a:	98 2d       	mov	r25, r8
    365c:	ac 0f       	add	r26, r28
    365e:	bd 1f       	adc	r27, r29
    3660:	d2 96       	adiw	r26, 0x32	; 50
    3662:	9c 93       	st	X, r25
    3664:	0f 5f       	subi	r16, 0xFF	; 255
    3666:	1f 4f       	sbci	r17, 0xFF	; 255
    3668:	81 e0       	ldi	r24, 0x01	; 1
    366a:	8c 83       	std	Y+4, r24	; 0x04
    366c:	a8 01       	movw	r20, r16
    366e:	45 2f       	mov	r20, r21
    3670:	55 27       	eor	r21, r21
    3672:	46 95       	lsr	r20
    3674:	60 e0       	ldi	r22, 0x00	; 0
    3676:	70 e0       	ldi	r23, 0x00	; 0
    3678:	8a a1       	ldd	r24, Y+34	; 0x22
    367a:	9b a1       	ldd	r25, Y+35	; 0x23
    367c:	ac a1       	ldd	r26, Y+36	; 0x24
    367e:	bd a1       	ldd	r27, Y+37	; 0x25
    3680:	48 0f       	add	r20, r24
    3682:	59 1f       	adc	r21, r25
    3684:	6a 1f       	adc	r22, r26
    3686:	7b 1f       	adc	r23, r27
    3688:	ce 01       	movw	r24, r28
    368a:	0e 94 8f 19 	call	0x331e	; 0x331e <move_window>
    368e:	28 2f       	mov	r18, r24
    3690:	88 23       	and	r24, r24
    3692:	09 f0       	breq	.+2      	; 0x3696 <put_fat+0xf0>
    3694:	6d c0       	rjmp	.+218    	; 0x3770 <put_fat+0x1ca>
    3696:	a8 01       	movw	r20, r16
    3698:	51 70       	andi	r21, 0x01	; 1
    369a:	ef 28       	or	r14, r15
    369c:	49 f0       	breq	.+18     	; 0x36b0 <put_fat+0x10a>
    369e:	14 e0       	ldi	r17, 0x04	; 4
    36a0:	b6 94       	lsr	r11
    36a2:	a7 94       	ror	r10
    36a4:	97 94       	ror	r9
    36a6:	87 94       	ror	r8
    36a8:	1a 95       	dec	r17
    36aa:	d1 f7       	brne	.-12     	; 0x36a0 <put_fat+0xfa>
    36ac:	68 2d       	mov	r22, r8
    36ae:	0b c0       	rjmp	.+22     	; 0x36c6 <put_fat+0x120>
    36b0:	fe 01       	movw	r30, r28
    36b2:	e4 0f       	add	r30, r20
    36b4:	f5 1f       	adc	r31, r21
    36b6:	62 a9       	ldd	r22, Z+50	; 0x32
    36b8:	60 7f       	andi	r22, 0xF0	; 240
    36ba:	bb 27       	eor	r27, r27
    36bc:	ab 2d       	mov	r26, r11
    36be:	9a 2d       	mov	r25, r10
    36c0:	89 2d       	mov	r24, r9
    36c2:	8f 70       	andi	r24, 0x0F	; 15
    36c4:	68 2b       	or	r22, r24
    36c6:	4c 0f       	add	r20, r28
    36c8:	5d 1f       	adc	r21, r29
    36ca:	fa 01       	movw	r30, r20
    36cc:	62 ab       	std	Z+50, r22	; 0x32
    36ce:	50 c0       	rjmp	.+160    	; 0x3770 <put_fat+0x1ca>
    36d0:	45 2f       	mov	r20, r21
    36d2:	56 2f       	mov	r21, r22
    36d4:	67 2f       	mov	r22, r23
    36d6:	77 27       	eor	r23, r23
    36d8:	8a a1       	ldd	r24, Y+34	; 0x22
    36da:	9b a1       	ldd	r25, Y+35	; 0x23
    36dc:	ac a1       	ldd	r26, Y+36	; 0x24
    36de:	bd a1       	ldd	r27, Y+37	; 0x25
    36e0:	48 0f       	add	r20, r24
    36e2:	59 1f       	adc	r21, r25
    36e4:	6a 1f       	adc	r22, r26
    36e6:	7b 1f       	adc	r23, r27
    36e8:	ce 01       	movw	r24, r28
    36ea:	0e 94 8f 19 	call	0x331e	; 0x331e <move_window>
    36ee:	28 2f       	mov	r18, r24
    36f0:	88 23       	and	r24, r24
    36f2:	09 f0       	breq	.+2      	; 0x36f6 <put_fat+0x150>
    36f4:	3d c0       	rjmp	.+122    	; 0x3770 <put_fat+0x1ca>
    36f6:	cc 0c       	add	r12, r12
    36f8:	dd 1c       	adc	r13, r13
    36fa:	ee 1c       	adc	r14, r14
    36fc:	ff 1c       	adc	r15, r15
    36fe:	f6 01       	movw	r30, r12
    3700:	f1 70       	andi	r31, 0x01	; 1
    3702:	f2 96       	adiw	r30, 0x32	; 50
    3704:	ec 0f       	add	r30, r28
    3706:	fd 1f       	adc	r31, r29
    3708:	91 82       	std	Z+1, r9	; 0x01
    370a:	80 82       	st	Z, r8
    370c:	31 c0       	rjmp	.+98     	; 0x3770 <put_fat+0x1ca>
    370e:	e7 e0       	ldi	r30, 0x07	; 7
    3710:	76 95       	lsr	r23
    3712:	67 95       	ror	r22
    3714:	57 95       	ror	r21
    3716:	47 95       	ror	r20
    3718:	ea 95       	dec	r30
    371a:	d1 f7       	brne	.-12     	; 0x3710 <put_fat+0x16a>
    371c:	8a a1       	ldd	r24, Y+34	; 0x22
    371e:	9b a1       	ldd	r25, Y+35	; 0x23
    3720:	ac a1       	ldd	r26, Y+36	; 0x24
    3722:	bd a1       	ldd	r27, Y+37	; 0x25
    3724:	48 0f       	add	r20, r24
    3726:	59 1f       	adc	r21, r25
    3728:	6a 1f       	adc	r22, r26
    372a:	7b 1f       	adc	r23, r27
    372c:	ce 01       	movw	r24, r28
    372e:	0e 94 8f 19 	call	0x331e	; 0x331e <move_window>
    3732:	28 2f       	mov	r18, r24
    3734:	88 23       	and	r24, r24
    3736:	e1 f4       	brne	.+56     	; 0x3770 <put_fat+0x1ca>
    3738:	32 e0       	ldi	r19, 0x02	; 2
    373a:	cc 0c       	add	r12, r12
    373c:	dd 1c       	adc	r13, r13
    373e:	ee 1c       	adc	r14, r14
    3740:	ff 1c       	adc	r15, r15
    3742:	3a 95       	dec	r19
    3744:	d1 f7       	brne	.-12     	; 0x373a <put_fat+0x194>
    3746:	f6 01       	movw	r30, r12
    3748:	f1 70       	andi	r31, 0x01	; 1
    374a:	f2 96       	adiw	r30, 0x32	; 50
    374c:	ec 0f       	add	r30, r28
    374e:	fd 1f       	adc	r31, r29
    3750:	80 81       	ld	r24, Z
    3752:	91 81       	ldd	r25, Z+1	; 0x01
    3754:	a2 81       	ldd	r26, Z+2	; 0x02
    3756:	b3 81       	ldd	r27, Z+3	; 0x03
    3758:	80 70       	andi	r24, 0x00	; 0
    375a:	90 70       	andi	r25, 0x00	; 0
    375c:	a0 70       	andi	r26, 0x00	; 0
    375e:	b0 7f       	andi	r27, 0xF0	; 240
    3760:	88 29       	or	r24, r8
    3762:	99 29       	or	r25, r9
    3764:	aa 29       	or	r26, r10
    3766:	bb 29       	or	r27, r11
    3768:	80 83       	st	Z, r24
    376a:	91 83       	std	Z+1, r25	; 0x01
    376c:	a2 83       	std	Z+2, r26	; 0x02
    376e:	b3 83       	std	Z+3, r27	; 0x03
    3770:	81 e0       	ldi	r24, 0x01	; 1
    3772:	8c 83       	std	Y+4, r24	; 0x04
    3774:	01 c0       	rjmp	.+2      	; 0x3778 <put_fat+0x1d2>
    3776:	22 e0       	ldi	r18, 0x02	; 2
    3778:	82 2f       	mov	r24, r18
    377a:	df 91       	pop	r29
    377c:	cf 91       	pop	r28
    377e:	1f 91       	pop	r17
    3780:	0f 91       	pop	r16
    3782:	ff 90       	pop	r15
    3784:	ef 90       	pop	r14
    3786:	df 90       	pop	r13
    3788:	cf 90       	pop	r12
    378a:	bf 90       	pop	r11
    378c:	af 90       	pop	r10
    378e:	9f 90       	pop	r9
    3790:	8f 90       	pop	r8
    3792:	08 95       	ret

00003794 <get_fat>:
    3794:	bf 92       	push	r11
    3796:	cf 92       	push	r12
    3798:	df 92       	push	r13
    379a:	ef 92       	push	r14
    379c:	ff 92       	push	r15
    379e:	0f 93       	push	r16
    37a0:	1f 93       	push	r17
    37a2:	cf 93       	push	r28
    37a4:	df 93       	push	r29
    37a6:	6c 01       	movw	r12, r24
    37a8:	7a 01       	movw	r14, r20
    37aa:	8b 01       	movw	r16, r22
    37ac:	42 30       	cpi	r20, 0x02	; 2
    37ae:	51 05       	cpc	r21, r1
    37b0:	61 05       	cpc	r22, r1
    37b2:	71 05       	cpc	r23, r1
    37b4:	08 f4       	brcc	.+2      	; 0x37b8 <get_fat+0x24>
    37b6:	ac c0       	rjmp	.+344    	; 0x3910 <get_fat+0x17c>
    37b8:	f6 01       	movw	r30, r12
    37ba:	82 8d       	ldd	r24, Z+26	; 0x1a
    37bc:	93 8d       	ldd	r25, Z+27	; 0x1b
    37be:	a4 8d       	ldd	r26, Z+28	; 0x1c
    37c0:	b5 8d       	ldd	r27, Z+29	; 0x1d
    37c2:	48 17       	cp	r20, r24
    37c4:	59 07       	cpc	r21, r25
    37c6:	6a 07       	cpc	r22, r26
    37c8:	7b 07       	cpc	r23, r27
    37ca:	08 f0       	brcs	.+2      	; 0x37ce <get_fat+0x3a>
    37cc:	a1 c0       	rjmp	.+322    	; 0x3910 <get_fat+0x17c>
    37ce:	80 81       	ld	r24, Z
    37d0:	82 30       	cpi	r24, 0x02	; 2
    37d2:	09 f4       	brne	.+2      	; 0x37d6 <get_fat+0x42>
    37d4:	57 c0       	rjmp	.+174    	; 0x3884 <get_fat+0xf0>
    37d6:	83 30       	cpi	r24, 0x03	; 3
    37d8:	09 f4       	brne	.+2      	; 0x37dc <get_fat+0x48>
    37da:	74 c0       	rjmp	.+232    	; 0x38c4 <get_fat+0x130>
    37dc:	81 30       	cpi	r24, 0x01	; 1
    37de:	09 f0       	breq	.+2      	; 0x37e2 <get_fat+0x4e>
    37e0:	9c c0       	rjmp	.+312    	; 0x391a <get_fat+0x186>
    37e2:	ea 01       	movw	r28, r20
    37e4:	d6 95       	lsr	r29
    37e6:	c7 95       	ror	r28
    37e8:	c4 0f       	add	r28, r20
    37ea:	d5 1f       	adc	r29, r21
    37ec:	ae 01       	movw	r20, r28
    37ee:	45 2f       	mov	r20, r21
    37f0:	55 27       	eor	r21, r21
    37f2:	46 95       	lsr	r20
    37f4:	60 e0       	ldi	r22, 0x00	; 0
    37f6:	70 e0       	ldi	r23, 0x00	; 0
    37f8:	f6 01       	movw	r30, r12
    37fa:	82 a1       	ldd	r24, Z+34	; 0x22
    37fc:	93 a1       	ldd	r25, Z+35	; 0x23
    37fe:	a4 a1       	ldd	r26, Z+36	; 0x24
    3800:	b5 a1       	ldd	r27, Z+37	; 0x25
    3802:	48 0f       	add	r20, r24
    3804:	59 1f       	adc	r21, r25
    3806:	6a 1f       	adc	r22, r26
    3808:	7b 1f       	adc	r23, r27
    380a:	c6 01       	movw	r24, r12
    380c:	0e 94 8f 19 	call	0x331e	; 0x331e <move_window>
    3810:	88 23       	and	r24, r24
    3812:	09 f0       	breq	.+2      	; 0x3816 <get_fat+0x82>
    3814:	82 c0       	rjmp	.+260    	; 0x391a <get_fat+0x186>
    3816:	fe 01       	movw	r30, r28
    3818:	f1 70       	andi	r31, 0x01	; 1
    381a:	ec 0d       	add	r30, r12
    381c:	fd 1d       	adc	r31, r13
    381e:	b2 a8       	ldd	r11, Z+50	; 0x32
    3820:	21 96       	adiw	r28, 0x01	; 1
    3822:	ae 01       	movw	r20, r28
    3824:	45 2f       	mov	r20, r21
    3826:	55 27       	eor	r21, r21
    3828:	46 95       	lsr	r20
    382a:	60 e0       	ldi	r22, 0x00	; 0
    382c:	70 e0       	ldi	r23, 0x00	; 0
    382e:	f6 01       	movw	r30, r12
    3830:	82 a1       	ldd	r24, Z+34	; 0x22
    3832:	93 a1       	ldd	r25, Z+35	; 0x23
    3834:	a4 a1       	ldd	r26, Z+36	; 0x24
    3836:	b5 a1       	ldd	r27, Z+37	; 0x25
    3838:	48 0f       	add	r20, r24
    383a:	59 1f       	adc	r21, r25
    383c:	6a 1f       	adc	r22, r26
    383e:	7b 1f       	adc	r23, r27
    3840:	c6 01       	movw	r24, r12
    3842:	0e 94 8f 19 	call	0x331e	; 0x331e <move_window>
    3846:	88 23       	and	r24, r24
    3848:	09 f0       	breq	.+2      	; 0x384c <get_fat+0xb8>
    384a:	67 c0       	rjmp	.+206    	; 0x391a <get_fat+0x186>
    384c:	6b 2d       	mov	r22, r11
    384e:	70 e0       	ldi	r23, 0x00	; 0
    3850:	d1 70       	andi	r29, 0x01	; 1
    3852:	cc 0d       	add	r28, r12
    3854:	dd 1d       	adc	r29, r13
    3856:	9a a9       	ldd	r25, Y+50	; 0x32
    3858:	80 e0       	ldi	r24, 0x00	; 0
    385a:	68 2b       	or	r22, r24
    385c:	79 2b       	or	r23, r25
    385e:	c7 01       	movw	r24, r14
    3860:	81 70       	andi	r24, 0x01	; 1
    3862:	90 70       	andi	r25, 0x00	; 0
    3864:	89 2b       	or	r24, r25
    3866:	39 f0       	breq	.+14     	; 0x3876 <get_fat+0xe2>
    3868:	b4 e0       	ldi	r27, 0x04	; 4
    386a:	76 95       	lsr	r23
    386c:	67 95       	ror	r22
    386e:	ba 95       	dec	r27
    3870:	e1 f7       	brne	.-8      	; 0x386a <get_fat+0xd6>
    3872:	9b 01       	movw	r18, r22
    3874:	24 c0       	rjmp	.+72     	; 0x38be <get_fat+0x12a>
    3876:	9b 01       	movw	r18, r22
    3878:	40 e0       	ldi	r20, 0x00	; 0
    387a:	50 e0       	ldi	r21, 0x00	; 0
    387c:	3f 70       	andi	r19, 0x0F	; 15
    387e:	40 70       	andi	r20, 0x00	; 0
    3880:	50 70       	andi	r21, 0x00	; 0
    3882:	4f c0       	rjmp	.+158    	; 0x3922 <get_fat+0x18e>
    3884:	45 2f       	mov	r20, r21
    3886:	56 2f       	mov	r21, r22
    3888:	67 2f       	mov	r22, r23
    388a:	77 27       	eor	r23, r23
    388c:	f6 01       	movw	r30, r12
    388e:	82 a1       	ldd	r24, Z+34	; 0x22
    3890:	93 a1       	ldd	r25, Z+35	; 0x23
    3892:	a4 a1       	ldd	r26, Z+36	; 0x24
    3894:	b5 a1       	ldd	r27, Z+37	; 0x25
    3896:	48 0f       	add	r20, r24
    3898:	59 1f       	adc	r21, r25
    389a:	6a 1f       	adc	r22, r26
    389c:	7b 1f       	adc	r23, r27
    389e:	c6 01       	movw	r24, r12
    38a0:	0e 94 8f 19 	call	0x331e	; 0x331e <move_window>
    38a4:	88 23       	and	r24, r24
    38a6:	c9 f5       	brne	.+114    	; 0x391a <get_fat+0x186>
    38a8:	ee 0c       	add	r14, r14
    38aa:	ff 1c       	adc	r15, r15
    38ac:	00 1f       	adc	r16, r16
    38ae:	11 1f       	adc	r17, r17
    38b0:	f7 01       	movw	r30, r14
    38b2:	f1 70       	andi	r31, 0x01	; 1
    38b4:	ec 0d       	add	r30, r12
    38b6:	fd 1d       	adc	r31, r13
    38b8:	82 a9       	ldd	r24, Z+50	; 0x32
    38ba:	93 a9       	ldd	r25, Z+51	; 0x33
    38bc:	9c 01       	movw	r18, r24
    38be:	40 e0       	ldi	r20, 0x00	; 0
    38c0:	50 e0       	ldi	r21, 0x00	; 0
    38c2:	2f c0       	rjmp	.+94     	; 0x3922 <get_fat+0x18e>
    38c4:	e7 e0       	ldi	r30, 0x07	; 7
    38c6:	76 95       	lsr	r23
    38c8:	67 95       	ror	r22
    38ca:	57 95       	ror	r21
    38cc:	47 95       	ror	r20
    38ce:	ea 95       	dec	r30
    38d0:	d1 f7       	brne	.-12     	; 0x38c6 <get_fat+0x132>
    38d2:	f6 01       	movw	r30, r12
    38d4:	82 a1       	ldd	r24, Z+34	; 0x22
    38d6:	93 a1       	ldd	r25, Z+35	; 0x23
    38d8:	a4 a1       	ldd	r26, Z+36	; 0x24
    38da:	b5 a1       	ldd	r27, Z+37	; 0x25
    38dc:	48 0f       	add	r20, r24
    38de:	59 1f       	adc	r21, r25
    38e0:	6a 1f       	adc	r22, r26
    38e2:	7b 1f       	adc	r23, r27
    38e4:	c6 01       	movw	r24, r12
    38e6:	0e 94 8f 19 	call	0x331e	; 0x331e <move_window>
    38ea:	88 23       	and	r24, r24
    38ec:	b1 f4       	brne	.+44     	; 0x391a <get_fat+0x186>
    38ee:	42 e0       	ldi	r20, 0x02	; 2
    38f0:	ee 0c       	add	r14, r14
    38f2:	ff 1c       	adc	r15, r15
    38f4:	00 1f       	adc	r16, r16
    38f6:	11 1f       	adc	r17, r17
    38f8:	4a 95       	dec	r20
    38fa:	d1 f7       	brne	.-12     	; 0x38f0 <get_fat+0x15c>
    38fc:	f7 01       	movw	r30, r14
    38fe:	f1 70       	andi	r31, 0x01	; 1
    3900:	ec 0d       	add	r30, r12
    3902:	fd 1d       	adc	r31, r13
    3904:	22 a9       	ldd	r18, Z+50	; 0x32
    3906:	33 a9       	ldd	r19, Z+51	; 0x33
    3908:	44 a9       	ldd	r20, Z+52	; 0x34
    390a:	55 a9       	ldd	r21, Z+53	; 0x35
    390c:	5f 70       	andi	r21, 0x0F	; 15
    390e:	09 c0       	rjmp	.+18     	; 0x3922 <get_fat+0x18e>
    3910:	21 e0       	ldi	r18, 0x01	; 1
    3912:	30 e0       	ldi	r19, 0x00	; 0
    3914:	40 e0       	ldi	r20, 0x00	; 0
    3916:	50 e0       	ldi	r21, 0x00	; 0
    3918:	04 c0       	rjmp	.+8      	; 0x3922 <get_fat+0x18e>
    391a:	2f ef       	ldi	r18, 0xFF	; 255
    391c:	3f ef       	ldi	r19, 0xFF	; 255
    391e:	4f ef       	ldi	r20, 0xFF	; 255
    3920:	5f ef       	ldi	r21, 0xFF	; 255
    3922:	b9 01       	movw	r22, r18
    3924:	ca 01       	movw	r24, r20
    3926:	df 91       	pop	r29
    3928:	cf 91       	pop	r28
    392a:	1f 91       	pop	r17
    392c:	0f 91       	pop	r16
    392e:	ff 90       	pop	r15
    3930:	ef 90       	pop	r14
    3932:	df 90       	pop	r13
    3934:	cf 90       	pop	r12
    3936:	bf 90       	pop	r11
    3938:	08 95       	ret

0000393a <dir_sdi>:
    393a:	af 92       	push	r10
    393c:	bf 92       	push	r11
    393e:	cf 92       	push	r12
    3940:	df 92       	push	r13
    3942:	ef 92       	push	r14
    3944:	ff 92       	push	r15
    3946:	0f 93       	push	r16
    3948:	1f 93       	push	r17
    394a:	cf 93       	push	r28
    394c:	df 93       	push	r29
    394e:	5c 01       	movw	r10, r24
    3950:	6b 01       	movw	r12, r22
    3952:	dc 01       	movw	r26, r24
    3954:	15 96       	adiw	r26, 0x05	; 5
    3956:	7c 93       	st	X, r23
    3958:	6e 93       	st	-X, r22
    395a:	14 97       	sbiw	r26, 0x04	; 4
    395c:	16 96       	adiw	r26, 0x06	; 6
    395e:	4d 91       	ld	r20, X+
    3960:	5d 91       	ld	r21, X+
    3962:	6d 91       	ld	r22, X+
    3964:	7c 91       	ld	r23, X
    3966:	19 97       	sbiw	r26, 0x09	; 9
    3968:	41 30       	cpi	r20, 0x01	; 1
    396a:	51 05       	cpc	r21, r1
    396c:	61 05       	cpc	r22, r1
    396e:	71 05       	cpc	r23, r1
    3970:	09 f4       	brne	.+2      	; 0x3974 <dir_sdi+0x3a>
    3972:	d3 c0       	rjmp	.+422    	; 0x3b1a <dir_sdi+0x1e0>
    3974:	ed 91       	ld	r30, X+
    3976:	fc 91       	ld	r31, X
    3978:	82 8d       	ldd	r24, Z+26	; 0x1a
    397a:	93 8d       	ldd	r25, Z+27	; 0x1b
    397c:	a4 8d       	ldd	r26, Z+28	; 0x1c
    397e:	b5 8d       	ldd	r27, Z+29	; 0x1d
    3980:	48 17       	cp	r20, r24
    3982:	59 07       	cpc	r21, r25
    3984:	6a 07       	cpc	r22, r26
    3986:	7b 07       	cpc	r23, r27
    3988:	08 f0       	brcs	.+2      	; 0x398c <dir_sdi+0x52>
    398a:	c7 c0       	rjmp	.+398    	; 0x3b1a <dir_sdi+0x1e0>
    398c:	41 15       	cp	r20, r1
    398e:	51 05       	cpc	r21, r1
    3990:	61 05       	cpc	r22, r1
    3992:	71 05       	cpc	r23, r1
    3994:	81 f5       	brne	.+96     	; 0x39f6 <dir_sdi+0xbc>
    3996:	80 81       	ld	r24, Z
    3998:	83 30       	cpi	r24, 0x03	; 3
    399a:	49 f4       	brne	.+18     	; 0x39ae <dir_sdi+0x74>
    399c:	46 a1       	ldd	r20, Z+38	; 0x26
    399e:	57 a1       	ldd	r21, Z+39	; 0x27
    39a0:	60 a5       	ldd	r22, Z+40	; 0x28
    39a2:	71 a5       	ldd	r23, Z+41	; 0x29
    39a4:	41 15       	cp	r20, r1
    39a6:	51 05       	cpc	r21, r1
    39a8:	61 05       	cpc	r22, r1
    39aa:	71 05       	cpc	r23, r1
    39ac:	21 f5       	brne	.+72     	; 0x39f6 <dir_sdi+0xbc>
    39ae:	f5 01       	movw	r30, r10
    39b0:	12 86       	std	Z+10, r1	; 0x0a
    39b2:	13 86       	std	Z+11, r1	; 0x0b
    39b4:	14 86       	std	Z+12, r1	; 0x0c
    39b6:	15 86       	std	Z+13, r1	; 0x0d
    39b8:	01 90       	ld	r0, Z+
    39ba:	f0 81       	ld	r31, Z
    39bc:	e0 2d       	mov	r30, r0
    39be:	80 85       	ldd	r24, Z+8	; 0x08
    39c0:	91 85       	ldd	r25, Z+9	; 0x09
    39c2:	c8 16       	cp	r12, r24
    39c4:	d9 06       	cpc	r13, r25
    39c6:	08 f0       	brcs	.+2      	; 0x39ca <dir_sdi+0x90>
    39c8:	a8 c0       	rjmp	.+336    	; 0x3b1a <dir_sdi+0x1e0>
    39ca:	c6 01       	movw	r24, r12
    39cc:	a4 e0       	ldi	r26, 0x04	; 4
    39ce:	96 95       	lsr	r25
    39d0:	87 95       	ror	r24
    39d2:	aa 95       	dec	r26
    39d4:	e1 f7       	brne	.-8      	; 0x39ce <dir_sdi+0x94>
    39d6:	a0 e0       	ldi	r26, 0x00	; 0
    39d8:	b0 e0       	ldi	r27, 0x00	; 0
    39da:	26 a1       	ldd	r18, Z+38	; 0x26
    39dc:	37 a1       	ldd	r19, Z+39	; 0x27
    39de:	40 a5       	ldd	r20, Z+40	; 0x28
    39e0:	51 a5       	ldd	r21, Z+41	; 0x29
    39e2:	82 0f       	add	r24, r18
    39e4:	93 1f       	adc	r25, r19
    39e6:	a4 1f       	adc	r26, r20
    39e8:	b5 1f       	adc	r27, r21
    39ea:	f5 01       	movw	r30, r10
    39ec:	86 87       	std	Z+14, r24	; 0x0e
    39ee:	97 87       	std	Z+15, r25	; 0x0f
    39f0:	a0 8b       	std	Z+16, r26	; 0x10
    39f2:	b1 8b       	std	Z+17, r27	; 0x11
    39f4:	7a c0       	rjmp	.+244    	; 0x3aea <dir_sdi+0x1b0>
    39f6:	82 81       	ldd	r24, Z+2	; 0x02
    39f8:	08 2f       	mov	r16, r24
    39fa:	10 e0       	ldi	r17, 0x00	; 0
    39fc:	f4 e0       	ldi	r31, 0x04	; 4
    39fe:	00 0f       	add	r16, r16
    3a00:	11 1f       	adc	r17, r17
    3a02:	fa 95       	dec	r31
    3a04:	e1 f7       	brne	.-8      	; 0x39fe <dir_sdi+0xc4>
    3a06:	24 c0       	rjmp	.+72     	; 0x3a50 <dir_sdi+0x116>
    3a08:	ce 01       	movw	r24, r28
    3a0a:	0e 94 ca 1b 	call	0x3794	; 0x3794 <get_fat>
    3a0e:	ab 01       	movw	r20, r22
    3a10:	bc 01       	movw	r22, r24
    3a12:	4f 3f       	cpi	r20, 0xFF	; 255
    3a14:	ff ef       	ldi	r31, 0xFF	; 255
    3a16:	5f 07       	cpc	r21, r31
    3a18:	ff ef       	ldi	r31, 0xFF	; 255
    3a1a:	6f 07       	cpc	r22, r31
    3a1c:	ff ef       	ldi	r31, 0xFF	; 255
    3a1e:	7f 07       	cpc	r23, r31
    3a20:	11 f4       	brne	.+4      	; 0x3a26 <dir_sdi+0xec>
    3a22:	81 e0       	ldi	r24, 0x01	; 1
    3a24:	7b c0       	rjmp	.+246    	; 0x3b1c <dir_sdi+0x1e2>
    3a26:	42 30       	cpi	r20, 0x02	; 2
    3a28:	51 05       	cpc	r21, r1
    3a2a:	61 05       	cpc	r22, r1
    3a2c:	71 05       	cpc	r23, r1
    3a2e:	08 f4       	brcc	.+2      	; 0x3a32 <dir_sdi+0xf8>
    3a30:	74 c0       	rjmp	.+232    	; 0x3b1a <dir_sdi+0x1e0>
    3a32:	d5 01       	movw	r26, r10
    3a34:	ed 91       	ld	r30, X+
    3a36:	fc 91       	ld	r31, X
    3a38:	82 8d       	ldd	r24, Z+26	; 0x1a
    3a3a:	93 8d       	ldd	r25, Z+27	; 0x1b
    3a3c:	a4 8d       	ldd	r26, Z+28	; 0x1c
    3a3e:	b5 8d       	ldd	r27, Z+29	; 0x1d
    3a40:	48 17       	cp	r20, r24
    3a42:	59 07       	cpc	r21, r25
    3a44:	6a 07       	cpc	r22, r26
    3a46:	7b 07       	cpc	r23, r27
    3a48:	08 f0       	brcs	.+2      	; 0x3a4c <dir_sdi+0x112>
    3a4a:	67 c0       	rjmp	.+206    	; 0x3b1a <dir_sdi+0x1e0>
    3a4c:	c0 1a       	sub	r12, r16
    3a4e:	d1 0a       	sbc	r13, r17
    3a50:	f5 01       	movw	r30, r10
    3a52:	c0 81       	ld	r28, Z
    3a54:	d1 81       	ldd	r29, Z+1	; 0x01
    3a56:	c0 16       	cp	r12, r16
    3a58:	d1 06       	cpc	r13, r17
    3a5a:	b0 f6       	brcc	.-84     	; 0x3a08 <dir_sdi+0xce>
    3a5c:	d5 01       	movw	r26, r10
    3a5e:	1a 96       	adiw	r26, 0x0a	; 10
    3a60:	4d 93       	st	X+, r20
    3a62:	5d 93       	st	X+, r21
    3a64:	6d 93       	st	X+, r22
    3a66:	7c 93       	st	X, r23
    3a68:	1d 97       	sbiw	r26, 0x0d	; 13
    3a6a:	ee ef       	ldi	r30, 0xFE	; 254
    3a6c:	ee 2e       	mov	r14, r30
    3a6e:	ef ef       	ldi	r30, 0xFF	; 255
    3a70:	fe 2e       	mov	r15, r30
    3a72:	ef ef       	ldi	r30, 0xFF	; 255
    3a74:	0e 2f       	mov	r16, r30
    3a76:	ef ef       	ldi	r30, 0xFF	; 255
    3a78:	1e 2f       	mov	r17, r30
    3a7a:	e4 0e       	add	r14, r20
    3a7c:	f5 1e       	adc	r15, r21
    3a7e:	06 1f       	adc	r16, r22
    3a80:	17 1f       	adc	r17, r23
    3a82:	8a 8d       	ldd	r24, Y+26	; 0x1a
    3a84:	9b 8d       	ldd	r25, Y+27	; 0x1b
    3a86:	ac 8d       	ldd	r26, Y+28	; 0x1c
    3a88:	bd 8d       	ldd	r27, Y+29	; 0x1d
    3a8a:	02 97       	sbiw	r24, 0x02	; 2
    3a8c:	a1 09       	sbc	r26, r1
    3a8e:	b1 09       	sbc	r27, r1
    3a90:	e8 16       	cp	r14, r24
    3a92:	f9 06       	cpc	r15, r25
    3a94:	0a 07       	cpc	r16, r26
    3a96:	1b 07       	cpc	r17, r27
    3a98:	28 f0       	brcs	.+10     	; 0x3aa4 <dir_sdi+0x16a>
    3a9a:	20 e0       	ldi	r18, 0x00	; 0
    3a9c:	30 e0       	ldi	r19, 0x00	; 0
    3a9e:	40 e0       	ldi	r20, 0x00	; 0
    3aa0:	50 e0       	ldi	r21, 0x00	; 0
    3aa2:	12 c0       	rjmp	.+36     	; 0x3ac8 <dir_sdi+0x18e>
    3aa4:	2a 81       	ldd	r18, Y+2	; 0x02
    3aa6:	30 e0       	ldi	r19, 0x00	; 0
    3aa8:	40 e0       	ldi	r20, 0x00	; 0
    3aaa:	50 e0       	ldi	r21, 0x00	; 0
    3aac:	c8 01       	movw	r24, r16
    3aae:	b7 01       	movw	r22, r14
    3ab0:	0e 94 cf 35 	call	0x6b9e	; 0x6b9e <__mulsi3>
    3ab4:	9b 01       	movw	r18, r22
    3ab6:	ac 01       	movw	r20, r24
    3ab8:	8a a5       	ldd	r24, Y+42	; 0x2a
    3aba:	9b a5       	ldd	r25, Y+43	; 0x2b
    3abc:	ac a5       	ldd	r26, Y+44	; 0x2c
    3abe:	bd a5       	ldd	r27, Y+45	; 0x2d
    3ac0:	28 0f       	add	r18, r24
    3ac2:	39 1f       	adc	r19, r25
    3ac4:	4a 1f       	adc	r20, r26
    3ac6:	5b 1f       	adc	r21, r27
    3ac8:	c6 01       	movw	r24, r12
    3aca:	64 e0       	ldi	r22, 0x04	; 4
    3acc:	96 95       	lsr	r25
    3ace:	87 95       	ror	r24
    3ad0:	6a 95       	dec	r22
    3ad2:	e1 f7       	brne	.-8      	; 0x3acc <dir_sdi+0x192>
    3ad4:	a0 e0       	ldi	r26, 0x00	; 0
    3ad6:	b0 e0       	ldi	r27, 0x00	; 0
    3ad8:	28 0f       	add	r18, r24
    3ada:	39 1f       	adc	r19, r25
    3adc:	4a 1f       	adc	r20, r26
    3ade:	5b 1f       	adc	r21, r27
    3ae0:	f5 01       	movw	r30, r10
    3ae2:	26 87       	std	Z+14, r18	; 0x0e
    3ae4:	37 87       	std	Z+15, r19	; 0x0f
    3ae6:	40 8b       	std	Z+16, r20	; 0x10
    3ae8:	51 8b       	std	Z+17, r21	; 0x11
    3aea:	ff e0       	ldi	r31, 0x0F	; 15
    3aec:	cf 22       	and	r12, r31
    3aee:	dd 24       	eor	r13, r13
    3af0:	35 e0       	ldi	r19, 0x05	; 5
    3af2:	cc 0c       	add	r12, r12
    3af4:	dd 1c       	adc	r13, r13
    3af6:	3a 95       	dec	r19
    3af8:	e1 f7       	brne	.-8      	; 0x3af2 <dir_sdi+0x1b8>
    3afa:	82 e3       	ldi	r24, 0x32	; 50
    3afc:	90 e0       	ldi	r25, 0x00	; 0
    3afe:	c8 0e       	add	r12, r24
    3b00:	d9 1e       	adc	r13, r25
    3b02:	d5 01       	movw	r26, r10
    3b04:	8d 91       	ld	r24, X+
    3b06:	9c 91       	ld	r25, X
    3b08:	11 97       	sbiw	r26, 0x01	; 1
    3b0a:	8c 0d       	add	r24, r12
    3b0c:	9d 1d       	adc	r25, r13
    3b0e:	53 96       	adiw	r26, 0x13	; 19
    3b10:	9c 93       	st	X, r25
    3b12:	8e 93       	st	-X, r24
    3b14:	52 97       	sbiw	r26, 0x12	; 18
    3b16:	80 e0       	ldi	r24, 0x00	; 0
    3b18:	01 c0       	rjmp	.+2      	; 0x3b1c <dir_sdi+0x1e2>
    3b1a:	82 e0       	ldi	r24, 0x02	; 2
    3b1c:	df 91       	pop	r29
    3b1e:	cf 91       	pop	r28
    3b20:	1f 91       	pop	r17
    3b22:	0f 91       	pop	r16
    3b24:	ff 90       	pop	r15
    3b26:	ef 90       	pop	r14
    3b28:	df 90       	pop	r13
    3b2a:	cf 90       	pop	r12
    3b2c:	bf 90       	pop	r11
    3b2e:	af 90       	pop	r10
    3b30:	08 95       	ret

00003b32 <create_chain>:
    3b32:	4f 92       	push	r4
    3b34:	5f 92       	push	r5
    3b36:	6f 92       	push	r6
    3b38:	7f 92       	push	r7
    3b3a:	8f 92       	push	r8
    3b3c:	9f 92       	push	r9
    3b3e:	af 92       	push	r10
    3b40:	bf 92       	push	r11
    3b42:	cf 92       	push	r12
    3b44:	df 92       	push	r13
    3b46:	ef 92       	push	r14
    3b48:	ff 92       	push	r15
    3b4a:	0f 93       	push	r16
    3b4c:	1f 93       	push	r17
    3b4e:	cf 93       	push	r28
    3b50:	df 93       	push	r29
    3b52:	ec 01       	movw	r28, r24
    3b54:	2a 01       	movw	r4, r20
    3b56:	3b 01       	movw	r6, r22
    3b58:	41 15       	cp	r20, r1
    3b5a:	51 05       	cpc	r21, r1
    3b5c:	61 05       	cpc	r22, r1
    3b5e:	71 05       	cpc	r23, r1
    3b60:	99 f4       	brne	.+38     	; 0x3b88 <create_chain+0x56>
    3b62:	8a 84       	ldd	r8, Y+10	; 0x0a
    3b64:	9b 84       	ldd	r9, Y+11	; 0x0b
    3b66:	ac 84       	ldd	r10, Y+12	; 0x0c
    3b68:	bd 84       	ldd	r11, Y+13	; 0x0d
    3b6a:	81 14       	cp	r8, r1
    3b6c:	91 04       	cpc	r9, r1
    3b6e:	a1 04       	cpc	r10, r1
    3b70:	b1 04       	cpc	r11, r1
    3b72:	09 f1       	breq	.+66     	; 0x3bb6 <create_chain+0x84>
    3b74:	8a 8d       	ldd	r24, Y+26	; 0x1a
    3b76:	9b 8d       	ldd	r25, Y+27	; 0x1b
    3b78:	ac 8d       	ldd	r26, Y+28	; 0x1c
    3b7a:	bd 8d       	ldd	r27, Y+29	; 0x1d
    3b7c:	88 16       	cp	r8, r24
    3b7e:	99 06       	cpc	r9, r25
    3b80:	aa 06       	cpc	r10, r26
    3b82:	bb 06       	cpc	r11, r27
    3b84:	c0 f4       	brcc	.+48     	; 0x3bb6 <create_chain+0x84>
    3b86:	1c c0       	rjmp	.+56     	; 0x3bc0 <create_chain+0x8e>
    3b88:	0e 94 ca 1b 	call	0x3794	; 0x3794 <get_fat>
    3b8c:	9b 01       	movw	r18, r22
    3b8e:	ac 01       	movw	r20, r24
    3b90:	62 30       	cpi	r22, 0x02	; 2
    3b92:	71 05       	cpc	r23, r1
    3b94:	81 05       	cpc	r24, r1
    3b96:	91 05       	cpc	r25, r1
    3b98:	08 f4       	brcc	.+2      	; 0x3b9c <create_chain+0x6a>
    3b9a:	8a c0       	rjmp	.+276    	; 0x3cb0 <create_chain+0x17e>
    3b9c:	8a 8d       	ldd	r24, Y+26	; 0x1a
    3b9e:	9b 8d       	ldd	r25, Y+27	; 0x1b
    3ba0:	ac 8d       	ldd	r26, Y+28	; 0x1c
    3ba2:	bd 8d       	ldd	r27, Y+29	; 0x1d
    3ba4:	28 17       	cp	r18, r24
    3ba6:	39 07       	cpc	r19, r25
    3ba8:	4a 07       	cpc	r20, r26
    3baa:	5b 07       	cpc	r21, r27
    3bac:	08 f4       	brcc	.+2      	; 0x3bb0 <create_chain+0x7e>
    3bae:	8e c0       	rjmp	.+284    	; 0x3ccc <create_chain+0x19a>
    3bb0:	53 01       	movw	r10, r6
    3bb2:	42 01       	movw	r8, r4
    3bb4:	05 c0       	rjmp	.+10     	; 0x3bc0 <create_chain+0x8e>
    3bb6:	11 e0       	ldi	r17, 0x01	; 1
    3bb8:	81 2e       	mov	r8, r17
    3bba:	91 2c       	mov	r9, r1
    3bbc:	a1 2c       	mov	r10, r1
    3bbe:	b1 2c       	mov	r11, r1
    3bc0:	75 01       	movw	r14, r10
    3bc2:	64 01       	movw	r12, r8
    3bc4:	08 94       	sec
    3bc6:	c1 1c       	adc	r12, r1
    3bc8:	d1 1c       	adc	r13, r1
    3bca:	e1 1c       	adc	r14, r1
    3bcc:	f1 1c       	adc	r15, r1
    3bce:	8a 8d       	ldd	r24, Y+26	; 0x1a
    3bd0:	9b 8d       	ldd	r25, Y+27	; 0x1b
    3bd2:	ac 8d       	ldd	r26, Y+28	; 0x1c
    3bd4:	bd 8d       	ldd	r27, Y+29	; 0x1d
    3bd6:	c8 16       	cp	r12, r24
    3bd8:	d9 06       	cpc	r13, r25
    3bda:	ea 06       	cpc	r14, r26
    3bdc:	fb 06       	cpc	r15, r27
    3bde:	60 f0       	brcs	.+24     	; 0x3bf8 <create_chain+0xc6>
    3be0:	22 e0       	ldi	r18, 0x02	; 2
    3be2:	82 16       	cp	r8, r18
    3be4:	91 04       	cpc	r9, r1
    3be6:	a1 04       	cpc	r10, r1
    3be8:	b1 04       	cpc	r11, r1
    3bea:	08 f4       	brcc	.+2      	; 0x3bee <create_chain+0xbc>
    3bec:	6b c0       	rjmp	.+214    	; 0x3cc4 <create_chain+0x192>
    3bee:	b2 e0       	ldi	r27, 0x02	; 2
    3bf0:	cb 2e       	mov	r12, r27
    3bf2:	d1 2c       	mov	r13, r1
    3bf4:	e1 2c       	mov	r14, r1
    3bf6:	f1 2c       	mov	r15, r1
    3bf8:	ce 01       	movw	r24, r28
    3bfa:	b7 01       	movw	r22, r14
    3bfc:	a6 01       	movw	r20, r12
    3bfe:	0e 94 ca 1b 	call	0x3794	; 0x3794 <get_fat>
    3c02:	9b 01       	movw	r18, r22
    3c04:	ac 01       	movw	r20, r24
    3c06:	61 15       	cp	r22, r1
    3c08:	71 05       	cpc	r23, r1
    3c0a:	81 05       	cpc	r24, r1
    3c0c:	91 05       	cpc	r25, r1
    3c0e:	a9 f0       	breq	.+42     	; 0x3c3a <create_chain+0x108>
    3c10:	2f 3f       	cpi	r18, 0xFF	; 255
    3c12:	8f ef       	ldi	r24, 0xFF	; 255
    3c14:	38 07       	cpc	r19, r24
    3c16:	8f ef       	ldi	r24, 0xFF	; 255
    3c18:	48 07       	cpc	r20, r24
    3c1a:	8f ef       	ldi	r24, 0xFF	; 255
    3c1c:	58 07       	cpc	r21, r24
    3c1e:	09 f4       	brne	.+2      	; 0x3c22 <create_chain+0xf0>
    3c20:	55 c0       	rjmp	.+170    	; 0x3ccc <create_chain+0x19a>
    3c22:	21 30       	cpi	r18, 0x01	; 1
    3c24:	31 05       	cpc	r19, r1
    3c26:	41 05       	cpc	r20, r1
    3c28:	51 05       	cpc	r21, r1
    3c2a:	09 f4       	brne	.+2      	; 0x3c2e <create_chain+0xfc>
    3c2c:	4f c0       	rjmp	.+158    	; 0x3ccc <create_chain+0x19a>
    3c2e:	c8 14       	cp	r12, r8
    3c30:	d9 04       	cpc	r13, r9
    3c32:	ea 04       	cpc	r14, r10
    3c34:	fb 04       	cpc	r15, r11
    3c36:	31 f6       	brne	.-116    	; 0x3bc4 <create_chain+0x92>
    3c38:	45 c0       	rjmp	.+138    	; 0x3cc4 <create_chain+0x192>
    3c3a:	bc 2c       	mov	r11, r12
    3c3c:	ad 2c       	mov	r10, r13
    3c3e:	9e 2c       	mov	r9, r14
    3c40:	8f 2c       	mov	r8, r15
    3c42:	ce 01       	movw	r24, r28
    3c44:	a6 01       	movw	r20, r12
    3c46:	b7 01       	movw	r22, r14
    3c48:	0f ef       	ldi	r16, 0xFF	; 255
    3c4a:	1f ef       	ldi	r17, 0xFF	; 255
    3c4c:	2f ef       	ldi	r18, 0xFF	; 255
    3c4e:	3f e0       	ldi	r19, 0x0F	; 15
    3c50:	0e 94 d3 1a 	call	0x35a6	; 0x35a6 <put_fat>
    3c54:	88 23       	and	r24, r24
    3c56:	51 f5       	brne	.+84     	; 0x3cac <create_chain+0x17a>
    3c58:	41 14       	cp	r4, r1
    3c5a:	51 04       	cpc	r5, r1
    3c5c:	61 04       	cpc	r6, r1
    3c5e:	71 04       	cpc	r7, r1
    3c60:	49 f0       	breq	.+18     	; 0x3c74 <create_chain+0x142>
    3c62:	ce 01       	movw	r24, r28
    3c64:	b3 01       	movw	r22, r6
    3c66:	a2 01       	movw	r20, r4
    3c68:	86 01       	movw	r16, r12
    3c6a:	97 01       	movw	r18, r14
    3c6c:	0e 94 d3 1a 	call	0x35a6	; 0x35a6 <put_fat>
    3c70:	88 23       	and	r24, r24
    3c72:	e1 f4       	brne	.+56     	; 0x3cac <create_chain+0x17a>
    3c74:	ba 86       	std	Y+10, r11	; 0x0a
    3c76:	ab 86       	std	Y+11, r10	; 0x0b
    3c78:	9c 86       	std	Y+12, r9	; 0x0c
    3c7a:	8d 86       	std	Y+13, r8	; 0x0d
    3c7c:	8e 85       	ldd	r24, Y+14	; 0x0e
    3c7e:	9f 85       	ldd	r25, Y+15	; 0x0f
    3c80:	a8 89       	ldd	r26, Y+16	; 0x10
    3c82:	b9 89       	ldd	r27, Y+17	; 0x11
    3c84:	8f 3f       	cpi	r24, 0xFF	; 255
    3c86:	2f ef       	ldi	r18, 0xFF	; 255
    3c88:	92 07       	cpc	r25, r18
    3c8a:	2f ef       	ldi	r18, 0xFF	; 255
    3c8c:	a2 07       	cpc	r26, r18
    3c8e:	2f ef       	ldi	r18, 0xFF	; 255
    3c90:	b2 07       	cpc	r27, r18
    3c92:	49 f0       	breq	.+18     	; 0x3ca6 <create_chain+0x174>
    3c94:	01 97       	sbiw	r24, 0x01	; 1
    3c96:	a1 09       	sbc	r26, r1
    3c98:	b1 09       	sbc	r27, r1
    3c9a:	8e 87       	std	Y+14, r24	; 0x0e
    3c9c:	9f 87       	std	Y+15, r25	; 0x0f
    3c9e:	a8 8b       	std	Y+16, r26	; 0x10
    3ca0:	b9 8b       	std	Y+17, r27	; 0x11
    3ca2:	81 e0       	ldi	r24, 0x01	; 1
    3ca4:	8d 83       	std	Y+5, r24	; 0x05
    3ca6:	a7 01       	movw	r20, r14
    3ca8:	96 01       	movw	r18, r12
    3caa:	10 c0       	rjmp	.+32     	; 0x3ccc <create_chain+0x19a>
    3cac:	81 30       	cpi	r24, 0x01	; 1
    3cae:	29 f0       	breq	.+10     	; 0x3cba <create_chain+0x188>
    3cb0:	21 e0       	ldi	r18, 0x01	; 1
    3cb2:	30 e0       	ldi	r19, 0x00	; 0
    3cb4:	40 e0       	ldi	r20, 0x00	; 0
    3cb6:	50 e0       	ldi	r21, 0x00	; 0
    3cb8:	09 c0       	rjmp	.+18     	; 0x3ccc <create_chain+0x19a>
    3cba:	2f ef       	ldi	r18, 0xFF	; 255
    3cbc:	3f ef       	ldi	r19, 0xFF	; 255
    3cbe:	4f ef       	ldi	r20, 0xFF	; 255
    3cc0:	5f ef       	ldi	r21, 0xFF	; 255
    3cc2:	04 c0       	rjmp	.+8      	; 0x3ccc <create_chain+0x19a>
    3cc4:	20 e0       	ldi	r18, 0x00	; 0
    3cc6:	30 e0       	ldi	r19, 0x00	; 0
    3cc8:	40 e0       	ldi	r20, 0x00	; 0
    3cca:	50 e0       	ldi	r21, 0x00	; 0
    3ccc:	b9 01       	movw	r22, r18
    3cce:	ca 01       	movw	r24, r20
    3cd0:	df 91       	pop	r29
    3cd2:	cf 91       	pop	r28
    3cd4:	1f 91       	pop	r17
    3cd6:	0f 91       	pop	r16
    3cd8:	ff 90       	pop	r15
    3cda:	ef 90       	pop	r14
    3cdc:	df 90       	pop	r13
    3cde:	cf 90       	pop	r12
    3ce0:	bf 90       	pop	r11
    3ce2:	af 90       	pop	r10
    3ce4:	9f 90       	pop	r9
    3ce6:	8f 90       	pop	r8
    3ce8:	7f 90       	pop	r7
    3cea:	6f 90       	pop	r6
    3cec:	5f 90       	pop	r5
    3cee:	4f 90       	pop	r4
    3cf0:	08 95       	ret

00003cf2 <remove_chain>:
    3cf2:	9f 92       	push	r9
    3cf4:	af 92       	push	r10
    3cf6:	bf 92       	push	r11
    3cf8:	cf 92       	push	r12
    3cfa:	df 92       	push	r13
    3cfc:	ef 92       	push	r14
    3cfe:	ff 92       	push	r15
    3d00:	0f 93       	push	r16
    3d02:	1f 93       	push	r17
    3d04:	cf 93       	push	r28
    3d06:	df 93       	push	r29
    3d08:	ec 01       	movw	r28, r24
    3d0a:	7a 01       	movw	r14, r20
    3d0c:	8b 01       	movw	r16, r22
    3d0e:	42 30       	cpi	r20, 0x02	; 2
    3d10:	51 05       	cpc	r21, r1
    3d12:	61 05       	cpc	r22, r1
    3d14:	71 05       	cpc	r23, r1
    3d16:	08 f4       	brcc	.+2      	; 0x3d1a <remove_chain+0x28>
    3d18:	58 c0       	rjmp	.+176    	; 0x3dca <remove_chain+0xd8>
    3d1a:	8a 8d       	ldd	r24, Y+26	; 0x1a
    3d1c:	9b 8d       	ldd	r25, Y+27	; 0x1b
    3d1e:	ac 8d       	ldd	r26, Y+28	; 0x1c
    3d20:	bd 8d       	ldd	r27, Y+29	; 0x1d
    3d22:	48 17       	cp	r20, r24
    3d24:	59 07       	cpc	r21, r25
    3d26:	6a 07       	cpc	r22, r26
    3d28:	7b 07       	cpc	r23, r27
    3d2a:	08 f4       	brcc	.+2      	; 0x3d2e <remove_chain+0x3c>
    3d2c:	41 c0       	rjmp	.+130    	; 0x3db0 <remove_chain+0xbe>
    3d2e:	4d c0       	rjmp	.+154    	; 0x3dca <remove_chain+0xd8>
    3d30:	ce 01       	movw	r24, r28
    3d32:	b8 01       	movw	r22, r16
    3d34:	a7 01       	movw	r20, r14
    3d36:	0e 94 ca 1b 	call	0x3794	; 0x3794 <get_fat>
    3d3a:	5b 01       	movw	r10, r22
    3d3c:	6c 01       	movw	r12, r24
    3d3e:	61 15       	cp	r22, r1
    3d40:	71 05       	cpc	r23, r1
    3d42:	81 05       	cpc	r24, r1
    3d44:	91 05       	cpc	r25, r1
    3d46:	09 f4       	brne	.+2      	; 0x3d4a <remove_chain+0x58>
    3d48:	42 c0       	rjmp	.+132    	; 0x3dce <remove_chain+0xdc>
    3d4a:	81 e0       	ldi	r24, 0x01	; 1
    3d4c:	a8 16       	cp	r10, r24
    3d4e:	b1 04       	cpc	r11, r1
    3d50:	c1 04       	cpc	r12, r1
    3d52:	d1 04       	cpc	r13, r1
    3d54:	d1 f1       	breq	.+116    	; 0x3dca <remove_chain+0xd8>
    3d56:	2f ef       	ldi	r18, 0xFF	; 255
    3d58:	a2 16       	cp	r10, r18
    3d5a:	2f ef       	ldi	r18, 0xFF	; 255
    3d5c:	b2 06       	cpc	r11, r18
    3d5e:	2f ef       	ldi	r18, 0xFF	; 255
    3d60:	c2 06       	cpc	r12, r18
    3d62:	2f ef       	ldi	r18, 0xFF	; 255
    3d64:	d2 06       	cpc	r13, r18
    3d66:	11 f4       	brne	.+4      	; 0x3d6c <remove_chain+0x7a>
    3d68:	81 e0       	ldi	r24, 0x01	; 1
    3d6a:	32 c0       	rjmp	.+100    	; 0x3dd0 <remove_chain+0xde>
    3d6c:	ce 01       	movw	r24, r28
    3d6e:	b8 01       	movw	r22, r16
    3d70:	a7 01       	movw	r20, r14
    3d72:	00 e0       	ldi	r16, 0x00	; 0
    3d74:	10 e0       	ldi	r17, 0x00	; 0
    3d76:	20 e0       	ldi	r18, 0x00	; 0
    3d78:	30 e0       	ldi	r19, 0x00	; 0
    3d7a:	0e 94 d3 1a 	call	0x35a6	; 0x35a6 <put_fat>
    3d7e:	88 23       	and	r24, r24
    3d80:	39 f5       	brne	.+78     	; 0x3dd0 <remove_chain+0xde>
    3d82:	8e 85       	ldd	r24, Y+14	; 0x0e
    3d84:	9f 85       	ldd	r25, Y+15	; 0x0f
    3d86:	a8 89       	ldd	r26, Y+16	; 0x10
    3d88:	b9 89       	ldd	r27, Y+17	; 0x11
    3d8a:	8f 3f       	cpi	r24, 0xFF	; 255
    3d8c:	2f ef       	ldi	r18, 0xFF	; 255
    3d8e:	92 07       	cpc	r25, r18
    3d90:	2f ef       	ldi	r18, 0xFF	; 255
    3d92:	a2 07       	cpc	r26, r18
    3d94:	2f ef       	ldi	r18, 0xFF	; 255
    3d96:	b2 07       	cpc	r27, r18
    3d98:	41 f0       	breq	.+16     	; 0x3daa <remove_chain+0xb8>
    3d9a:	01 96       	adiw	r24, 0x01	; 1
    3d9c:	a1 1d       	adc	r26, r1
    3d9e:	b1 1d       	adc	r27, r1
    3da0:	8e 87       	std	Y+14, r24	; 0x0e
    3da2:	9f 87       	std	Y+15, r25	; 0x0f
    3da4:	a8 8b       	std	Y+16, r26	; 0x10
    3da6:	b9 8b       	std	Y+17, r27	; 0x11
    3da8:	9d 82       	std	Y+5, r9	; 0x05
    3daa:	86 01       	movw	r16, r12
    3dac:	75 01       	movw	r14, r10
    3dae:	02 c0       	rjmp	.+4      	; 0x3db4 <remove_chain+0xc2>
    3db0:	99 24       	eor	r9, r9
    3db2:	93 94       	inc	r9
    3db4:	8a 8d       	ldd	r24, Y+26	; 0x1a
    3db6:	9b 8d       	ldd	r25, Y+27	; 0x1b
    3db8:	ac 8d       	ldd	r26, Y+28	; 0x1c
    3dba:	bd 8d       	ldd	r27, Y+29	; 0x1d
    3dbc:	e8 16       	cp	r14, r24
    3dbe:	f9 06       	cpc	r15, r25
    3dc0:	0a 07       	cpc	r16, r26
    3dc2:	1b 07       	cpc	r17, r27
    3dc4:	08 f4       	brcc	.+2      	; 0x3dc8 <remove_chain+0xd6>
    3dc6:	b4 cf       	rjmp	.-152    	; 0x3d30 <remove_chain+0x3e>
    3dc8:	02 c0       	rjmp	.+4      	; 0x3dce <remove_chain+0xdc>
    3dca:	82 e0       	ldi	r24, 0x02	; 2
    3dcc:	01 c0       	rjmp	.+2      	; 0x3dd0 <remove_chain+0xde>
    3dce:	80 e0       	ldi	r24, 0x00	; 0
    3dd0:	df 91       	pop	r29
    3dd2:	cf 91       	pop	r28
    3dd4:	1f 91       	pop	r17
    3dd6:	0f 91       	pop	r16
    3dd8:	ff 90       	pop	r15
    3dda:	ef 90       	pop	r14
    3ddc:	df 90       	pop	r13
    3dde:	cf 90       	pop	r12
    3de0:	bf 90       	pop	r11
    3de2:	af 90       	pop	r10
    3de4:	9f 90       	pop	r9
    3de6:	08 95       	ret

00003de8 <f_truncate>:
    3de8:	cf 92       	push	r12
    3dea:	df 92       	push	r13
    3dec:	ef 92       	push	r14
    3dee:	ff 92       	push	r15
    3df0:	0f 93       	push	r16
    3df2:	1f 93       	push	r17
    3df4:	cf 93       	push	r28
    3df6:	df 93       	push	r29
    3df8:	ec 01       	movw	r28, r24
    3dfa:	6a 81       	ldd	r22, Y+2	; 0x02
    3dfc:	7b 81       	ldd	r23, Y+3	; 0x03
    3dfe:	88 81       	ld	r24, Y
    3e00:	99 81       	ldd	r25, Y+1	; 0x01
    3e02:	0e 94 92 16 	call	0x2d24	; 0x2d24 <validate>
    3e06:	18 2f       	mov	r17, r24
    3e08:	88 23       	and	r24, r24
    3e0a:	09 f0       	breq	.+2      	; 0x3e0e <f_truncate+0x26>
    3e0c:	6c c0       	rjmp	.+216    	; 0x3ee6 <f_truncate+0xfe>
    3e0e:	6c 81       	ldd	r22, Y+4	; 0x04
    3e10:	67 ff       	sbrs	r22, 7
    3e12:	02 c0       	rjmp	.+4      	; 0x3e18 <f_truncate+0x30>
    3e14:	12 e0       	ldi	r17, 0x02	; 2
    3e16:	67 c0       	rjmp	.+206    	; 0x3ee6 <f_truncate+0xfe>
    3e18:	61 ff       	sbrs	r22, 1
    3e1a:	6f c0       	rjmp	.+222    	; 0x3efa <f_truncate+0x112>
    3e1c:	2e 81       	ldd	r18, Y+6	; 0x06
    3e1e:	3f 81       	ldd	r19, Y+7	; 0x07
    3e20:	48 85       	ldd	r20, Y+8	; 0x08
    3e22:	59 85       	ldd	r21, Y+9	; 0x09
    3e24:	8a 85       	ldd	r24, Y+10	; 0x0a
    3e26:	9b 85       	ldd	r25, Y+11	; 0x0b
    3e28:	ac 85       	ldd	r26, Y+12	; 0x0c
    3e2a:	bd 85       	ldd	r27, Y+13	; 0x0d
    3e2c:	28 17       	cp	r18, r24
    3e2e:	39 07       	cpc	r19, r25
    3e30:	4a 07       	cpc	r20, r26
    3e32:	5b 07       	cpc	r21, r27
    3e34:	08 f0       	brcs	.+2      	; 0x3e38 <f_truncate+0x50>
    3e36:	57 c0       	rjmp	.+174    	; 0x3ee6 <f_truncate+0xfe>
    3e38:	2a 87       	std	Y+10, r18	; 0x0a
    3e3a:	3b 87       	std	Y+11, r19	; 0x0b
    3e3c:	4c 87       	std	Y+12, r20	; 0x0c
    3e3e:	5d 87       	std	Y+13, r21	; 0x0d
    3e40:	60 62       	ori	r22, 0x20	; 32
    3e42:	6c 83       	std	Y+4, r22	; 0x04
    3e44:	88 81       	ld	r24, Y
    3e46:	99 81       	ldd	r25, Y+1	; 0x01
    3e48:	21 15       	cp	r18, r1
    3e4a:	31 05       	cpc	r19, r1
    3e4c:	41 05       	cpc	r20, r1
    3e4e:	51 05       	cpc	r21, r1
    3e50:	61 f4       	brne	.+24     	; 0x3e6a <f_truncate+0x82>
    3e52:	4e 85       	ldd	r20, Y+14	; 0x0e
    3e54:	5f 85       	ldd	r21, Y+15	; 0x0f
    3e56:	68 89       	ldd	r22, Y+16	; 0x10
    3e58:	79 89       	ldd	r23, Y+17	; 0x11
    3e5a:	0e 94 79 1e 	call	0x3cf2	; 0x3cf2 <remove_chain>
    3e5e:	18 2f       	mov	r17, r24
    3e60:	1e 86       	std	Y+14, r1	; 0x0e
    3e62:	1f 86       	std	Y+15, r1	; 0x0f
    3e64:	18 8a       	std	Y+16, r1	; 0x10
    3e66:	19 8a       	std	Y+17, r1	; 0x11
    3e68:	39 c0       	rjmp	.+114    	; 0x3edc <f_truncate+0xf4>
    3e6a:	4a 89       	ldd	r20, Y+18	; 0x12
    3e6c:	5b 89       	ldd	r21, Y+19	; 0x13
    3e6e:	6c 89       	ldd	r22, Y+20	; 0x14
    3e70:	7d 89       	ldd	r23, Y+21	; 0x15
    3e72:	0e 94 ca 1b 	call	0x3794	; 0x3794 <get_fat>
    3e76:	6b 01       	movw	r12, r22
    3e78:	7c 01       	movw	r14, r24
    3e7a:	8f ef       	ldi	r24, 0xFF	; 255
    3e7c:	c8 16       	cp	r12, r24
    3e7e:	8f ef       	ldi	r24, 0xFF	; 255
    3e80:	d8 06       	cpc	r13, r24
    3e82:	8f ef       	ldi	r24, 0xFF	; 255
    3e84:	e8 06       	cpc	r14, r24
    3e86:	8f ef       	ldi	r24, 0xFF	; 255
    3e88:	f8 06       	cpc	r15, r24
    3e8a:	11 f4       	brne	.+4      	; 0x3e90 <f_truncate+0xa8>
    3e8c:	11 e0       	ldi	r17, 0x01	; 1
    3e8e:	28 c0       	rjmp	.+80     	; 0x3ee0 <f_truncate+0xf8>
    3e90:	81 e0       	ldi	r24, 0x01	; 1
    3e92:	c8 16       	cp	r12, r24
    3e94:	d1 04       	cpc	r13, r1
    3e96:	e1 04       	cpc	r14, r1
    3e98:	f1 04       	cpc	r15, r1
    3e9a:	89 f1       	breq	.+98     	; 0x3efe <f_truncate+0x116>
    3e9c:	e8 81       	ld	r30, Y
    3e9e:	f9 81       	ldd	r31, Y+1	; 0x01
    3ea0:	82 8d       	ldd	r24, Z+26	; 0x1a
    3ea2:	93 8d       	ldd	r25, Z+27	; 0x1b
    3ea4:	a4 8d       	ldd	r26, Z+28	; 0x1c
    3ea6:	b5 8d       	ldd	r27, Z+29	; 0x1d
    3ea8:	c8 16       	cp	r12, r24
    3eaa:	d9 06       	cpc	r13, r25
    3eac:	ea 06       	cpc	r14, r26
    3eae:	fb 06       	cpc	r15, r27
    3eb0:	d0 f4       	brcc	.+52     	; 0x3ee6 <f_truncate+0xfe>
    3eb2:	4a 89       	ldd	r20, Y+18	; 0x12
    3eb4:	5b 89       	ldd	r21, Y+19	; 0x13
    3eb6:	6c 89       	ldd	r22, Y+20	; 0x14
    3eb8:	7d 89       	ldd	r23, Y+21	; 0x15
    3eba:	cf 01       	movw	r24, r30
    3ebc:	0f ef       	ldi	r16, 0xFF	; 255
    3ebe:	1f ef       	ldi	r17, 0xFF	; 255
    3ec0:	2f ef       	ldi	r18, 0xFF	; 255
    3ec2:	3f e0       	ldi	r19, 0x0F	; 15
    3ec4:	0e 94 d3 1a 	call	0x35a6	; 0x35a6 <put_fat>
    3ec8:	18 2f       	mov	r17, r24
    3eca:	88 23       	and	r24, r24
    3ecc:	49 f4       	brne	.+18     	; 0x3ee0 <f_truncate+0xf8>
    3ece:	88 81       	ld	r24, Y
    3ed0:	99 81       	ldd	r25, Y+1	; 0x01
    3ed2:	b7 01       	movw	r22, r14
    3ed4:	a6 01       	movw	r20, r12
    3ed6:	0e 94 79 1e 	call	0x3cf2	; 0x3cf2 <remove_chain>
    3eda:	18 2f       	mov	r17, r24
    3edc:	11 23       	and	r17, r17
    3ede:	19 f0       	breq	.+6      	; 0x3ee6 <f_truncate+0xfe>
    3ee0:	8c 81       	ldd	r24, Y+4	; 0x04
    3ee2:	80 68       	ori	r24, 0x80	; 128
    3ee4:	8c 83       	std	Y+4, r24	; 0x04
    3ee6:	81 2f       	mov	r24, r17
    3ee8:	df 91       	pop	r29
    3eea:	cf 91       	pop	r28
    3eec:	1f 91       	pop	r17
    3eee:	0f 91       	pop	r16
    3ef0:	ff 90       	pop	r15
    3ef2:	ef 90       	pop	r14
    3ef4:	df 90       	pop	r13
    3ef6:	cf 90       	pop	r12
    3ef8:	08 95       	ret
    3efa:	17 e0       	ldi	r17, 0x07	; 7
    3efc:	f4 cf       	rjmp	.-24     	; 0x3ee6 <f_truncate+0xfe>
    3efe:	12 e0       	ldi	r17, 0x02	; 2
    3f00:	ef cf       	rjmp	.-34     	; 0x3ee0 <f_truncate+0xf8>

00003f02 <f_lseek>:
    3f02:	2f 92       	push	r2
    3f04:	3f 92       	push	r3
    3f06:	4f 92       	push	r4
    3f08:	5f 92       	push	r5
    3f0a:	6f 92       	push	r6
    3f0c:	7f 92       	push	r7
    3f0e:	8f 92       	push	r8
    3f10:	9f 92       	push	r9
    3f12:	af 92       	push	r10
    3f14:	bf 92       	push	r11
    3f16:	cf 92       	push	r12
    3f18:	df 92       	push	r13
    3f1a:	ef 92       	push	r14
    3f1c:	ff 92       	push	r15
    3f1e:	0f 93       	push	r16
    3f20:	1f 93       	push	r17
    3f22:	df 93       	push	r29
    3f24:	cf 93       	push	r28
    3f26:	00 d0       	rcall	.+0      	; 0x3f28 <f_lseek+0x26>
    3f28:	00 d0       	rcall	.+0      	; 0x3f2a <f_lseek+0x28>
    3f2a:	0f 92       	push	r0
    3f2c:	cd b7       	in	r28, 0x3d	; 61
    3f2e:	de b7       	in	r29, 0x3e	; 62
    3f30:	9d 83       	std	Y+5, r25	; 0x05
    3f32:	8c 83       	std	Y+4, r24	; 0x04
    3f34:	7a 01       	movw	r14, r20
    3f36:	8b 01       	movw	r16, r22
    3f38:	dc 01       	movw	r26, r24
    3f3a:	12 96       	adiw	r26, 0x02	; 2
    3f3c:	6d 91       	ld	r22, X+
    3f3e:	7c 91       	ld	r23, X
    3f40:	13 97       	sbiw	r26, 0x03	; 3
    3f42:	8d 91       	ld	r24, X+
    3f44:	9c 91       	ld	r25, X
    3f46:	0e 94 92 16 	call	0x2d24	; 0x2d24 <validate>
    3f4a:	8b 83       	std	Y+3, r24	; 0x03
    3f4c:	88 23       	and	r24, r24
    3f4e:	09 f0       	breq	.+2      	; 0x3f52 <f_lseek+0x50>
    3f50:	aa c1       	rjmp	.+852    	; 0x42a6 <f_lseek+0x3a4>
    3f52:	ec 81       	ldd	r30, Y+4	; 0x04
    3f54:	fd 81       	ldd	r31, Y+5	; 0x05
    3f56:	84 81       	ldd	r24, Z+4	; 0x04
    3f58:	87 fd       	sbrc	r24, 7
    3f5a:	90 c0       	rjmp	.+288    	; 0x407c <f_lseek+0x17a>
    3f5c:	ac 81       	ldd	r26, Y+4	; 0x04
    3f5e:	bd 81       	ldd	r27, Y+5	; 0x05
    3f60:	1a 96       	adiw	r26, 0x0a	; 10
    3f62:	6d 90       	ld	r6, X+
    3f64:	7d 90       	ld	r7, X+
    3f66:	8d 90       	ld	r8, X+
    3f68:	9c 90       	ld	r9, X
    3f6a:	1d 97       	sbiw	r26, 0x0d	; 13
    3f6c:	6e 14       	cp	r6, r14
    3f6e:	7f 04       	cpc	r7, r15
    3f70:	80 06       	cpc	r8, r16
    3f72:	91 06       	cpc	r9, r17
    3f74:	10 f4       	brcc	.+4      	; 0x3f7a <f_lseek+0x78>
    3f76:	81 ff       	sbrs	r24, 1
    3f78:	02 c0       	rjmp	.+4      	; 0x3f7e <f_lseek+0x7c>
    3f7a:	37 01       	movw	r6, r14
    3f7c:	48 01       	movw	r8, r16
    3f7e:	ec 81       	ldd	r30, Y+4	; 0x04
    3f80:	fd 81       	ldd	r31, Y+5	; 0x05
    3f82:	e6 80       	ldd	r14, Z+6	; 0x06
    3f84:	f7 80       	ldd	r15, Z+7	; 0x07
    3f86:	00 85       	ldd	r16, Z+8	; 0x08
    3f88:	11 85       	ldd	r17, Z+9	; 0x09
    3f8a:	16 82       	std	Z+6, r1	; 0x06
    3f8c:	17 82       	std	Z+7, r1	; 0x07
    3f8e:	10 86       	std	Z+8, r1	; 0x08
    3f90:	11 86       	std	Z+9, r1	; 0x09
    3f92:	61 14       	cp	r6, r1
    3f94:	71 04       	cpc	r7, r1
    3f96:	81 04       	cpc	r8, r1
    3f98:	91 04       	cpc	r9, r1
    3f9a:	09 f4       	brne	.+2      	; 0x3f9e <f_lseek+0x9c>
    3f9c:	51 c1       	rjmp	.+674    	; 0x4240 <f_lseek+0x33e>
    3f9e:	01 90       	ld	r0, Z+
    3fa0:	f0 81       	ld	r31, Z
    3fa2:	e0 2d       	mov	r30, r0
    3fa4:	fa 83       	std	Y+2, r31	; 0x02
    3fa6:	e9 83       	std	Y+1, r30	; 0x01
    3fa8:	82 81       	ldd	r24, Z+2	; 0x02
    3faa:	a8 2e       	mov	r10, r24
    3fac:	bb 24       	eor	r11, r11
    3fae:	cc 24       	eor	r12, r12
    3fb0:	dd 24       	eor	r13, r13
    3fb2:	29 e0       	ldi	r18, 0x09	; 9
    3fb4:	aa 0c       	add	r10, r10
    3fb6:	bb 1c       	adc	r11, r11
    3fb8:	cc 1c       	adc	r12, r12
    3fba:	dd 1c       	adc	r13, r13
    3fbc:	2a 95       	dec	r18
    3fbe:	d1 f7       	brne	.-12     	; 0x3fb4 <f_lseek+0xb2>
    3fc0:	e1 14       	cp	r14, r1
    3fc2:	f1 04       	cpc	r15, r1
    3fc4:	01 05       	cpc	r16, r1
    3fc6:	11 05       	cpc	r17, r1
    3fc8:	c1 f1       	breq	.+112    	; 0x403a <f_lseek+0x138>
    3fca:	17 01       	movw	r2, r14
    3fcc:	28 01       	movw	r4, r16
    3fce:	08 94       	sec
    3fd0:	21 08       	sbc	r2, r1
    3fd2:	31 08       	sbc	r3, r1
    3fd4:	41 08       	sbc	r4, r1
    3fd6:	51 08       	sbc	r5, r1
    3fd8:	c4 01       	movw	r24, r8
    3fda:	b3 01       	movw	r22, r6
    3fdc:	61 50       	subi	r22, 0x01	; 1
    3fde:	70 40       	sbci	r23, 0x00	; 0
    3fe0:	80 40       	sbci	r24, 0x00	; 0
    3fe2:	90 40       	sbci	r25, 0x00	; 0
    3fe4:	a6 01       	movw	r20, r12
    3fe6:	95 01       	movw	r18, r10
    3fe8:	0e 94 ee 35 	call	0x6bdc	; 0x6bdc <__udivmodsi4>
    3fec:	79 01       	movw	r14, r18
    3fee:	8a 01       	movw	r16, r20
    3ff0:	c2 01       	movw	r24, r4
    3ff2:	b1 01       	movw	r22, r2
    3ff4:	a6 01       	movw	r20, r12
    3ff6:	95 01       	movw	r18, r10
    3ff8:	0e 94 ee 35 	call	0x6bdc	; 0x6bdc <__udivmodsi4>
    3ffc:	e2 16       	cp	r14, r18
    3ffe:	f3 06       	cpc	r15, r19
    4000:	04 07       	cpc	r16, r20
    4002:	15 07       	cpc	r17, r21
    4004:	d0 f0       	brcs	.+52     	; 0x403a <f_lseek+0x138>
    4006:	88 27       	eor	r24, r24
    4008:	99 27       	eor	r25, r25
    400a:	dc 01       	movw	r26, r24
    400c:	8a 19       	sub	r24, r10
    400e:	9b 09       	sbc	r25, r11
    4010:	ac 09       	sbc	r26, r12
    4012:	bd 09       	sbc	r27, r13
    4014:	82 21       	and	r24, r2
    4016:	93 21       	and	r25, r3
    4018:	a4 21       	and	r26, r4
    401a:	b5 21       	and	r27, r5
    401c:	ec 81       	ldd	r30, Y+4	; 0x04
    401e:	fd 81       	ldd	r31, Y+5	; 0x05
    4020:	86 83       	std	Z+6, r24	; 0x06
    4022:	97 83       	std	Z+7, r25	; 0x07
    4024:	a0 87       	std	Z+8, r26	; 0x08
    4026:	b1 87       	std	Z+9, r27	; 0x09
    4028:	68 1a       	sub	r6, r24
    402a:	79 0a       	sbc	r7, r25
    402c:	8a 0a       	sbc	r8, r26
    402e:	9b 0a       	sbc	r9, r27
    4030:	42 89       	ldd	r20, Z+18	; 0x12
    4032:	53 89       	ldd	r21, Z+19	; 0x13
    4034:	64 89       	ldd	r22, Z+20	; 0x14
    4036:	75 89       	ldd	r23, Z+21	; 0x15
    4038:	3a c0       	rjmp	.+116    	; 0x40ae <f_lseek+0x1ac>
    403a:	ac 81       	ldd	r26, Y+4	; 0x04
    403c:	bd 81       	ldd	r27, Y+5	; 0x05
    403e:	1e 96       	adiw	r26, 0x0e	; 14
    4040:	4d 91       	ld	r20, X+
    4042:	5d 91       	ld	r21, X+
    4044:	6d 91       	ld	r22, X+
    4046:	7c 91       	ld	r23, X
    4048:	51 97       	sbiw	r26, 0x11	; 17
    404a:	41 15       	cp	r20, r1
    404c:	51 05       	cpc	r21, r1
    404e:	61 05       	cpc	r22, r1
    4050:	71 05       	cpc	r23, r1
    4052:	29 f5       	brne	.+74     	; 0x409e <f_lseek+0x19c>
    4054:	89 81       	ldd	r24, Y+1	; 0x01
    4056:	9a 81       	ldd	r25, Y+2	; 0x02
    4058:	40 e0       	ldi	r20, 0x00	; 0
    405a:	50 e0       	ldi	r21, 0x00	; 0
    405c:	60 e0       	ldi	r22, 0x00	; 0
    405e:	70 e0       	ldi	r23, 0x00	; 0
    4060:	0e 94 99 1d 	call	0x3b32	; 0x3b32 <create_chain>
    4064:	ab 01       	movw	r20, r22
    4066:	bc 01       	movw	r22, r24
    4068:	41 30       	cpi	r20, 0x01	; 1
    406a:	51 05       	cpc	r21, r1
    406c:	61 05       	cpc	r22, r1
    406e:	71 05       	cpc	r23, r1
    4070:	41 f4       	brne	.+16     	; 0x4082 <f_lseek+0x180>
    4072:	ec 81       	ldd	r30, Y+4	; 0x04
    4074:	fd 81       	ldd	r31, Y+5	; 0x05
    4076:	84 81       	ldd	r24, Z+4	; 0x04
    4078:	80 68       	ori	r24, 0x80	; 128
    407a:	84 83       	std	Z+4, r24	; 0x04
    407c:	f2 e0       	ldi	r31, 0x02	; 2
    407e:	fb 83       	std	Y+3, r31	; 0x03
    4080:	12 c1       	rjmp	.+548    	; 0x42a6 <f_lseek+0x3a4>
    4082:	4f 3f       	cpi	r20, 0xFF	; 255
    4084:	8f ef       	ldi	r24, 0xFF	; 255
    4086:	58 07       	cpc	r21, r24
    4088:	8f ef       	ldi	r24, 0xFF	; 255
    408a:	68 07       	cpc	r22, r24
    408c:	8f ef       	ldi	r24, 0xFF	; 255
    408e:	78 07       	cpc	r23, r24
    4090:	b1 f1       	breq	.+108    	; 0x40fe <f_lseek+0x1fc>
    4092:	ec 81       	ldd	r30, Y+4	; 0x04
    4094:	fd 81       	ldd	r31, Y+5	; 0x05
    4096:	46 87       	std	Z+14, r20	; 0x0e
    4098:	57 87       	std	Z+15, r21	; 0x0f
    409a:	60 8b       	std	Z+16, r22	; 0x10
    409c:	71 8b       	std	Z+17, r23	; 0x11
    409e:	ac 81       	ldd	r26, Y+4	; 0x04
    40a0:	bd 81       	ldd	r27, Y+5	; 0x05
    40a2:	52 96       	adiw	r26, 0x12	; 18
    40a4:	4d 93       	st	X+, r20
    40a6:	5d 93       	st	X+, r21
    40a8:	6d 93       	st	X+, r22
    40aa:	7c 93       	st	X, r23
    40ac:	55 97       	sbiw	r26, 0x15	; 21
    40ae:	41 15       	cp	r20, r1
    40b0:	51 05       	cpc	r21, r1
    40b2:	61 05       	cpc	r22, r1
    40b4:	71 05       	cpc	r23, r1
    40b6:	09 f0       	breq	.+2      	; 0x40ba <f_lseek+0x1b8>
    40b8:	59 c0       	rjmp	.+178    	; 0x416c <f_lseek+0x26a>
    40ba:	c2 c0       	rjmp	.+388    	; 0x4240 <f_lseek+0x33e>
    40bc:	ec 81       	ldd	r30, Y+4	; 0x04
    40be:	fd 81       	ldd	r31, Y+5	; 0x05
    40c0:	84 81       	ldd	r24, Z+4	; 0x04
    40c2:	20 81       	ld	r18, Z
    40c4:	31 81       	ldd	r19, Z+1	; 0x01
    40c6:	81 ff       	sbrs	r24, 1
    40c8:	0d c0       	rjmp	.+26     	; 0x40e4 <f_lseek+0x1e2>
    40ca:	c9 01       	movw	r24, r18
    40cc:	0e 94 99 1d 	call	0x3b32	; 0x3b32 <create_chain>
    40d0:	ab 01       	movw	r20, r22
    40d2:	bc 01       	movw	r22, r24
    40d4:	41 15       	cp	r20, r1
    40d6:	51 05       	cpc	r21, r1
    40d8:	61 05       	cpc	r22, r1
    40da:	71 05       	cpc	r23, r1
    40dc:	41 f4       	brne	.+16     	; 0x40ee <f_lseek+0x1ec>
    40de:	35 01       	movw	r6, r10
    40e0:	46 01       	movw	r8, r12
    40e2:	4a c0       	rjmp	.+148    	; 0x4178 <f_lseek+0x276>
    40e4:	c9 01       	movw	r24, r18
    40e6:	0e 94 ca 1b 	call	0x3794	; 0x3794 <get_fat>
    40ea:	ab 01       	movw	r20, r22
    40ec:	bc 01       	movw	r22, r24
    40ee:	4f 3f       	cpi	r20, 0xFF	; 255
    40f0:	ff ef       	ldi	r31, 0xFF	; 255
    40f2:	5f 07       	cpc	r21, r31
    40f4:	ff ef       	ldi	r31, 0xFF	; 255
    40f6:	6f 07       	cpc	r22, r31
    40f8:	ff ef       	ldi	r31, 0xFF	; 255
    40fa:	7f 07       	cpc	r23, r31
    40fc:	51 f4       	brne	.+20     	; 0x4112 <f_lseek+0x210>
    40fe:	ac 81       	ldd	r26, Y+4	; 0x04
    4100:	bd 81       	ldd	r27, Y+5	; 0x05
    4102:	14 96       	adiw	r26, 0x04	; 4
    4104:	8c 91       	ld	r24, X
    4106:	14 97       	sbiw	r26, 0x04	; 4
    4108:	80 68       	ori	r24, 0x80	; 128
    410a:	14 96       	adiw	r26, 0x04	; 4
    410c:	8c 93       	st	X, r24
    410e:	b1 e0       	ldi	r27, 0x01	; 1
    4110:	87 c0       	rjmp	.+270    	; 0x4220 <f_lseek+0x31e>
    4112:	42 30       	cpi	r20, 0x02	; 2
    4114:	51 05       	cpc	r21, r1
    4116:	61 05       	cpc	r22, r1
    4118:	71 05       	cpc	r23, r1
    411a:	08 f4       	brcc	.+2      	; 0x411e <f_lseek+0x21c>
    411c:	aa cf       	rjmp	.-172    	; 0x4072 <f_lseek+0x170>
    411e:	ac 81       	ldd	r26, Y+4	; 0x04
    4120:	bd 81       	ldd	r27, Y+5	; 0x05
    4122:	ed 91       	ld	r30, X+
    4124:	fc 91       	ld	r31, X
    4126:	82 8d       	ldd	r24, Z+26	; 0x1a
    4128:	93 8d       	ldd	r25, Z+27	; 0x1b
    412a:	a4 8d       	ldd	r26, Z+28	; 0x1c
    412c:	b5 8d       	ldd	r27, Z+29	; 0x1d
    412e:	48 17       	cp	r20, r24
    4130:	59 07       	cpc	r21, r25
    4132:	6a 07       	cpc	r22, r26
    4134:	7b 07       	cpc	r23, r27
    4136:	08 f0       	brcs	.+2      	; 0x413a <f_lseek+0x238>
    4138:	9c cf       	rjmp	.-200    	; 0x4072 <f_lseek+0x170>
    413a:	ac 81       	ldd	r26, Y+4	; 0x04
    413c:	bd 81       	ldd	r27, Y+5	; 0x05
    413e:	52 96       	adiw	r26, 0x12	; 18
    4140:	4d 93       	st	X+, r20
    4142:	5d 93       	st	X+, r21
    4144:	6d 93       	st	X+, r22
    4146:	7c 93       	st	X, r23
    4148:	55 97       	sbiw	r26, 0x15	; 21
    414a:	fd 01       	movw	r30, r26
    414c:	86 81       	ldd	r24, Z+6	; 0x06
    414e:	97 81       	ldd	r25, Z+7	; 0x07
    4150:	a0 85       	ldd	r26, Z+8	; 0x08
    4152:	b1 85       	ldd	r27, Z+9	; 0x09
    4154:	8a 0d       	add	r24, r10
    4156:	9b 1d       	adc	r25, r11
    4158:	ac 1d       	adc	r26, r12
    415a:	bd 1d       	adc	r27, r13
    415c:	86 83       	std	Z+6, r24	; 0x06
    415e:	97 83       	std	Z+7, r25	; 0x07
    4160:	a0 87       	std	Z+8, r26	; 0x08
    4162:	b1 87       	std	Z+9, r27	; 0x09
    4164:	6a 18       	sub	r6, r10
    4166:	7b 08       	sbc	r7, r11
    4168:	8c 08       	sbc	r8, r12
    416a:	9d 08       	sbc	r9, r13
    416c:	a6 14       	cp	r10, r6
    416e:	b7 04       	cpc	r11, r7
    4170:	c8 04       	cpc	r12, r8
    4172:	d9 04       	cpc	r13, r9
    4174:	08 f4       	brcc	.+2      	; 0x4178 <f_lseek+0x276>
    4176:	a2 cf       	rjmp	.-188    	; 0x40bc <f_lseek+0x1ba>
    4178:	ec 81       	ldd	r30, Y+4	; 0x04
    417a:	fd 81       	ldd	r31, Y+5	; 0x05
    417c:	86 81       	ldd	r24, Z+6	; 0x06
    417e:	97 81       	ldd	r25, Z+7	; 0x07
    4180:	a0 85       	ldd	r26, Z+8	; 0x08
    4182:	b1 85       	ldd	r27, Z+9	; 0x09
    4184:	86 0d       	add	r24, r6
    4186:	97 1d       	adc	r25, r7
    4188:	a8 1d       	adc	r26, r8
    418a:	b9 1d       	adc	r27, r9
    418c:	86 83       	std	Z+6, r24	; 0x06
    418e:	97 83       	std	Z+7, r25	; 0x07
    4190:	a0 87       	std	Z+8, r26	; 0x08
    4192:	b1 87       	std	Z+9, r27	; 0x09
    4194:	d4 01       	movw	r26, r8
    4196:	c3 01       	movw	r24, r6
    4198:	91 70       	andi	r25, 0x01	; 1
    419a:	a0 70       	andi	r26, 0x00	; 0
    419c:	b0 70       	andi	r27, 0x00	; 0
    419e:	00 97       	sbiw	r24, 0x00	; 0
    41a0:	a1 05       	cpc	r26, r1
    41a2:	b1 05       	cpc	r27, r1
    41a4:	09 f4       	brne	.+2      	; 0x41a8 <f_lseek+0x2a6>
    41a6:	4c c0       	rjmp	.+152    	; 0x4240 <f_lseek+0x33e>
    41a8:	c0 80       	ld	r12, Z
    41aa:	d1 80       	ldd	r13, Z+1	; 0x01
    41ac:	9e ef       	ldi	r25, 0xFE	; 254
    41ae:	e9 2e       	mov	r14, r25
    41b0:	9f ef       	ldi	r25, 0xFF	; 255
    41b2:	f9 2e       	mov	r15, r25
    41b4:	9f ef       	ldi	r25, 0xFF	; 255
    41b6:	09 2f       	mov	r16, r25
    41b8:	9f ef       	ldi	r25, 0xFF	; 255
    41ba:	19 2f       	mov	r17, r25
    41bc:	e4 0e       	add	r14, r20
    41be:	f5 1e       	adc	r15, r21
    41c0:	06 1f       	adc	r16, r22
    41c2:	17 1f       	adc	r17, r23
    41c4:	f6 01       	movw	r30, r12
    41c6:	82 8d       	ldd	r24, Z+26	; 0x1a
    41c8:	93 8d       	ldd	r25, Z+27	; 0x1b
    41ca:	a4 8d       	ldd	r26, Z+28	; 0x1c
    41cc:	b5 8d       	ldd	r27, Z+29	; 0x1d
    41ce:	02 97       	sbiw	r24, 0x02	; 2
    41d0:	a1 09       	sbc	r26, r1
    41d2:	b1 09       	sbc	r27, r1
    41d4:	e8 16       	cp	r14, r24
    41d6:	f9 06       	cpc	r15, r25
    41d8:	0a 07       	cpc	r16, r26
    41da:	1b 07       	cpc	r17, r27
    41dc:	c0 f4       	brcc	.+48     	; 0x420e <f_lseek+0x30c>
    41de:	22 81       	ldd	r18, Z+2	; 0x02
    41e0:	30 e0       	ldi	r19, 0x00	; 0
    41e2:	40 e0       	ldi	r20, 0x00	; 0
    41e4:	50 e0       	ldi	r21, 0x00	; 0
    41e6:	c8 01       	movw	r24, r16
    41e8:	b7 01       	movw	r22, r14
    41ea:	0e 94 cf 35 	call	0x6b9e	; 0x6b9e <__mulsi3>
    41ee:	9b 01       	movw	r18, r22
    41f0:	ac 01       	movw	r20, r24
    41f2:	f6 01       	movw	r30, r12
    41f4:	82 a5       	ldd	r24, Z+42	; 0x2a
    41f6:	93 a5       	ldd	r25, Z+43	; 0x2b
    41f8:	a4 a5       	ldd	r26, Z+44	; 0x2c
    41fa:	b5 a5       	ldd	r27, Z+45	; 0x2d
    41fc:	28 0f       	add	r18, r24
    41fe:	39 1f       	adc	r19, r25
    4200:	4a 1f       	adc	r20, r26
    4202:	5b 1f       	adc	r21, r27
    4204:	21 15       	cp	r18, r1
    4206:	31 05       	cpc	r19, r1
    4208:	41 05       	cpc	r20, r1
    420a:	51 05       	cpc	r21, r1
    420c:	59 f4       	brne	.+22     	; 0x4224 <f_lseek+0x322>
    420e:	ac 81       	ldd	r26, Y+4	; 0x04
    4210:	bd 81       	ldd	r27, Y+5	; 0x05
    4212:	14 96       	adiw	r26, 0x04	; 4
    4214:	8c 91       	ld	r24, X
    4216:	14 97       	sbiw	r26, 0x04	; 4
    4218:	80 68       	ori	r24, 0x80	; 128
    421a:	14 96       	adiw	r26, 0x04	; 4
    421c:	8c 93       	st	X, r24
    421e:	b2 e0       	ldi	r27, 0x02	; 2
    4220:	bb 83       	std	Y+3, r27	; 0x03
    4222:	41 c0       	rjmp	.+130    	; 0x42a6 <f_lseek+0x3a4>
    4224:	84 01       	movw	r16, r8
    4226:	73 01       	movw	r14, r6
    4228:	89 e0       	ldi	r24, 0x09	; 9
    422a:	16 95       	lsr	r17
    422c:	07 95       	ror	r16
    422e:	f7 94       	ror	r15
    4230:	e7 94       	ror	r14
    4232:	8a 95       	dec	r24
    4234:	d1 f7       	brne	.-12     	; 0x422a <f_lseek+0x328>
    4236:	e2 0e       	add	r14, r18
    4238:	f3 1e       	adc	r15, r19
    423a:	04 1f       	adc	r16, r20
    423c:	15 1f       	adc	r17, r21
    423e:	03 c0       	rjmp	.+6      	; 0x4246 <f_lseek+0x344>
    4240:	ee 24       	eor	r14, r14
    4242:	ff 24       	eor	r15, r15
    4244:	87 01       	movw	r16, r14
    4246:	ec 81       	ldd	r30, Y+4	; 0x04
    4248:	fd 81       	ldd	r31, Y+5	; 0x05
    424a:	86 81       	ldd	r24, Z+6	; 0x06
    424c:	97 81       	ldd	r25, Z+7	; 0x07
    424e:	a0 85       	ldd	r26, Z+8	; 0x08
    4250:	b1 85       	ldd	r27, Z+9	; 0x09
    4252:	91 70       	andi	r25, 0x01	; 1
    4254:	a0 70       	andi	r26, 0x00	; 0
    4256:	b0 70       	andi	r27, 0x00	; 0
    4258:	00 97       	sbiw	r24, 0x00	; 0
    425a:	a1 05       	cpc	r26, r1
    425c:	b1 05       	cpc	r27, r1
    425e:	69 f0       	breq	.+26     	; 0x427a <f_lseek+0x378>
    4260:	86 89       	ldd	r24, Z+22	; 0x16
    4262:	97 89       	ldd	r25, Z+23	; 0x17
    4264:	a0 8d       	ldd	r26, Z+24	; 0x18
    4266:	b1 8d       	ldd	r27, Z+25	; 0x19
    4268:	e8 16       	cp	r14, r24
    426a:	f9 06       	cpc	r15, r25
    426c:	0a 07       	cpc	r16, r26
    426e:	1b 07       	cpc	r17, r27
    4270:	21 f0       	breq	.+8      	; 0x427a <f_lseek+0x378>
    4272:	e6 8a       	std	Z+22, r14	; 0x16
    4274:	f7 8a       	std	Z+23, r15	; 0x17
    4276:	00 8f       	std	Z+24, r16	; 0x18
    4278:	11 8f       	std	Z+25, r17	; 0x19
    427a:	ec 81       	ldd	r30, Y+4	; 0x04
    427c:	fd 81       	ldd	r31, Y+5	; 0x05
    427e:	26 81       	ldd	r18, Z+6	; 0x06
    4280:	37 81       	ldd	r19, Z+7	; 0x07
    4282:	40 85       	ldd	r20, Z+8	; 0x08
    4284:	51 85       	ldd	r21, Z+9	; 0x09
    4286:	82 85       	ldd	r24, Z+10	; 0x0a
    4288:	93 85       	ldd	r25, Z+11	; 0x0b
    428a:	a4 85       	ldd	r26, Z+12	; 0x0c
    428c:	b5 85       	ldd	r27, Z+13	; 0x0d
    428e:	82 17       	cp	r24, r18
    4290:	93 07       	cpc	r25, r19
    4292:	a4 07       	cpc	r26, r20
    4294:	b5 07       	cpc	r27, r21
    4296:	38 f4       	brcc	.+14     	; 0x42a6 <f_lseek+0x3a4>
    4298:	22 87       	std	Z+10, r18	; 0x0a
    429a:	33 87       	std	Z+11, r19	; 0x0b
    429c:	44 87       	std	Z+12, r20	; 0x0c
    429e:	55 87       	std	Z+13, r21	; 0x0d
    42a0:	84 81       	ldd	r24, Z+4	; 0x04
    42a2:	80 62       	ori	r24, 0x20	; 32
    42a4:	84 83       	std	Z+4, r24	; 0x04
    42a6:	8b 81       	ldd	r24, Y+3	; 0x03
    42a8:	0f 90       	pop	r0
    42aa:	0f 90       	pop	r0
    42ac:	0f 90       	pop	r0
    42ae:	0f 90       	pop	r0
    42b0:	0f 90       	pop	r0
    42b2:	cf 91       	pop	r28
    42b4:	df 91       	pop	r29
    42b6:	1f 91       	pop	r17
    42b8:	0f 91       	pop	r16
    42ba:	ff 90       	pop	r15
    42bc:	ef 90       	pop	r14
    42be:	df 90       	pop	r13
    42c0:	cf 90       	pop	r12
    42c2:	bf 90       	pop	r11
    42c4:	af 90       	pop	r10
    42c6:	9f 90       	pop	r9
    42c8:	8f 90       	pop	r8
    42ca:	7f 90       	pop	r7
    42cc:	6f 90       	pop	r6
    42ce:	5f 90       	pop	r5
    42d0:	4f 90       	pop	r4
    42d2:	3f 90       	pop	r3
    42d4:	2f 90       	pop	r2
    42d6:	08 95       	ret

000042d8 <dir_remove>:
    42d8:	cf 93       	push	r28
    42da:	df 93       	push	r29
    42dc:	ec 01       	movw	r28, r24
    42de:	6c 81       	ldd	r22, Y+4	; 0x04
    42e0:	7d 81       	ldd	r23, Y+5	; 0x05
    42e2:	0e 94 9d 1c 	call	0x393a	; 0x393a <dir_sdi>
    42e6:	98 2f       	mov	r25, r24
    42e8:	88 23       	and	r24, r24
    42ea:	99 f4       	brne	.+38     	; 0x4312 <dir_remove+0x3a>
    42ec:	4e 85       	ldd	r20, Y+14	; 0x0e
    42ee:	5f 85       	ldd	r21, Y+15	; 0x0f
    42f0:	68 89       	ldd	r22, Y+16	; 0x10
    42f2:	79 89       	ldd	r23, Y+17	; 0x11
    42f4:	88 81       	ld	r24, Y
    42f6:	99 81       	ldd	r25, Y+1	; 0x01
    42f8:	0e 94 8f 19 	call	0x331e	; 0x331e <move_window>
    42fc:	98 2f       	mov	r25, r24
    42fe:	88 23       	and	r24, r24
    4300:	41 f4       	brne	.+16     	; 0x4312 <dir_remove+0x3a>
    4302:	ea 89       	ldd	r30, Y+18	; 0x12
    4304:	fb 89       	ldd	r31, Y+19	; 0x13
    4306:	85 ee       	ldi	r24, 0xE5	; 229
    4308:	80 83       	st	Z, r24
    430a:	e8 81       	ld	r30, Y
    430c:	f9 81       	ldd	r31, Y+1	; 0x01
    430e:	81 e0       	ldi	r24, 0x01	; 1
    4310:	84 83       	std	Z+4, r24	; 0x04
    4312:	89 2f       	mov	r24, r25
    4314:	df 91       	pop	r29
    4316:	cf 91       	pop	r28
    4318:	08 95       	ret

0000431a <dir_next>:
    431a:	4f 92       	push	r4
    431c:	5f 92       	push	r5
    431e:	6f 92       	push	r6
    4320:	7f 92       	push	r7
    4322:	8f 92       	push	r8
    4324:	9f 92       	push	r9
    4326:	af 92       	push	r10
    4328:	bf 92       	push	r11
    432a:	cf 92       	push	r12
    432c:	df 92       	push	r13
    432e:	ef 92       	push	r14
    4330:	ff 92       	push	r15
    4332:	0f 93       	push	r16
    4334:	1f 93       	push	r17
    4336:	cf 93       	push	r28
    4338:	df 93       	push	r29
    433a:	ec 01       	movw	r28, r24
    433c:	6b 01       	movw	r12, r22
    433e:	6c 80       	ldd	r6, Y+4	; 0x04
    4340:	7d 80       	ldd	r7, Y+5	; 0x05
    4342:	08 94       	sec
    4344:	61 1c       	adc	r6, r1
    4346:	71 1c       	adc	r7, r1
    4348:	61 14       	cp	r6, r1
    434a:	71 04       	cpc	r7, r1
    434c:	09 f4       	brne	.+2      	; 0x4350 <dir_next+0x36>
    434e:	4c c1       	rjmp	.+664    	; 0x45e8 <dir_next+0x2ce>
    4350:	8e 85       	ldd	r24, Y+14	; 0x0e
    4352:	9f 85       	ldd	r25, Y+15	; 0x0f
    4354:	a8 89       	ldd	r26, Y+16	; 0x10
    4356:	b9 89       	ldd	r27, Y+17	; 0x11
    4358:	00 97       	sbiw	r24, 0x00	; 0
    435a:	a1 05       	cpc	r26, r1
    435c:	b1 05       	cpc	r27, r1
    435e:	09 f4       	brne	.+2      	; 0x4362 <dir_next+0x48>
    4360:	43 c1       	rjmp	.+646    	; 0x45e8 <dir_next+0x2ce>
    4362:	1f e0       	ldi	r17, 0x0F	; 15
    4364:	41 2e       	mov	r4, r17
    4366:	51 2c       	mov	r5, r1
    4368:	46 20       	and	r4, r6
    436a:	57 20       	and	r5, r7
    436c:	41 14       	cp	r4, r1
    436e:	51 04       	cpc	r5, r1
    4370:	09 f0       	breq	.+2      	; 0x4374 <dir_next+0x5a>
    4372:	27 c1       	rjmp	.+590    	; 0x45c2 <dir_next+0x2a8>
    4374:	01 96       	adiw	r24, 0x01	; 1
    4376:	a1 1d       	adc	r26, r1
    4378:	b1 1d       	adc	r27, r1
    437a:	8e 87       	std	Y+14, r24	; 0x0e
    437c:	9f 87       	std	Y+15, r25	; 0x0f
    437e:	a8 8b       	std	Y+16, r26	; 0x10
    4380:	b9 8b       	std	Y+17, r27	; 0x11
    4382:	4a 85       	ldd	r20, Y+10	; 0x0a
    4384:	5b 85       	ldd	r21, Y+11	; 0x0b
    4386:	6c 85       	ldd	r22, Y+12	; 0x0c
    4388:	7d 85       	ldd	r23, Y+13	; 0x0d
    438a:	e8 81       	ld	r30, Y
    438c:	f9 81       	ldd	r31, Y+1	; 0x01
    438e:	41 15       	cp	r20, r1
    4390:	51 05       	cpc	r21, r1
    4392:	61 05       	cpc	r22, r1
    4394:	71 05       	cpc	r23, r1
    4396:	39 f4       	brne	.+14     	; 0x43a6 <dir_next+0x8c>
    4398:	80 85       	ldd	r24, Z+8	; 0x08
    439a:	91 85       	ldd	r25, Z+9	; 0x09
    439c:	68 16       	cp	r6, r24
    439e:	79 06       	cpc	r7, r25
    43a0:	08 f4       	brcc	.+2      	; 0x43a4 <dir_next+0x8a>
    43a2:	0f c1       	rjmp	.+542    	; 0x45c2 <dir_next+0x2a8>
    43a4:	21 c1       	rjmp	.+578    	; 0x45e8 <dir_next+0x2ce>
    43a6:	82 81       	ldd	r24, Z+2	; 0x02
    43a8:	90 e0       	ldi	r25, 0x00	; 0
    43aa:	01 97       	sbiw	r24, 0x01	; 1
    43ac:	93 01       	movw	r18, r6
    43ae:	a4 e0       	ldi	r26, 0x04	; 4
    43b0:	36 95       	lsr	r19
    43b2:	27 95       	ror	r18
    43b4:	aa 95       	dec	r26
    43b6:	e1 f7       	brne	.-8      	; 0x43b0 <dir_next+0x96>
    43b8:	82 23       	and	r24, r18
    43ba:	93 23       	and	r25, r19
    43bc:	89 2b       	or	r24, r25
    43be:	09 f0       	breq	.+2      	; 0x43c2 <dir_next+0xa8>
    43c0:	00 c1       	rjmp	.+512    	; 0x45c2 <dir_next+0x2a8>
    43c2:	cf 01       	movw	r24, r30
    43c4:	0e 94 ca 1b 	call	0x3794	; 0x3794 <get_fat>
    43c8:	7b 01       	movw	r14, r22
    43ca:	8c 01       	movw	r16, r24
    43cc:	62 30       	cpi	r22, 0x02	; 2
    43ce:	71 05       	cpc	r23, r1
    43d0:	81 05       	cpc	r24, r1
    43d2:	91 05       	cpc	r25, r1
    43d4:	08 f4       	brcc	.+2      	; 0x43d8 <dir_next+0xbe>
    43d6:	0a c1       	rjmp	.+532    	; 0x45ec <dir_next+0x2d2>
    43d8:	8f ef       	ldi	r24, 0xFF	; 255
    43da:	e8 16       	cp	r14, r24
    43dc:	8f ef       	ldi	r24, 0xFF	; 255
    43de:	f8 06       	cpc	r15, r24
    43e0:	8f ef       	ldi	r24, 0xFF	; 255
    43e2:	08 07       	cpc	r16, r24
    43e4:	8f ef       	ldi	r24, 0xFF	; 255
    43e6:	18 07       	cpc	r17, r24
    43e8:	09 f4       	brne	.+2      	; 0x43ec <dir_next+0xd2>
    43ea:	02 c1       	rjmp	.+516    	; 0x45f0 <dir_next+0x2d6>
    43ec:	e8 81       	ld	r30, Y
    43ee:	f9 81       	ldd	r31, Y+1	; 0x01
    43f0:	82 8d       	ldd	r24, Z+26	; 0x1a
    43f2:	93 8d       	ldd	r25, Z+27	; 0x1b
    43f4:	a4 8d       	ldd	r26, Z+28	; 0x1c
    43f6:	b5 8d       	ldd	r27, Z+29	; 0x1d
    43f8:	e8 16       	cp	r14, r24
    43fa:	f9 06       	cpc	r15, r25
    43fc:	0a 07       	cpc	r16, r26
    43fe:	1b 07       	cpc	r17, r27
    4400:	08 f4       	brcc	.+2      	; 0x4404 <dir_next+0xea>
    4402:	a6 c0       	rjmp	.+332    	; 0x4550 <dir_next+0x236>
    4404:	cd 28       	or	r12, r13
    4406:	09 f4       	brne	.+2      	; 0x440a <dir_next+0xf0>
    4408:	ef c0       	rjmp	.+478    	; 0x45e8 <dir_next+0x2ce>
    440a:	4a 85       	ldd	r20, Y+10	; 0x0a
    440c:	5b 85       	ldd	r21, Y+11	; 0x0b
    440e:	6c 85       	ldd	r22, Y+12	; 0x0c
    4410:	7d 85       	ldd	r23, Y+13	; 0x0d
    4412:	cf 01       	movw	r24, r30
    4414:	0e 94 99 1d 	call	0x3b32	; 0x3b32 <create_chain>
    4418:	7b 01       	movw	r14, r22
    441a:	8c 01       	movw	r16, r24
    441c:	61 15       	cp	r22, r1
    441e:	71 05       	cpc	r23, r1
    4420:	81 05       	cpc	r24, r1
    4422:	91 05       	cpc	r25, r1
    4424:	11 f4       	brne	.+4      	; 0x442a <dir_next+0x110>
    4426:	87 e0       	ldi	r24, 0x07	; 7
    4428:	e4 c0       	rjmp	.+456    	; 0x45f2 <dir_next+0x2d8>
    442a:	91 e0       	ldi	r25, 0x01	; 1
    442c:	e9 16       	cp	r14, r25
    442e:	f1 04       	cpc	r15, r1
    4430:	01 05       	cpc	r16, r1
    4432:	11 05       	cpc	r17, r1
    4434:	09 f4       	brne	.+2      	; 0x4438 <dir_next+0x11e>
    4436:	da c0       	rjmp	.+436    	; 0x45ec <dir_next+0x2d2>
    4438:	af ef       	ldi	r26, 0xFF	; 255
    443a:	ea 16       	cp	r14, r26
    443c:	af ef       	ldi	r26, 0xFF	; 255
    443e:	fa 06       	cpc	r15, r26
    4440:	af ef       	ldi	r26, 0xFF	; 255
    4442:	0a 07       	cpc	r16, r26
    4444:	af ef       	ldi	r26, 0xFF	; 255
    4446:	1a 07       	cpc	r17, r26
    4448:	09 f4       	brne	.+2      	; 0x444c <dir_next+0x132>
    444a:	d2 c0       	rjmp	.+420    	; 0x45f0 <dir_next+0x2d6>
    444c:	88 81       	ld	r24, Y
    444e:	99 81       	ldd	r25, Y+1	; 0x01
    4450:	40 e0       	ldi	r20, 0x00	; 0
    4452:	50 e0       	ldi	r21, 0x00	; 0
    4454:	60 e0       	ldi	r22, 0x00	; 0
    4456:	70 e0       	ldi	r23, 0x00	; 0
    4458:	0e 94 8f 19 	call	0x331e	; 0x331e <move_window>
    445c:	88 23       	and	r24, r24
    445e:	09 f0       	breq	.+2      	; 0x4462 <dir_next+0x148>
    4460:	c7 c0       	rjmp	.+398    	; 0x45f0 <dir_next+0x2d6>
    4462:	e8 81       	ld	r30, Y
    4464:	f9 81       	ldd	r31, Y+1	; 0x01
    4466:	f2 96       	adiw	r30, 0x32	; 50
    4468:	80 e0       	ldi	r24, 0x00	; 0
    446a:	92 e0       	ldi	r25, 0x02	; 2
    446c:	01 c0       	rjmp	.+2      	; 0x4470 <dir_next+0x156>
    446e:	11 92       	st	Z+, r1
    4470:	01 97       	sbiw	r24, 0x01	; 1
    4472:	bf ef       	ldi	r27, 0xFF	; 255
    4474:	8f 3f       	cpi	r24, 0xFF	; 255
    4476:	9b 07       	cpc	r25, r27
    4478:	d1 f7       	brne	.-12     	; 0x446e <dir_next+0x154>
    447a:	88 80       	ld	r8, Y
    447c:	99 80       	ldd	r9, Y+1	; 0x01
    447e:	4e ef       	ldi	r20, 0xFE	; 254
    4480:	a4 2e       	mov	r10, r20
    4482:	4f ef       	ldi	r20, 0xFF	; 255
    4484:	b4 2e       	mov	r11, r20
    4486:	4f ef       	ldi	r20, 0xFF	; 255
    4488:	c4 2e       	mov	r12, r20
    448a:	4f ef       	ldi	r20, 0xFF	; 255
    448c:	d4 2e       	mov	r13, r20
    448e:	ae 0c       	add	r10, r14
    4490:	bf 1c       	adc	r11, r15
    4492:	c0 1e       	adc	r12, r16
    4494:	d1 1e       	adc	r13, r17
    4496:	f4 01       	movw	r30, r8
    4498:	82 8d       	ldd	r24, Z+26	; 0x1a
    449a:	93 8d       	ldd	r25, Z+27	; 0x1b
    449c:	a4 8d       	ldd	r26, Z+28	; 0x1c
    449e:	b5 8d       	ldd	r27, Z+29	; 0x1d
    44a0:	02 97       	sbiw	r24, 0x02	; 2
    44a2:	a1 09       	sbc	r26, r1
    44a4:	b1 09       	sbc	r27, r1
    44a6:	a8 16       	cp	r10, r24
    44a8:	b9 06       	cpc	r11, r25
    44aa:	ca 06       	cpc	r12, r26
    44ac:	db 06       	cpc	r13, r27
    44ae:	28 f0       	brcs	.+10     	; 0x44ba <dir_next+0x1a0>
    44b0:	20 e0       	ldi	r18, 0x00	; 0
    44b2:	30 e0       	ldi	r19, 0x00	; 0
    44b4:	40 e0       	ldi	r20, 0x00	; 0
    44b6:	50 e0       	ldi	r21, 0x00	; 0
    44b8:	15 c0       	rjmp	.+42     	; 0x44e4 <dir_next+0x1ca>
    44ba:	d4 01       	movw	r26, r8
    44bc:	12 96       	adiw	r26, 0x02	; 2
    44be:	2c 91       	ld	r18, X
    44c0:	30 e0       	ldi	r19, 0x00	; 0
    44c2:	40 e0       	ldi	r20, 0x00	; 0
    44c4:	50 e0       	ldi	r21, 0x00	; 0
    44c6:	c6 01       	movw	r24, r12
    44c8:	b5 01       	movw	r22, r10
    44ca:	0e 94 cf 35 	call	0x6b9e	; 0x6b9e <__mulsi3>
    44ce:	9b 01       	movw	r18, r22
    44d0:	ac 01       	movw	r20, r24
    44d2:	f4 01       	movw	r30, r8
    44d4:	82 a5       	ldd	r24, Z+42	; 0x2a
    44d6:	93 a5       	ldd	r25, Z+43	; 0x2b
    44d8:	a4 a5       	ldd	r26, Z+44	; 0x2c
    44da:	b5 a5       	ldd	r27, Z+45	; 0x2d
    44dc:	28 0f       	add	r18, r24
    44de:	39 1f       	adc	r19, r25
    44e0:	4a 1f       	adc	r20, r26
    44e2:	5b 1f       	adc	r21, r27
    44e4:	d4 01       	movw	r26, r8
    44e6:	9e 96       	adiw	r26, 0x2e	; 46
    44e8:	2d 93       	st	X+, r18
    44ea:	3d 93       	st	X+, r19
    44ec:	4d 93       	st	X+, r20
    44ee:	5c 93       	st	X, r21
    44f0:	d1 97       	sbiw	r26, 0x31	; 49
    44f2:	dd 24       	eor	r13, r13
    44f4:	cc 24       	eor	r12, r12
    44f6:	c3 94       	inc	r12
    44f8:	1a c0       	rjmp	.+52     	; 0x452e <dir_next+0x214>
    44fa:	c4 82       	std	Z+4, r12	; 0x04
    44fc:	88 81       	ld	r24, Y
    44fe:	99 81       	ldd	r25, Y+1	; 0x01
    4500:	40 e0       	ldi	r20, 0x00	; 0
    4502:	50 e0       	ldi	r21, 0x00	; 0
    4504:	60 e0       	ldi	r22, 0x00	; 0
    4506:	70 e0       	ldi	r23, 0x00	; 0
    4508:	0e 94 8f 19 	call	0x331e	; 0x331e <move_window>
    450c:	88 23       	and	r24, r24
    450e:	09 f0       	breq	.+2      	; 0x4512 <dir_next+0x1f8>
    4510:	6f c0       	rjmp	.+222    	; 0x45f0 <dir_next+0x2d6>
    4512:	e8 81       	ld	r30, Y
    4514:	f9 81       	ldd	r31, Y+1	; 0x01
    4516:	86 a5       	ldd	r24, Z+46	; 0x2e
    4518:	97 a5       	ldd	r25, Z+47	; 0x2f
    451a:	a0 a9       	ldd	r26, Z+48	; 0x30
    451c:	b1 a9       	ldd	r27, Z+49	; 0x31
    451e:	01 96       	adiw	r24, 0x01	; 1
    4520:	a1 1d       	adc	r26, r1
    4522:	b1 1d       	adc	r27, r1
    4524:	86 a7       	std	Z+46, r24	; 0x2e
    4526:	97 a7       	std	Z+47, r25	; 0x2f
    4528:	a0 ab       	std	Z+48, r26	; 0x30
    452a:	b1 ab       	std	Z+49, r27	; 0x31
    452c:	d3 94       	inc	r13
    452e:	e8 81       	ld	r30, Y
    4530:	f9 81       	ldd	r31, Y+1	; 0x01
    4532:	82 81       	ldd	r24, Z+2	; 0x02
    4534:	d8 16       	cp	r13, r24
    4536:	08 f3       	brcs	.-62     	; 0x44fa <dir_next+0x1e0>
    4538:	86 a5       	ldd	r24, Z+46	; 0x2e
    453a:	97 a5       	ldd	r25, Z+47	; 0x2f
    453c:	a0 a9       	ldd	r26, Z+48	; 0x30
    453e:	b1 a9       	ldd	r27, Z+49	; 0x31
    4540:	8d 19       	sub	r24, r13
    4542:	91 09       	sbc	r25, r1
    4544:	a1 09       	sbc	r26, r1
    4546:	b1 09       	sbc	r27, r1
    4548:	86 a7       	std	Z+46, r24	; 0x2e
    454a:	97 a7       	std	Z+47, r25	; 0x2f
    454c:	a0 ab       	std	Z+48, r26	; 0x30
    454e:	b1 ab       	std	Z+49, r27	; 0x31
    4550:	ea 86       	std	Y+10, r14	; 0x0a
    4552:	fb 86       	std	Y+11, r15	; 0x0b
    4554:	0c 87       	std	Y+12, r16	; 0x0c
    4556:	1d 87       	std	Y+13, r17	; 0x0d
    4558:	c8 80       	ld	r12, Y
    455a:	d9 80       	ldd	r13, Y+1	; 0x01
    455c:	8e ef       	ldi	r24, 0xFE	; 254
    455e:	9f ef       	ldi	r25, 0xFF	; 255
    4560:	af ef       	ldi	r26, 0xFF	; 255
    4562:	bf ef       	ldi	r27, 0xFF	; 255
    4564:	e8 0e       	add	r14, r24
    4566:	f9 1e       	adc	r15, r25
    4568:	0a 1f       	adc	r16, r26
    456a:	1b 1f       	adc	r17, r27
    456c:	f6 01       	movw	r30, r12
    456e:	82 8d       	ldd	r24, Z+26	; 0x1a
    4570:	93 8d       	ldd	r25, Z+27	; 0x1b
    4572:	a4 8d       	ldd	r26, Z+28	; 0x1c
    4574:	b5 8d       	ldd	r27, Z+29	; 0x1d
    4576:	02 97       	sbiw	r24, 0x02	; 2
    4578:	a1 09       	sbc	r26, r1
    457a:	b1 09       	sbc	r27, r1
    457c:	e8 16       	cp	r14, r24
    457e:	f9 06       	cpc	r15, r25
    4580:	0a 07       	cpc	r16, r26
    4582:	1b 07       	cpc	r17, r27
    4584:	28 f0       	brcs	.+10     	; 0x4590 <dir_next+0x276>
    4586:	20 e0       	ldi	r18, 0x00	; 0
    4588:	30 e0       	ldi	r19, 0x00	; 0
    458a:	40 e0       	ldi	r20, 0x00	; 0
    458c:	50 e0       	ldi	r21, 0x00	; 0
    458e:	15 c0       	rjmp	.+42     	; 0x45ba <dir_next+0x2a0>
    4590:	d6 01       	movw	r26, r12
    4592:	12 96       	adiw	r26, 0x02	; 2
    4594:	2c 91       	ld	r18, X
    4596:	30 e0       	ldi	r19, 0x00	; 0
    4598:	40 e0       	ldi	r20, 0x00	; 0
    459a:	50 e0       	ldi	r21, 0x00	; 0
    459c:	c8 01       	movw	r24, r16
    459e:	b7 01       	movw	r22, r14
    45a0:	0e 94 cf 35 	call	0x6b9e	; 0x6b9e <__mulsi3>
    45a4:	9b 01       	movw	r18, r22
    45a6:	ac 01       	movw	r20, r24
    45a8:	f6 01       	movw	r30, r12
    45aa:	82 a5       	ldd	r24, Z+42	; 0x2a
    45ac:	93 a5       	ldd	r25, Z+43	; 0x2b
    45ae:	a4 a5       	ldd	r26, Z+44	; 0x2c
    45b0:	b5 a5       	ldd	r27, Z+45	; 0x2d
    45b2:	28 0f       	add	r18, r24
    45b4:	39 1f       	adc	r19, r25
    45b6:	4a 1f       	adc	r20, r26
    45b8:	5b 1f       	adc	r21, r27
    45ba:	2e 87       	std	Y+14, r18	; 0x0e
    45bc:	3f 87       	std	Y+15, r19	; 0x0f
    45be:	48 8b       	std	Y+16, r20	; 0x10
    45c0:	59 8b       	std	Y+17, r21	; 0x11
    45c2:	7d 82       	std	Y+5, r7	; 0x05
    45c4:	6c 82       	std	Y+4, r6	; 0x04
    45c6:	35 e0       	ldi	r19, 0x05	; 5
    45c8:	44 0c       	add	r4, r4
    45ca:	55 1c       	adc	r5, r5
    45cc:	3a 95       	dec	r19
    45ce:	e1 f7       	brne	.-8      	; 0x45c8 <dir_next+0x2ae>
    45d0:	82 e3       	ldi	r24, 0x32	; 50
    45d2:	90 e0       	ldi	r25, 0x00	; 0
    45d4:	48 0e       	add	r4, r24
    45d6:	59 1e       	adc	r5, r25
    45d8:	88 81       	ld	r24, Y
    45da:	99 81       	ldd	r25, Y+1	; 0x01
    45dc:	84 0d       	add	r24, r4
    45de:	95 1d       	adc	r25, r5
    45e0:	9b 8b       	std	Y+19, r25	; 0x13
    45e2:	8a 8b       	std	Y+18, r24	; 0x12
    45e4:	80 e0       	ldi	r24, 0x00	; 0
    45e6:	05 c0       	rjmp	.+10     	; 0x45f2 <dir_next+0x2d8>
    45e8:	84 e0       	ldi	r24, 0x04	; 4
    45ea:	03 c0       	rjmp	.+6      	; 0x45f2 <dir_next+0x2d8>
    45ec:	82 e0       	ldi	r24, 0x02	; 2
    45ee:	01 c0       	rjmp	.+2      	; 0x45f2 <dir_next+0x2d8>
    45f0:	81 e0       	ldi	r24, 0x01	; 1
    45f2:	df 91       	pop	r29
    45f4:	cf 91       	pop	r28
    45f6:	1f 91       	pop	r17
    45f8:	0f 91       	pop	r16
    45fa:	ff 90       	pop	r15
    45fc:	ef 90       	pop	r14
    45fe:	df 90       	pop	r13
    4600:	cf 90       	pop	r12
    4602:	bf 90       	pop	r11
    4604:	af 90       	pop	r10
    4606:	9f 90       	pop	r9
    4608:	8f 90       	pop	r8
    460a:	7f 90       	pop	r7
    460c:	6f 90       	pop	r6
    460e:	5f 90       	pop	r5
    4610:	4f 90       	pop	r4
    4612:	08 95       	ret

00004614 <follow_path>:
    4614:	9f 92       	push	r9
    4616:	af 92       	push	r10
    4618:	bf 92       	push	r11
    461a:	cf 92       	push	r12
    461c:	df 92       	push	r13
    461e:	ef 92       	push	r14
    4620:	ff 92       	push	r15
    4622:	0f 93       	push	r16
    4624:	1f 93       	push	r17
    4626:	cf 93       	push	r28
    4628:	df 93       	push	r29
    462a:	ec 01       	movw	r28, r24
    462c:	6b 01       	movw	r12, r22
    462e:	fb 01       	movw	r30, r22
    4630:	80 81       	ld	r24, Z
    4632:	8f 32       	cpi	r24, 0x2F	; 47
    4634:	11 f0       	breq	.+4      	; 0x463a <follow_path+0x26>
    4636:	8c 35       	cpi	r24, 0x5C	; 92
    4638:	41 f4       	brne	.+16     	; 0x464a <follow_path+0x36>
    463a:	08 94       	sec
    463c:	c1 1c       	adc	r12, r1
    463e:	d1 1c       	adc	r13, r1
    4640:	1e 82       	std	Y+6, r1	; 0x06
    4642:	1f 82       	std	Y+7, r1	; 0x07
    4644:	18 86       	std	Y+8, r1	; 0x08
    4646:	19 86       	std	Y+9, r1	; 0x09
    4648:	0a c0       	rjmp	.+20     	; 0x465e <follow_path+0x4a>
    464a:	e8 81       	ld	r30, Y
    464c:	f9 81       	ldd	r31, Y+1	; 0x01
    464e:	86 89       	ldd	r24, Z+22	; 0x16
    4650:	97 89       	ldd	r25, Z+23	; 0x17
    4652:	a0 8d       	ldd	r26, Z+24	; 0x18
    4654:	b1 8d       	ldd	r27, Z+25	; 0x19
    4656:	8e 83       	std	Y+6, r24	; 0x06
    4658:	9f 83       	std	Y+7, r25	; 0x07
    465a:	a8 87       	std	Y+8, r26	; 0x08
    465c:	b9 87       	std	Y+9, r27	; 0x09
    465e:	f6 01       	movw	r30, r12
    4660:	80 81       	ld	r24, Z
    4662:	80 32       	cpi	r24, 0x20	; 32
    4664:	48 f4       	brcc	.+18     	; 0x4678 <follow_path+0x64>
    4666:	ce 01       	movw	r24, r28
    4668:	60 e0       	ldi	r22, 0x00	; 0
    466a:	70 e0       	ldi	r23, 0x00	; 0
    466c:	0e 94 9d 1c 	call	0x393a	; 0x393a <dir_sdi>
    4670:	48 2f       	mov	r20, r24
    4672:	1b 8a       	std	Y+19, r1	; 0x13
    4674:	1a 8a       	std	Y+18, r1	; 0x12
    4676:	38 c1       	rjmp	.+624    	; 0x48e8 <follow_path+0x2d4>
    4678:	30 e2       	ldi	r19, 0x20	; 32
    467a:	93 2e       	mov	r9, r19
    467c:	25 e0       	ldi	r18, 0x05	; 5
    467e:	e2 2e       	mov	r14, r18
    4680:	0c 89       	ldd	r16, Y+20	; 0x14
    4682:	1d 89       	ldd	r17, Y+21	; 0x15
    4684:	f8 01       	movw	r30, r16
    4686:	8b e0       	ldi	r24, 0x0B	; 11
    4688:	90 e0       	ldi	r25, 0x00	; 0
    468a:	01 c0       	rjmp	.+2      	; 0x468e <follow_path+0x7a>
    468c:	91 92       	st	Z+, r9
    468e:	01 97       	sbiw	r24, 0x01	; 1
    4690:	2f ef       	ldi	r18, 0xFF	; 255
    4692:	8f 3f       	cpi	r24, 0xFF	; 255
    4694:	92 07       	cpc	r25, r18
    4696:	d1 f7       	brne	.-12     	; 0x468c <follow_path+0x78>
    4698:	f6 01       	movw	r30, r12
    469a:	80 81       	ld	r24, Z
    469c:	8e 32       	cpi	r24, 0x2E	; 46
    469e:	49 f0       	breq	.+18     	; 0x46b2 <follow_path+0x9e>
    46a0:	40 e0       	ldi	r20, 0x00	; 0
    46a2:	50 e0       	ldi	r21, 0x00	; 0
    46a4:	a0 e0       	ldi	r26, 0x00	; 0
    46a6:	b0 e0       	ldi	r27, 0x00	; 0
    46a8:	98 e0       	ldi	r25, 0x08	; 8
    46aa:	a9 2e       	mov	r10, r25
    46ac:	b1 2c       	mov	r11, r1
    46ae:	ff 24       	eor	r15, r15
    46b0:	21 c0       	rjmp	.+66     	; 0x46f4 <follow_path+0xe0>
    46b2:	d8 01       	movw	r26, r16
    46b4:	80 e0       	ldi	r24, 0x00	; 0
    46b6:	90 e0       	ldi	r25, 0x00	; 0
    46b8:	f6 01       	movw	r30, r12
    46ba:	e8 0f       	add	r30, r24
    46bc:	f9 1f       	adc	r31, r25
    46be:	e0 81       	ld	r30, Z
    46c0:	01 96       	adiw	r24, 0x01	; 1
    46c2:	ee 32       	cpi	r30, 0x2E	; 46
    46c4:	31 f4       	brne	.+12     	; 0x46d2 <follow_path+0xbe>
    46c6:	83 30       	cpi	r24, 0x03	; 3
    46c8:	91 05       	cpc	r25, r1
    46ca:	09 f4       	brne	.+2      	; 0x46ce <follow_path+0xba>
    46cc:	0a c1       	rjmp	.+532    	; 0x48e2 <follow_path+0x2ce>
    46ce:	ed 93       	st	X+, r30
    46d0:	f3 cf       	rjmp	.-26     	; 0x46b8 <follow_path+0xa4>
    46d2:	ef 32       	cpi	r30, 0x2F	; 47
    46d4:	29 f0       	breq	.+10     	; 0x46e0 <follow_path+0xcc>
    46d6:	ec 35       	cpi	r30, 0x5C	; 92
    46d8:	39 f0       	breq	.+14     	; 0x46e8 <follow_path+0xd4>
    46da:	e1 32       	cpi	r30, 0x21	; 33
    46dc:	08 f0       	brcs	.+2      	; 0x46e0 <follow_path+0xcc>
    46de:	01 c1       	rjmp	.+514    	; 0x48e2 <follow_path+0x2ce>
    46e0:	e1 32       	cpi	r30, 0x21	; 33
    46e2:	10 f4       	brcc	.+4      	; 0x46e8 <follow_path+0xd4>
    46e4:	24 e2       	ldi	r18, 0x24	; 36
    46e6:	01 c0       	rjmp	.+2      	; 0x46ea <follow_path+0xd6>
    46e8:	20 e2       	ldi	r18, 0x20	; 32
    46ea:	c8 0e       	add	r12, r24
    46ec:	d9 1e       	adc	r13, r25
    46ee:	f8 01       	movw	r30, r16
    46f0:	23 87       	std	Z+11, r18	; 0x0b
    46f2:	07 c1       	rjmp	.+526    	; 0x4902 <follow_path+0x2ee>
    46f4:	f6 01       	movw	r30, r12
    46f6:	ea 0f       	add	r30, r26
    46f8:	fb 1f       	adc	r31, r27
    46fa:	20 81       	ld	r18, Z
    46fc:	11 96       	adiw	r26, 0x01	; 1
    46fe:	21 32       	cpi	r18, 0x21	; 33
    4700:	08 f4       	brcc	.+2      	; 0x4704 <follow_path+0xf0>
    4702:	68 c0       	rjmp	.+208    	; 0x47d4 <follow_path+0x1c0>
    4704:	2f 32       	cpi	r18, 0x2F	; 47
    4706:	09 f4       	brne	.+2      	; 0x470a <follow_path+0xf6>
    4708:	06 c1       	rjmp	.+524    	; 0x4916 <follow_path+0x302>
    470a:	2c 35       	cpi	r18, 0x5C	; 92
    470c:	09 f4       	brne	.+2      	; 0x4710 <follow_path+0xfc>
    470e:	03 c1       	rjmp	.+518    	; 0x4916 <follow_path+0x302>
    4710:	2e 32       	cpi	r18, 0x2E	; 46
    4712:	19 f0       	breq	.+6      	; 0x471a <follow_path+0x106>
    4714:	4a 15       	cp	r20, r10
    4716:	5b 05       	cpc	r21, r11
    4718:	80 f0       	brcs	.+32     	; 0x473a <follow_path+0x126>
    471a:	f8 e0       	ldi	r31, 0x08	; 8
    471c:	af 16       	cp	r10, r31
    471e:	b1 04       	cpc	r11, r1
    4720:	09 f0       	breq	.+2      	; 0x4724 <follow_path+0x110>
    4722:	df c0       	rjmp	.+446    	; 0x48e2 <follow_path+0x2ce>
    4724:	2e 32       	cpi	r18, 0x2E	; 46
    4726:	09 f0       	breq	.+2      	; 0x472a <follow_path+0x116>
    4728:	dc c0       	rjmp	.+440    	; 0x48e2 <follow_path+0x2ce>
    472a:	ff 0c       	add	r15, r15
    472c:	ff 0c       	add	r15, r15
    472e:	48 e0       	ldi	r20, 0x08	; 8
    4730:	50 e0       	ldi	r21, 0x00	; 0
    4732:	8b e0       	ldi	r24, 0x0B	; 11
    4734:	a8 2e       	mov	r10, r24
    4736:	b1 2c       	mov	r11, r1
    4738:	dd cf       	rjmp	.-70     	; 0x46f4 <follow_path+0xe0>
    473a:	27 ff       	sbrs	r18, 7
    473c:	02 c0       	rjmp	.+4      	; 0x4742 <follow_path+0x12e>
    473e:	83 e0       	ldi	r24, 0x03	; 3
    4740:	f8 2a       	or	r15, r24
    4742:	82 2f       	mov	r24, r18
    4744:	81 58       	subi	r24, 0x81	; 129
    4746:	8f 31       	cpi	r24, 0x1F	; 31
    4748:	18 f0       	brcs	.+6      	; 0x4750 <follow_path+0x13c>
    474a:	8f 55       	subi	r24, 0x5F	; 95
    474c:	8d 31       	cpi	r24, 0x1D	; 29
    474e:	f8 f4       	brcc	.+62     	; 0x478e <follow_path+0x17a>
    4750:	f6 01       	movw	r30, r12
    4752:	ea 0f       	add	r30, r26
    4754:	fb 1f       	adc	r31, r27
    4756:	30 81       	ld	r19, Z
    4758:	83 2f       	mov	r24, r19
    475a:	80 54       	subi	r24, 0x40	; 64
    475c:	8f 33       	cpi	r24, 0x3F	; 63
    475e:	20 f0       	brcs	.+8      	; 0x4768 <follow_path+0x154>
    4760:	80 54       	subi	r24, 0x40	; 64
    4762:	8d 37       	cpi	r24, 0x7D	; 125
    4764:	08 f0       	brcs	.+2      	; 0x4768 <follow_path+0x154>
    4766:	bd c0       	rjmp	.+378    	; 0x48e2 <follow_path+0x2ce>
    4768:	c5 01       	movw	r24, r10
    476a:	01 97       	sbiw	r24, 0x01	; 1
    476c:	48 17       	cp	r20, r24
    476e:	59 07       	cpc	r21, r25
    4770:	08 f0       	brcs	.+2      	; 0x4774 <follow_path+0x160>
    4772:	b7 c0       	rjmp	.+366    	; 0x48e2 <follow_path+0x2ce>
    4774:	11 96       	adiw	r26, 0x01	; 1
    4776:	f8 01       	movw	r30, r16
    4778:	e4 0f       	add	r30, r20
    477a:	f5 1f       	adc	r31, r21
    477c:	20 83       	st	Z, r18
    477e:	ca 01       	movw	r24, r20
    4780:	01 96       	adiw	r24, 0x01	; 1
    4782:	f8 01       	movw	r30, r16
    4784:	e8 0f       	add	r30, r24
    4786:	f9 1f       	adc	r31, r25
    4788:	30 83       	st	Z, r19
    478a:	ac 01       	movw	r20, r24
    478c:	20 c0       	rjmp	.+64     	; 0x47ce <follow_path+0x1ba>
    478e:	62 2f       	mov	r22, r18
    4790:	70 e0       	ldi	r23, 0x00	; 0
    4792:	ec e9       	ldi	r30, 0x9C	; 156
    4794:	f0 e0       	ldi	r31, 0x00	; 0
    4796:	01 c0       	rjmp	.+2      	; 0x479a <follow_path+0x186>
    4798:	31 96       	adiw	r30, 0x01	; 1
    479a:	80 81       	ld	r24, Z
    479c:	88 23       	and	r24, r24
    479e:	29 f0       	breq	.+10     	; 0x47aa <follow_path+0x196>
    47a0:	90 e0       	ldi	r25, 0x00	; 0
    47a2:	86 17       	cp	r24, r22
    47a4:	97 07       	cpc	r25, r23
    47a6:	c1 f7       	brne	.-16     	; 0x4798 <follow_path+0x184>
    47a8:	9c c0       	rjmp	.+312    	; 0x48e2 <follow_path+0x2ce>
    47aa:	82 2f       	mov	r24, r18
    47ac:	81 54       	subi	r24, 0x41	; 65
    47ae:	8a 31       	cpi	r24, 0x1A	; 26
    47b0:	18 f4       	brcc	.+6      	; 0x47b8 <follow_path+0x1a4>
    47b2:	e2 e0       	ldi	r30, 0x02	; 2
    47b4:	fe 2a       	or	r15, r30
    47b6:	07 c0       	rjmp	.+14     	; 0x47c6 <follow_path+0x1b2>
    47b8:	82 2f       	mov	r24, r18
    47ba:	81 56       	subi	r24, 0x61	; 97
    47bc:	8a 31       	cpi	r24, 0x1A	; 26
    47be:	18 f4       	brcc	.+6      	; 0x47c6 <follow_path+0x1b2>
    47c0:	f1 e0       	ldi	r31, 0x01	; 1
    47c2:	ff 2a       	or	r15, r31
    47c4:	20 52       	subi	r18, 0x20	; 32
    47c6:	f8 01       	movw	r30, r16
    47c8:	e4 0f       	add	r30, r20
    47ca:	f5 1f       	adc	r31, r21
    47cc:	20 83       	st	Z, r18
    47ce:	4f 5f       	subi	r20, 0xFF	; 255
    47d0:	5f 4f       	sbci	r21, 0xFF	; 255
    47d2:	90 cf       	rjmp	.-224    	; 0x46f4 <follow_path+0xe0>
    47d4:	64 e0       	ldi	r22, 0x04	; 4
    47d6:	45 2b       	or	r20, r21
    47d8:	09 f4       	brne	.+2      	; 0x47dc <follow_path+0x1c8>
    47da:	83 c0       	rjmp	.+262    	; 0x48e2 <follow_path+0x2ce>
    47dc:	f8 01       	movw	r30, r16
    47de:	80 81       	ld	r24, Z
    47e0:	85 3e       	cpi	r24, 0xE5	; 229
    47e2:	09 f4       	brne	.+2      	; 0x47e6 <follow_path+0x1d2>
    47e4:	e0 82       	st	Z, r14
    47e6:	f8 e0       	ldi	r31, 0x08	; 8
    47e8:	af 16       	cp	r10, r31
    47ea:	b1 04       	cpc	r11, r1
    47ec:	11 f4       	brne	.+4      	; 0x47f2 <follow_path+0x1de>
    47ee:	ff 0c       	add	r15, r15
    47f0:	ff 0c       	add	r15, r15
    47f2:	2f 2d       	mov	r18, r15
    47f4:	30 e0       	ldi	r19, 0x00	; 0
    47f6:	c9 01       	movw	r24, r18
    47f8:	83 70       	andi	r24, 0x03	; 3
    47fa:	90 70       	andi	r25, 0x00	; 0
    47fc:	01 97       	sbiw	r24, 0x01	; 1
    47fe:	09 f4       	brne	.+2      	; 0x4802 <follow_path+0x1ee>
    4800:	60 61       	ori	r22, 0x10	; 16
    4802:	2c 70       	andi	r18, 0x0C	; 12
    4804:	30 70       	andi	r19, 0x00	; 0
    4806:	24 30       	cpi	r18, 0x04	; 4
    4808:	31 05       	cpc	r19, r1
    480a:	09 f4       	brne	.+2      	; 0x480e <follow_path+0x1fa>
    480c:	68 60       	ori	r22, 0x08	; 8
    480e:	ca 0e       	add	r12, r26
    4810:	db 1e       	adc	r13, r27
    4812:	f8 01       	movw	r30, r16
    4814:	63 87       	std	Z+11, r22	; 0x0b
    4816:	75 c0       	rjmp	.+234    	; 0x4902 <follow_path+0x2ee>
    4818:	4e 85       	ldd	r20, Y+14	; 0x0e
    481a:	5f 85       	ldd	r21, Y+15	; 0x0f
    481c:	68 89       	ldd	r22, Y+16	; 0x10
    481e:	79 89       	ldd	r23, Y+17	; 0x11
    4820:	88 81       	ld	r24, Y
    4822:	99 81       	ldd	r25, Y+1	; 0x01
    4824:	0e 94 8f 19 	call	0x331e	; 0x331e <move_window>
    4828:	48 2f       	mov	r20, r24
    482a:	88 23       	and	r24, r24
    482c:	21 f5       	brne	.+72     	; 0x4876 <follow_path+0x262>
    482e:	ea 89       	ldd	r30, Y+18	; 0x12
    4830:	fb 89       	ldd	r31, Y+19	; 0x13
    4832:	80 81       	ld	r24, Z
    4834:	88 23       	and	r24, r24
    4836:	11 f4       	brne	.+4      	; 0x483c <follow_path+0x228>
    4838:	44 e0       	ldi	r20, 0x04	; 4
    483a:	1d c0       	rjmp	.+58     	; 0x4876 <follow_path+0x262>
    483c:	83 85       	ldd	r24, Z+11	; 0x0b
    483e:	83 fd       	sbrc	r24, 3
    4840:	14 c0       	rjmp	.+40     	; 0x486a <follow_path+0x256>
    4842:	df 01       	movw	r26, r30
    4844:	8c 89       	ldd	r24, Y+20	; 0x14
    4846:	9d 89       	ldd	r25, Y+21	; 0x15
    4848:	9c 01       	movw	r18, r24
    484a:	f9 01       	movw	r30, r18
    484c:	2b e0       	ldi	r18, 0x0B	; 11
    484e:	30 e0       	ldi	r19, 0x00	; 0
    4850:	21 50       	subi	r18, 0x01	; 1
    4852:	30 40       	sbci	r19, 0x00	; 0
    4854:	8f ef       	ldi	r24, 0xFF	; 255
    4856:	2f 3f       	cpi	r18, 0xFF	; 255
    4858:	38 07       	cpc	r19, r24
    485a:	69 f0       	breq	.+26     	; 0x4876 <follow_path+0x262>
    485c:	9c 91       	ld	r25, X
    485e:	80 81       	ld	r24, Z
    4860:	98 17       	cp	r25, r24
    4862:	19 f4       	brne	.+6      	; 0x486a <follow_path+0x256>
    4864:	11 96       	adiw	r26, 0x01	; 1
    4866:	31 96       	adiw	r30, 0x01	; 1
    4868:	f3 cf       	rjmp	.-26     	; 0x4850 <follow_path+0x23c>
    486a:	ce 01       	movw	r24, r28
    486c:	60 e0       	ldi	r22, 0x00	; 0
    486e:	70 e0       	ldi	r23, 0x00	; 0
    4870:	0e 94 8d 21 	call	0x431a	; 0x431a <dir_next>
    4874:	4b c0       	rjmp	.+150    	; 0x490c <follow_path+0x2f8>
    4876:	ec 89       	ldd	r30, Y+20	; 0x14
    4878:	fd 89       	ldd	r31, Y+21	; 0x15
    487a:	83 85       	ldd	r24, Z+11	; 0x0b
    487c:	44 23       	and	r20, r20
    487e:	b1 f0       	breq	.+44     	; 0x48ac <follow_path+0x298>
    4880:	44 30       	cpi	r20, 0x04	; 4
    4882:	91 f5       	brne	.+100    	; 0x48e8 <follow_path+0x2d4>
    4884:	90 e0       	ldi	r25, 0x00	; 0
    4886:	9c 01       	movw	r18, r24
    4888:	24 70       	andi	r18, 0x04	; 4
    488a:	30 70       	andi	r19, 0x00	; 0
    488c:	85 ff       	sbrs	r24, 5
    488e:	0b c0       	rjmp	.+22     	; 0x48a6 <follow_path+0x292>
    4890:	1e 82       	std	Y+6, r1	; 0x06
    4892:	1f 82       	std	Y+7, r1	; 0x07
    4894:	18 86       	std	Y+8, r1	; 0x08
    4896:	19 86       	std	Y+9, r1	; 0x09
    4898:	1b 8a       	std	Y+19, r1	; 0x13
    489a:	1a 8a       	std	Y+18, r1	; 0x12
    489c:	23 2b       	or	r18, r19
    489e:	09 f4       	brne	.+2      	; 0x48a2 <follow_path+0x28e>
    48a0:	ef ce       	rjmp	.-546    	; 0x4680 <follow_path+0x6c>
    48a2:	40 e0       	ldi	r20, 0x00	; 0
    48a4:	21 c0       	rjmp	.+66     	; 0x48e8 <follow_path+0x2d4>
    48a6:	23 2b       	or	r18, r19
    48a8:	f1 f0       	breq	.+60     	; 0x48e6 <follow_path+0x2d2>
    48aa:	1e c0       	rjmp	.+60     	; 0x48e8 <follow_path+0x2d4>
    48ac:	82 fd       	sbrc	r24, 2
    48ae:	1c c0       	rjmp	.+56     	; 0x48e8 <follow_path+0x2d4>
    48b0:	ea 89       	ldd	r30, Y+18	; 0x12
    48b2:	fb 89       	ldd	r31, Y+19	; 0x13
    48b4:	83 85       	ldd	r24, Z+11	; 0x0b
    48b6:	84 ff       	sbrs	r24, 4
    48b8:	16 c0       	rjmp	.+44     	; 0x48e6 <follow_path+0x2d2>
    48ba:	84 89       	ldd	r24, Z+20	; 0x14
    48bc:	95 89       	ldd	r25, Z+21	; 0x15
    48be:	a0 e0       	ldi	r26, 0x00	; 0
    48c0:	b0 e0       	ldi	r27, 0x00	; 0
    48c2:	dc 01       	movw	r26, r24
    48c4:	99 27       	eor	r25, r25
    48c6:	88 27       	eor	r24, r24
    48c8:	22 8d       	ldd	r18, Z+26	; 0x1a
    48ca:	33 8d       	ldd	r19, Z+27	; 0x1b
    48cc:	40 e0       	ldi	r20, 0x00	; 0
    48ce:	50 e0       	ldi	r21, 0x00	; 0
    48d0:	82 2b       	or	r24, r18
    48d2:	93 2b       	or	r25, r19
    48d4:	a4 2b       	or	r26, r20
    48d6:	b5 2b       	or	r27, r21
    48d8:	8e 83       	std	Y+6, r24	; 0x06
    48da:	9f 83       	std	Y+7, r25	; 0x07
    48dc:	a8 87       	std	Y+8, r26	; 0x08
    48de:	b9 87       	std	Y+9, r27	; 0x09
    48e0:	cf ce       	rjmp	.-610    	; 0x4680 <follow_path+0x6c>
    48e2:	46 e0       	ldi	r20, 0x06	; 6
    48e4:	01 c0       	rjmp	.+2      	; 0x48e8 <follow_path+0x2d4>
    48e6:	45 e0       	ldi	r20, 0x05	; 5
    48e8:	84 2f       	mov	r24, r20
    48ea:	df 91       	pop	r29
    48ec:	cf 91       	pop	r28
    48ee:	1f 91       	pop	r17
    48f0:	0f 91       	pop	r16
    48f2:	ff 90       	pop	r15
    48f4:	ef 90       	pop	r14
    48f6:	df 90       	pop	r13
    48f8:	cf 90       	pop	r12
    48fa:	bf 90       	pop	r11
    48fc:	af 90       	pop	r10
    48fe:	9f 90       	pop	r9
    4900:	08 95       	ret
    4902:	ce 01       	movw	r24, r28
    4904:	60 e0       	ldi	r22, 0x00	; 0
    4906:	70 e0       	ldi	r23, 0x00	; 0
    4908:	0e 94 9d 1c 	call	0x393a	; 0x393a <dir_sdi>
    490c:	48 2f       	mov	r20, r24
    490e:	88 23       	and	r24, r24
    4910:	09 f4       	brne	.+2      	; 0x4914 <follow_path+0x300>
    4912:	82 cf       	rjmp	.-252    	; 0x4818 <follow_path+0x204>
    4914:	b0 cf       	rjmp	.-160    	; 0x4876 <follow_path+0x262>
    4916:	60 e0       	ldi	r22, 0x00	; 0
    4918:	5e cf       	rjmp	.-324    	; 0x47d6 <follow_path+0x1c2>

0000491a <f_utime>:
    491a:	ef 92       	push	r14
    491c:	ff 92       	push	r15
    491e:	0f 93       	push	r16
    4920:	1f 93       	push	r17
    4922:	df 93       	push	r29
    4924:	cf 93       	push	r28
    4926:	cd b7       	in	r28, 0x3d	; 61
    4928:	de b7       	in	r29, 0x3e	; 62
    492a:	a4 97       	sbiw	r28, 0x24	; 36
    492c:	0f b6       	in	r0, 0x3f	; 63
    492e:	f8 94       	cli
    4930:	de bf       	out	0x3e, r29	; 62
    4932:	0f be       	out	0x3f, r0	; 63
    4934:	cd bf       	out	0x3d, r28	; 61
    4936:	9c a3       	std	Y+36, r25	; 0x24
    4938:	8b a3       	std	Y+35, r24	; 0x23
    493a:	7b 01       	movw	r14, r22
    493c:	8e 01       	movw	r16, r28
    493e:	03 5f       	subi	r16, 0xF3	; 243
    4940:	1f 4f       	sbci	r17, 0xFF	; 255
    4942:	ce 01       	movw	r24, r28
    4944:	83 96       	adiw	r24, 0x23	; 35
    4946:	b8 01       	movw	r22, r16
    4948:	41 e0       	ldi	r20, 0x01	; 1
    494a:	0e 94 e7 16 	call	0x2dce	; 0x2dce <chk_mounted>
    494e:	88 23       	and	r24, r24
    4950:	51 f5       	brne	.+84     	; 0x49a6 <f_utime+0x8c>
    4952:	ce 01       	movw	r24, r28
    4954:	01 96       	adiw	r24, 0x01	; 1
    4956:	9a a3       	std	Y+34, r25	; 0x22
    4958:	89 a3       	std	Y+33, r24	; 0x21
    495a:	6b a1       	ldd	r22, Y+35	; 0x23
    495c:	7c a1       	ldd	r23, Y+36	; 0x24
    495e:	c8 01       	movw	r24, r16
    4960:	0e 94 0a 23 	call	0x4614	; 0x4614 <follow_path>
    4964:	88 23       	and	r24, r24
    4966:	f9 f4       	brne	.+62     	; 0x49a6 <f_utime+0x8c>
    4968:	e9 a1       	ldd	r30, Y+33	; 0x21
    496a:	fa a1       	ldd	r31, Y+34	; 0x22
    496c:	83 85       	ldd	r24, Z+11	; 0x0b
    496e:	85 fd       	sbrc	r24, 5
    4970:	19 c0       	rjmp	.+50     	; 0x49a4 <f_utime+0x8a>
    4972:	ef 8d       	ldd	r30, Y+31	; 0x1f
    4974:	f8 a1       	ldd	r31, Y+32	; 0x20
    4976:	30 97       	sbiw	r30, 0x00	; 0
    4978:	a9 f0       	breq	.+42     	; 0x49a4 <f_utime+0x8a>
    497a:	d7 01       	movw	r26, r14
    497c:	16 96       	adiw	r26, 0x06	; 6
    497e:	8d 91       	ld	r24, X+
    4980:	9c 91       	ld	r25, X
    4982:	17 97       	sbiw	r26, 0x07	; 7
    4984:	97 8b       	std	Z+23, r25	; 0x17
    4986:	86 8b       	std	Z+22, r24	; 0x16
    4988:	14 96       	adiw	r26, 0x04	; 4
    498a:	8d 91       	ld	r24, X+
    498c:	9c 91       	ld	r25, X
    498e:	15 97       	sbiw	r26, 0x05	; 5
    4990:	91 8f       	std	Z+25, r25	; 0x19
    4992:	80 8f       	std	Z+24, r24	; 0x18
    4994:	ed 85       	ldd	r30, Y+13	; 0x0d
    4996:	fe 85       	ldd	r31, Y+14	; 0x0e
    4998:	81 e0       	ldi	r24, 0x01	; 1
    499a:	84 83       	std	Z+4, r24	; 0x04
    499c:	cf 01       	movw	r24, r30
    499e:	0e 94 08 1a 	call	0x3410	; 0x3410 <sync>
    49a2:	01 c0       	rjmp	.+2      	; 0x49a6 <f_utime+0x8c>
    49a4:	86 e0       	ldi	r24, 0x06	; 6
    49a6:	a4 96       	adiw	r28, 0x24	; 36
    49a8:	0f b6       	in	r0, 0x3f	; 63
    49aa:	f8 94       	cli
    49ac:	de bf       	out	0x3e, r29	; 62
    49ae:	0f be       	out	0x3f, r0	; 63
    49b0:	cd bf       	out	0x3d, r28	; 61
    49b2:	cf 91       	pop	r28
    49b4:	df 91       	pop	r29
    49b6:	1f 91       	pop	r17
    49b8:	0f 91       	pop	r16
    49ba:	ff 90       	pop	r15
    49bc:	ef 90       	pop	r14
    49be:	08 95       	ret

000049c0 <f_chmod>:
    49c0:	ef 92       	push	r14
    49c2:	ff 92       	push	r15
    49c4:	0f 93       	push	r16
    49c6:	1f 93       	push	r17
    49c8:	df 93       	push	r29
    49ca:	cf 93       	push	r28
    49cc:	cd b7       	in	r28, 0x3d	; 61
    49ce:	de b7       	in	r29, 0x3e	; 62
    49d0:	a4 97       	sbiw	r28, 0x24	; 36
    49d2:	0f b6       	in	r0, 0x3f	; 63
    49d4:	f8 94       	cli
    49d6:	de bf       	out	0x3e, r29	; 62
    49d8:	0f be       	out	0x3f, r0	; 63
    49da:	cd bf       	out	0x3d, r28	; 61
    49dc:	9c a3       	std	Y+36, r25	; 0x24
    49de:	8b a3       	std	Y+35, r24	; 0x23
    49e0:	e6 2e       	mov	r14, r22
    49e2:	f4 2e       	mov	r15, r20
    49e4:	8e 01       	movw	r16, r28
    49e6:	03 5f       	subi	r16, 0xF3	; 243
    49e8:	1f 4f       	sbci	r17, 0xFF	; 255
    49ea:	ce 01       	movw	r24, r28
    49ec:	83 96       	adiw	r24, 0x23	; 35
    49ee:	b8 01       	movw	r22, r16
    49f0:	41 e0       	ldi	r20, 0x01	; 1
    49f2:	0e 94 e7 16 	call	0x2dce	; 0x2dce <chk_mounted>
    49f6:	88 23       	and	r24, r24
    49f8:	31 f5       	brne	.+76     	; 0x4a46 <f_chmod+0x86>
    49fa:	ce 01       	movw	r24, r28
    49fc:	01 96       	adiw	r24, 0x01	; 1
    49fe:	9a a3       	std	Y+34, r25	; 0x22
    4a00:	89 a3       	std	Y+33, r24	; 0x21
    4a02:	6b a1       	ldd	r22, Y+35	; 0x23
    4a04:	7c a1       	ldd	r23, Y+36	; 0x24
    4a06:	c8 01       	movw	r24, r16
    4a08:	0e 94 0a 23 	call	0x4614	; 0x4614 <follow_path>
    4a0c:	88 23       	and	r24, r24
    4a0e:	d9 f4       	brne	.+54     	; 0x4a46 <f_chmod+0x86>
    4a10:	e9 a1       	ldd	r30, Y+33	; 0x21
    4a12:	fa a1       	ldd	r31, Y+34	; 0x22
    4a14:	83 85       	ldd	r24, Z+11	; 0x0b
    4a16:	85 fd       	sbrc	r24, 5
    4a18:	15 c0       	rjmp	.+42     	; 0x4a44 <f_chmod+0x84>
    4a1a:	ef 8d       	ldd	r30, Y+31	; 0x1f
    4a1c:	f8 a1       	ldd	r31, Y+32	; 0x20
    4a1e:	30 97       	sbiw	r30, 0x00	; 0
    4a20:	89 f0       	breq	.+34     	; 0x4a44 <f_chmod+0x84>
    4a22:	9f 2d       	mov	r25, r15
    4a24:	97 72       	andi	r25, 0x27	; 39
    4a26:	89 2f       	mov	r24, r25
    4a28:	80 95       	com	r24
    4a2a:	23 85       	ldd	r18, Z+11	; 0x0b
    4a2c:	82 23       	and	r24, r18
    4a2e:	9e 21       	and	r25, r14
    4a30:	89 2b       	or	r24, r25
    4a32:	83 87       	std	Z+11, r24	; 0x0b
    4a34:	ed 85       	ldd	r30, Y+13	; 0x0d
    4a36:	fe 85       	ldd	r31, Y+14	; 0x0e
    4a38:	81 e0       	ldi	r24, 0x01	; 1
    4a3a:	84 83       	std	Z+4, r24	; 0x04
    4a3c:	cf 01       	movw	r24, r30
    4a3e:	0e 94 08 1a 	call	0x3410	; 0x3410 <sync>
    4a42:	01 c0       	rjmp	.+2      	; 0x4a46 <f_chmod+0x86>
    4a44:	86 e0       	ldi	r24, 0x06	; 6
    4a46:	a4 96       	adiw	r28, 0x24	; 36
    4a48:	0f b6       	in	r0, 0x3f	; 63
    4a4a:	f8 94       	cli
    4a4c:	de bf       	out	0x3e, r29	; 62
    4a4e:	0f be       	out	0x3f, r0	; 63
    4a50:	cd bf       	out	0x3d, r28	; 61
    4a52:	cf 91       	pop	r28
    4a54:	df 91       	pop	r29
    4a56:	1f 91       	pop	r17
    4a58:	0f 91       	pop	r16
    4a5a:	ff 90       	pop	r15
    4a5c:	ef 90       	pop	r14
    4a5e:	08 95       	ret

00004a60 <f_stat>:
    4a60:	cf 92       	push	r12
    4a62:	df 92       	push	r13
    4a64:	ef 92       	push	r14
    4a66:	ff 92       	push	r15
    4a68:	1f 93       	push	r17
    4a6a:	df 93       	push	r29
    4a6c:	cf 93       	push	r28
    4a6e:	cd b7       	in	r28, 0x3d	; 61
    4a70:	de b7       	in	r29, 0x3e	; 62
    4a72:	a4 97       	sbiw	r28, 0x24	; 36
    4a74:	0f b6       	in	r0, 0x3f	; 63
    4a76:	f8 94       	cli
    4a78:	de bf       	out	0x3e, r29	; 62
    4a7a:	0f be       	out	0x3f, r0	; 63
    4a7c:	cd bf       	out	0x3d, r28	; 61
    4a7e:	9c a3       	std	Y+36, r25	; 0x24
    4a80:	8b a3       	std	Y+35, r24	; 0x23
    4a82:	6b 01       	movw	r12, r22
    4a84:	4d e0       	ldi	r20, 0x0D	; 13
    4a86:	e4 2e       	mov	r14, r20
    4a88:	f1 2c       	mov	r15, r1
    4a8a:	ec 0e       	add	r14, r28
    4a8c:	fd 1e       	adc	r15, r29
    4a8e:	ce 01       	movw	r24, r28
    4a90:	83 96       	adiw	r24, 0x23	; 35
    4a92:	b7 01       	movw	r22, r14
    4a94:	40 e0       	ldi	r20, 0x00	; 0
    4a96:	0e 94 e7 16 	call	0x2dce	; 0x2dce <chk_mounted>
    4a9a:	18 2f       	mov	r17, r24
    4a9c:	88 23       	and	r24, r24
    4a9e:	b1 f4       	brne	.+44     	; 0x4acc <f_stat+0x6c>
    4aa0:	ce 01       	movw	r24, r28
    4aa2:	01 96       	adiw	r24, 0x01	; 1
    4aa4:	9a a3       	std	Y+34, r25	; 0x22
    4aa6:	89 a3       	std	Y+33, r24	; 0x21
    4aa8:	6b a1       	ldd	r22, Y+35	; 0x23
    4aaa:	7c a1       	ldd	r23, Y+36	; 0x24
    4aac:	c7 01       	movw	r24, r14
    4aae:	0e 94 0a 23 	call	0x4614	; 0x4614 <follow_path>
    4ab2:	18 2f       	mov	r17, r24
    4ab4:	88 23       	and	r24, r24
    4ab6:	51 f4       	brne	.+20     	; 0x4acc <f_stat+0x6c>
    4ab8:	8f 8d       	ldd	r24, Y+31	; 0x1f
    4aba:	98 a1       	ldd	r25, Y+32	; 0x20
    4abc:	89 2b       	or	r24, r25
    4abe:	11 f4       	brne	.+4      	; 0x4ac4 <f_stat+0x64>
    4ac0:	16 e0       	ldi	r17, 0x06	; 6
    4ac2:	04 c0       	rjmp	.+8      	; 0x4acc <f_stat+0x6c>
    4ac4:	c7 01       	movw	r24, r14
    4ac6:	b6 01       	movw	r22, r12
    4ac8:	0e 94 58 11 	call	0x22b0	; 0x22b0 <get_fileinfo>
    4acc:	81 2f       	mov	r24, r17
    4ace:	a4 96       	adiw	r28, 0x24	; 36
    4ad0:	0f b6       	in	r0, 0x3f	; 63
    4ad2:	f8 94       	cli
    4ad4:	de bf       	out	0x3e, r29	; 62
    4ad6:	0f be       	out	0x3f, r0	; 63
    4ad8:	cd bf       	out	0x3d, r28	; 61
    4ada:	cf 91       	pop	r28
    4adc:	df 91       	pop	r29
    4ade:	1f 91       	pop	r17
    4ae0:	ff 90       	pop	r15
    4ae2:	ef 90       	pop	r14
    4ae4:	df 90       	pop	r13
    4ae6:	cf 90       	pop	r12
    4ae8:	08 95       	ret

00004aea <f_opendir>:
    4aea:	0f 93       	push	r16
    4aec:	1f 93       	push	r17
    4aee:	df 93       	push	r29
    4af0:	cf 93       	push	r28
    4af2:	cd b7       	in	r28, 0x3d	; 61
    4af4:	de b7       	in	r29, 0x3e	; 62
    4af6:	2e 97       	sbiw	r28, 0x0e	; 14
    4af8:	0f b6       	in	r0, 0x3f	; 63
    4afa:	f8 94       	cli
    4afc:	de bf       	out	0x3e, r29	; 62
    4afe:	0f be       	out	0x3f, r0	; 63
    4b00:	cd bf       	out	0x3d, r28	; 61
    4b02:	8c 01       	movw	r16, r24
    4b04:	7e 87       	std	Y+14, r23	; 0x0e
    4b06:	6d 87       	std	Y+13, r22	; 0x0d
    4b08:	ce 01       	movw	r24, r28
    4b0a:	0d 96       	adiw	r24, 0x0d	; 13
    4b0c:	b8 01       	movw	r22, r16
    4b0e:	40 e0       	ldi	r20, 0x00	; 0
    4b10:	0e 94 e7 16 	call	0x2dce	; 0x2dce <chk_mounted>
    4b14:	88 23       	and	r24, r24
    4b16:	f1 f5       	brne	.+124    	; 0x4b94 <f_opendir+0xaa>
    4b18:	ce 01       	movw	r24, r28
    4b1a:	01 96       	adiw	r24, 0x01	; 1
    4b1c:	d8 01       	movw	r26, r16
    4b1e:	55 96       	adiw	r26, 0x15	; 21
    4b20:	9c 93       	st	X, r25
    4b22:	8e 93       	st	-X, r24
    4b24:	54 97       	sbiw	r26, 0x14	; 20
    4b26:	6d 85       	ldd	r22, Y+13	; 0x0d
    4b28:	7e 85       	ldd	r23, Y+14	; 0x0e
    4b2a:	c8 01       	movw	r24, r16
    4b2c:	0e 94 0a 23 	call	0x4614	; 0x4614 <follow_path>
    4b30:	88 23       	and	r24, r24
    4b32:	69 f5       	brne	.+90     	; 0x4b8e <f_opendir+0xa4>
    4b34:	d8 01       	movw	r26, r16
    4b36:	52 96       	adiw	r26, 0x12	; 18
    4b38:	ed 91       	ld	r30, X+
    4b3a:	fc 91       	ld	r31, X
    4b3c:	53 97       	sbiw	r26, 0x13	; 19
    4b3e:	30 97       	sbiw	r30, 0x00	; 0
    4b40:	b9 f0       	breq	.+46     	; 0x4b70 <f_opendir+0x86>
    4b42:	83 85       	ldd	r24, Z+11	; 0x0b
    4b44:	84 ff       	sbrs	r24, 4
    4b46:	25 c0       	rjmp	.+74     	; 0x4b92 <f_opendir+0xa8>
    4b48:	84 89       	ldd	r24, Z+20	; 0x14
    4b4a:	95 89       	ldd	r25, Z+21	; 0x15
    4b4c:	a0 e0       	ldi	r26, 0x00	; 0
    4b4e:	b0 e0       	ldi	r27, 0x00	; 0
    4b50:	dc 01       	movw	r26, r24
    4b52:	99 27       	eor	r25, r25
    4b54:	88 27       	eor	r24, r24
    4b56:	22 8d       	ldd	r18, Z+26	; 0x1a
    4b58:	33 8d       	ldd	r19, Z+27	; 0x1b
    4b5a:	40 e0       	ldi	r20, 0x00	; 0
    4b5c:	50 e0       	ldi	r21, 0x00	; 0
    4b5e:	82 2b       	or	r24, r18
    4b60:	93 2b       	or	r25, r19
    4b62:	a4 2b       	or	r26, r20
    4b64:	b5 2b       	or	r27, r21
    4b66:	f8 01       	movw	r30, r16
    4b68:	86 83       	std	Z+6, r24	; 0x06
    4b6a:	97 83       	std	Z+7, r25	; 0x07
    4b6c:	a0 87       	std	Z+8, r26	; 0x08
    4b6e:	b1 87       	std	Z+9, r27	; 0x09
    4b70:	d8 01       	movw	r26, r16
    4b72:	ed 91       	ld	r30, X+
    4b74:	fc 91       	ld	r31, X
    4b76:	11 97       	sbiw	r26, 0x01	; 1
    4b78:	86 81       	ldd	r24, Z+6	; 0x06
    4b7a:	97 81       	ldd	r25, Z+7	; 0x07
    4b7c:	13 96       	adiw	r26, 0x03	; 3
    4b7e:	9c 93       	st	X, r25
    4b80:	8e 93       	st	-X, r24
    4b82:	12 97       	sbiw	r26, 0x02	; 2
    4b84:	c8 01       	movw	r24, r16
    4b86:	60 e0       	ldi	r22, 0x00	; 0
    4b88:	70 e0       	ldi	r23, 0x00	; 0
    4b8a:	0e 94 9d 1c 	call	0x393a	; 0x393a <dir_sdi>
    4b8e:	84 30       	cpi	r24, 0x04	; 4
    4b90:	09 f4       	brne	.+2      	; 0x4b94 <f_opendir+0xaa>
    4b92:	85 e0       	ldi	r24, 0x05	; 5
    4b94:	2e 96       	adiw	r28, 0x0e	; 14
    4b96:	0f b6       	in	r0, 0x3f	; 63
    4b98:	f8 94       	cli
    4b9a:	de bf       	out	0x3e, r29	; 62
    4b9c:	0f be       	out	0x3f, r0	; 63
    4b9e:	cd bf       	out	0x3d, r28	; 61
    4ba0:	cf 91       	pop	r28
    4ba2:	df 91       	pop	r29
    4ba4:	1f 91       	pop	r17
    4ba6:	0f 91       	pop	r16
    4ba8:	08 95       	ret

00004baa <f_chdir>:
    4baa:	0f 93       	push	r16
    4bac:	1f 93       	push	r17
    4bae:	df 93       	push	r29
    4bb0:	cf 93       	push	r28
    4bb2:	cd b7       	in	r28, 0x3d	; 61
    4bb4:	de b7       	in	r29, 0x3e	; 62
    4bb6:	a4 97       	sbiw	r28, 0x24	; 36
    4bb8:	0f b6       	in	r0, 0x3f	; 63
    4bba:	f8 94       	cli
    4bbc:	de bf       	out	0x3e, r29	; 62
    4bbe:	0f be       	out	0x3f, r0	; 63
    4bc0:	cd bf       	out	0x3d, r28	; 61
    4bc2:	9c a3       	std	Y+36, r25	; 0x24
    4bc4:	8b a3       	std	Y+35, r24	; 0x23
    4bc6:	8e 01       	movw	r16, r28
    4bc8:	03 5f       	subi	r16, 0xF3	; 243
    4bca:	1f 4f       	sbci	r17, 0xFF	; 255
    4bcc:	ce 01       	movw	r24, r28
    4bce:	83 96       	adiw	r24, 0x23	; 35
    4bd0:	b8 01       	movw	r22, r16
    4bd2:	40 e0       	ldi	r20, 0x00	; 0
    4bd4:	0e 94 e7 16 	call	0x2dce	; 0x2dce <chk_mounted>
    4bd8:	68 2f       	mov	r22, r24
    4bda:	88 23       	and	r24, r24
    4bdc:	d9 f5       	brne	.+118    	; 0x4c54 <f_chdir+0xaa>
    4bde:	ce 01       	movw	r24, r28
    4be0:	01 96       	adiw	r24, 0x01	; 1
    4be2:	9a a3       	std	Y+34, r25	; 0x22
    4be4:	89 a3       	std	Y+33, r24	; 0x21
    4be6:	6b a1       	ldd	r22, Y+35	; 0x23
    4be8:	7c a1       	ldd	r23, Y+36	; 0x24
    4bea:	c8 01       	movw	r24, r16
    4bec:	0e 94 0a 23 	call	0x4614	; 0x4614 <follow_path>
    4bf0:	68 2f       	mov	r22, r24
    4bf2:	88 23       	and	r24, r24
    4bf4:	61 f5       	brne	.+88     	; 0x4c4e <f_chdir+0xa4>
    4bf6:	2f 8d       	ldd	r18, Y+31	; 0x1f
    4bf8:	38 a1       	ldd	r19, Y+32	; 0x20
    4bfa:	21 15       	cp	r18, r1
    4bfc:	31 05       	cpc	r19, r1
    4bfe:	39 f4       	brne	.+14     	; 0x4c0e <f_chdir+0x64>
    4c00:	ed 85       	ldd	r30, Y+13	; 0x0d
    4c02:	fe 85       	ldd	r31, Y+14	; 0x0e
    4c04:	8b 89       	ldd	r24, Y+19	; 0x13
    4c06:	9c 89       	ldd	r25, Y+20	; 0x14
    4c08:	ad 89       	ldd	r26, Y+21	; 0x15
    4c0a:	be 89       	ldd	r27, Y+22	; 0x16
    4c0c:	1b c0       	rjmp	.+54     	; 0x4c44 <f_chdir+0x9a>
    4c0e:	d9 01       	movw	r26, r18
    4c10:	1b 96       	adiw	r26, 0x0b	; 11
    4c12:	8c 91       	ld	r24, X
    4c14:	1b 97       	sbiw	r26, 0x0b	; 11
    4c16:	84 ff       	sbrs	r24, 4
    4c18:	1c c0       	rjmp	.+56     	; 0x4c52 <f_chdir+0xa8>
    4c1a:	0d 85       	ldd	r16, Y+13	; 0x0d
    4c1c:	1e 85       	ldd	r17, Y+14	; 0x0e
    4c1e:	54 96       	adiw	r26, 0x14	; 20
    4c20:	8d 91       	ld	r24, X+
    4c22:	9c 91       	ld	r25, X
    4c24:	55 97       	sbiw	r26, 0x15	; 21
    4c26:	a0 e0       	ldi	r26, 0x00	; 0
    4c28:	b0 e0       	ldi	r27, 0x00	; 0
    4c2a:	dc 01       	movw	r26, r24
    4c2c:	99 27       	eor	r25, r25
    4c2e:	88 27       	eor	r24, r24
    4c30:	f9 01       	movw	r30, r18
    4c32:	22 8d       	ldd	r18, Z+26	; 0x1a
    4c34:	33 8d       	ldd	r19, Z+27	; 0x1b
    4c36:	40 e0       	ldi	r20, 0x00	; 0
    4c38:	50 e0       	ldi	r21, 0x00	; 0
    4c3a:	82 2b       	or	r24, r18
    4c3c:	93 2b       	or	r25, r19
    4c3e:	a4 2b       	or	r26, r20
    4c40:	b5 2b       	or	r27, r21
    4c42:	f8 01       	movw	r30, r16
    4c44:	86 8b       	std	Z+22, r24	; 0x16
    4c46:	97 8b       	std	Z+23, r25	; 0x17
    4c48:	a0 8f       	std	Z+24, r26	; 0x18
    4c4a:	b1 8f       	std	Z+25, r27	; 0x19
    4c4c:	03 c0       	rjmp	.+6      	; 0x4c54 <f_chdir+0xaa>
    4c4e:	84 30       	cpi	r24, 0x04	; 4
    4c50:	09 f4       	brne	.+2      	; 0x4c54 <f_chdir+0xaa>
    4c52:	65 e0       	ldi	r22, 0x05	; 5
    4c54:	86 2f       	mov	r24, r22
    4c56:	a4 96       	adiw	r28, 0x24	; 36
    4c58:	0f b6       	in	r0, 0x3f	; 63
    4c5a:	f8 94       	cli
    4c5c:	de bf       	out	0x3e, r29	; 62
    4c5e:	0f be       	out	0x3f, r0	; 63
    4c60:	cd bf       	out	0x3d, r28	; 61
    4c62:	cf 91       	pop	r28
    4c64:	df 91       	pop	r29
    4c66:	1f 91       	pop	r17
    4c68:	0f 91       	pop	r16
    4c6a:	08 95       	ret

00004c6c <dir_register>:
    4c6c:	1f 93       	push	r17
    4c6e:	cf 93       	push	r28
    4c70:	df 93       	push	r29
    4c72:	ec 01       	movw	r28, r24
    4c74:	60 e0       	ldi	r22, 0x00	; 0
    4c76:	70 e0       	ldi	r23, 0x00	; 0
    4c78:	0e 94 9d 1c 	call	0x393a	; 0x393a <dir_sdi>
    4c7c:	18 2f       	mov	r17, r24
    4c7e:	88 23       	and	r24, r24
    4c80:	81 f5       	brne	.+96     	; 0x4ce2 <dir_register+0x76>
    4c82:	4e 85       	ldd	r20, Y+14	; 0x0e
    4c84:	5f 85       	ldd	r21, Y+15	; 0x0f
    4c86:	68 89       	ldd	r22, Y+16	; 0x10
    4c88:	79 89       	ldd	r23, Y+17	; 0x11
    4c8a:	88 81       	ld	r24, Y
    4c8c:	99 81       	ldd	r25, Y+1	; 0x01
    4c8e:	0e 94 8f 19 	call	0x331e	; 0x331e <move_window>
    4c92:	18 2f       	mov	r17, r24
    4c94:	88 23       	and	r24, r24
    4c96:	29 f5       	brne	.+74     	; 0x4ce2 <dir_register+0x76>
    4c98:	ea 89       	ldd	r30, Y+18	; 0x12
    4c9a:	fb 89       	ldd	r31, Y+19	; 0x13
    4c9c:	e0 81       	ld	r30, Z
    4c9e:	e5 3e       	cpi	r30, 0xE5	; 229
    4ca0:	29 f1       	breq	.+74     	; 0x4cec <dir_register+0x80>
    4ca2:	ee 23       	and	r30, r30
    4ca4:	19 f1       	breq	.+70     	; 0x4cec <dir_register+0x80>
    4ca6:	ce 01       	movw	r24, r28
    4ca8:	61 e0       	ldi	r22, 0x01	; 1
    4caa:	70 e0       	ldi	r23, 0x00	; 0
    4cac:	0e 94 8d 21 	call	0x431a	; 0x431a <dir_next>
    4cb0:	e5 cf       	rjmp	.-54     	; 0x4c7c <dir_register+0x10>
    4cb2:	4a 89       	ldd	r20, Y+18	; 0x12
    4cb4:	5b 89       	ldd	r21, Y+19	; 0x13
    4cb6:	ca 01       	movw	r24, r20
    4cb8:	fc 01       	movw	r30, r24
    4cba:	80 e2       	ldi	r24, 0x20	; 32
    4cbc:	90 e0       	ldi	r25, 0x00	; 0
    4cbe:	01 c0       	rjmp	.+2      	; 0x4cc2 <dir_register+0x56>
    4cc0:	11 92       	st	Z+, r1
    4cc2:	01 97       	sbiw	r24, 0x01	; 1
    4cc4:	2f ef       	ldi	r18, 0xFF	; 255
    4cc6:	8f 3f       	cpi	r24, 0xFF	; 255
    4cc8:	92 07       	cpc	r25, r18
    4cca:	d1 f7       	brne	.-12     	; 0x4cc0 <dir_register+0x54>
    4ccc:	6c 89       	ldd	r22, Y+20	; 0x14
    4cce:	7d 89       	ldd	r23, Y+21	; 0x15
    4cd0:	ca 01       	movw	r24, r20
    4cd2:	4b e0       	ldi	r20, 0x0B	; 11
    4cd4:	50 e0       	ldi	r21, 0x00	; 0
    4cd6:	0e 94 ef 10 	call	0x21de	; 0x21de <mem_cpy>
    4cda:	e8 81       	ld	r30, Y
    4cdc:	f9 81       	ldd	r31, Y+1	; 0x01
    4cde:	81 e0       	ldi	r24, 0x01	; 1
    4ce0:	84 83       	std	Z+4, r24	; 0x04
    4ce2:	81 2f       	mov	r24, r17
    4ce4:	df 91       	pop	r29
    4ce6:	cf 91       	pop	r28
    4ce8:	1f 91       	pop	r17
    4cea:	08 95       	ret
    4cec:	4e 85       	ldd	r20, Y+14	; 0x0e
    4cee:	5f 85       	ldd	r21, Y+15	; 0x0f
    4cf0:	68 89       	ldd	r22, Y+16	; 0x10
    4cf2:	79 89       	ldd	r23, Y+17	; 0x11
    4cf4:	88 81       	ld	r24, Y
    4cf6:	99 81       	ldd	r25, Y+1	; 0x01
    4cf8:	0e 94 8f 19 	call	0x331e	; 0x331e <move_window>
    4cfc:	18 2f       	mov	r17, r24
    4cfe:	88 23       	and	r24, r24
    4d00:	c1 f2       	breq	.-80     	; 0x4cb2 <dir_register+0x46>
    4d02:	ef cf       	rjmp	.-34     	; 0x4ce2 <dir_register+0x76>

00004d04 <f_rename>:
    4d04:	af 92       	push	r10
    4d06:	bf 92       	push	r11
    4d08:	cf 92       	push	r12
    4d0a:	df 92       	push	r13
    4d0c:	ef 92       	push	r14
    4d0e:	ff 92       	push	r15
    4d10:	0f 93       	push	r16
    4d12:	1f 93       	push	r17
    4d14:	df 93       	push	r29
    4d16:	cf 93       	push	r28
    4d18:	cd b7       	in	r28, 0x3d	; 61
    4d1a:	de b7       	in	r29, 0x3e	; 62
    4d1c:	cf 54       	subi	r28, 0x4F	; 79
    4d1e:	d0 40       	sbci	r29, 0x00	; 0
    4d20:	0f b6       	in	r0, 0x3f	; 63
    4d22:	f8 94       	cli
    4d24:	de bf       	out	0x3e, r29	; 62
    4d26:	0f be       	out	0x3f, r0	; 63
    4d28:	cd bf       	out	0x3d, r28	; 61
    4d2a:	8e 01       	movw	r16, r28
    4d2c:	02 5b       	subi	r16, 0xB2	; 178
    4d2e:	1f 4f       	sbci	r17, 0xFF	; 255
    4d30:	d8 01       	movw	r26, r16
    4d32:	8d 93       	st	X+, r24
    4d34:	9c 93       	st	X, r25
    4d36:	6b 01       	movw	r12, r22
    4d38:	42 e2       	ldi	r20, 0x22	; 34
    4d3a:	e4 2e       	mov	r14, r20
    4d3c:	f1 2c       	mov	r15, r1
    4d3e:	ec 0e       	add	r14, r28
    4d40:	fd 1e       	adc	r15, r29
    4d42:	c8 01       	movw	r24, r16
    4d44:	b7 01       	movw	r22, r14
    4d46:	41 e0       	ldi	r20, 0x01	; 1
    4d48:	0e 94 e7 16 	call	0x2dce	; 0x2dce <chk_mounted>
    4d4c:	88 23       	and	r24, r24
    4d4e:	09 f0       	breq	.+2      	; 0x4d52 <f_rename+0x4e>
    4d50:	f3 c0       	rjmp	.+486    	; 0x4f38 <f_rename+0x234>
    4d52:	8a a1       	ldd	r24, Y+34	; 0x22
    4d54:	9b a1       	ldd	r25, Y+35	; 0x23
    4d56:	99 af       	std	Y+57, r25	; 0x39
    4d58:	88 af       	std	Y+56, r24	; 0x38
    4d5a:	ce 01       	movw	r24, r28
    4d5c:	01 96       	adiw	r24, 0x01	; 1
    4d5e:	9f ab       	std	Y+55, r25	; 0x37
    4d60:	8e ab       	std	Y+54, r24	; 0x36
    4d62:	f8 01       	movw	r30, r16
    4d64:	60 81       	ld	r22, Z
    4d66:	71 81       	ldd	r23, Z+1	; 0x01
    4d68:	c7 01       	movw	r24, r14
    4d6a:	0e 94 0a 23 	call	0x4614	; 0x4614 <follow_path>
    4d6e:	88 23       	and	r24, r24
    4d70:	09 f0       	breq	.+2      	; 0x4d74 <f_rename+0x70>
    4d72:	e2 c0       	rjmp	.+452    	; 0x4f38 <f_rename+0x234>
    4d74:	ee a9       	ldd	r30, Y+54	; 0x36
    4d76:	ff a9       	ldd	r31, Y+55	; 0x37
    4d78:	83 85       	ldd	r24, Z+11	; 0x0b
    4d7a:	85 ff       	sbrs	r24, 5
    4d7c:	02 c0       	rjmp	.+4      	; 0x4d82 <f_rename+0x7e>
    4d7e:	86 e0       	ldi	r24, 0x06	; 6
    4d80:	db c0       	rjmp	.+438    	; 0x4f38 <f_rename+0x234>
    4d82:	6c a9       	ldd	r22, Y+52	; 0x34
    4d84:	7d a9       	ldd	r23, Y+53	; 0x35
    4d86:	61 15       	cp	r22, r1
    4d88:	71 05       	cpc	r23, r1
    4d8a:	11 f4       	brne	.+4      	; 0x4d90 <f_rename+0x8c>
    4d8c:	84 e0       	ldi	r24, 0x04	; 4
    4d8e:	d4 c0       	rjmp	.+424    	; 0x4f38 <f_rename+0x234>
    4d90:	65 5f       	subi	r22, 0xF5	; 245
    4d92:	7f 4f       	sbci	r23, 0xFF	; 255
    4d94:	ce 01       	movw	r24, r28
    4d96:	0d 96       	adiw	r24, 0x0d	; 13
    4d98:	45 e1       	ldi	r20, 0x15	; 21
    4d9a:	50 e0       	ldi	r21, 0x00	; 0
    4d9c:	0e 94 ef 10 	call	0x21de	; 0x21de <mem_cpy>
    4da0:	8e 01       	movw	r16, r28
    4da2:	08 5c       	subi	r16, 0xC8	; 200
    4da4:	1f 4f       	sbci	r17, 0xFF	; 255
    4da6:	c8 01       	movw	r24, r16
    4da8:	b7 01       	movw	r22, r14
    4daa:	46 e1       	ldi	r20, 0x16	; 22
    4dac:	50 e0       	ldi	r21, 0x00	; 0
    4dae:	0e 94 ef 10 	call	0x21de	; 0x21de <mem_cpy>
    4db2:	c8 01       	movw	r24, r16
    4db4:	b6 01       	movw	r22, r12
    4db6:	0e 94 0a 23 	call	0x4614	; 0x4614 <follow_path>
    4dba:	88 23       	and	r24, r24
    4dbc:	11 f4       	brne	.+4      	; 0x4dc2 <f_rename+0xbe>
    4dbe:	88 e0       	ldi	r24, 0x08	; 8
    4dc0:	bb c0       	rjmp	.+374    	; 0x4f38 <f_rename+0x234>
    4dc2:	84 30       	cpi	r24, 0x04	; 4
    4dc4:	09 f0       	breq	.+2      	; 0x4dc8 <f_rename+0xc4>
    4dc6:	b8 c0       	rjmp	.+368    	; 0x4f38 <f_rename+0x234>
    4dc8:	c8 01       	movw	r24, r16
    4dca:	0e 94 36 26 	call	0x4c6c	; 0x4c6c <dir_register>
    4dce:	88 23       	and	r24, r24
    4dd0:	09 f0       	breq	.+2      	; 0x4dd4 <f_rename+0xd0>
    4dd2:	b2 c0       	rjmp	.+356    	; 0x4f38 <f_rename+0x234>
    4dd4:	fe 01       	movw	r30, r28
    4dd6:	e6 5b       	subi	r30, 0xB6	; 182
    4dd8:	ff 4f       	sbci	r31, 0xFF	; 255
    4dda:	c0 80       	ld	r12, Z
    4ddc:	d1 80       	ldd	r13, Z+1	; 0x01
    4dde:	c6 01       	movw	r24, r12
    4de0:	0d 96       	adiw	r24, 0x0d	; 13
    4de2:	be 01       	movw	r22, r28
    4de4:	61 5f       	subi	r22, 0xF1	; 241
    4de6:	7f 4f       	sbci	r23, 0xFF	; 255
    4de8:	43 e1       	ldi	r20, 0x13	; 19
    4dea:	50 e0       	ldi	r21, 0x00	; 0
    4dec:	0e 94 ef 10 	call	0x21de	; 0x21de <mem_cpy>
    4df0:	8d 85       	ldd	r24, Y+13	; 0x0d
    4df2:	80 62       	ori	r24, 0x20	; 32
    4df4:	d6 01       	movw	r26, r12
    4df6:	1b 96       	adiw	r26, 0x0b	; 11
    4df8:	8c 93       	st	X, r24
    4dfa:	ea a1       	ldd	r30, Y+34	; 0x22
    4dfc:	fb a1       	ldd	r31, Y+35	; 0x23
    4dfe:	81 e0       	ldi	r24, 0x01	; 1
    4e00:	84 83       	std	Z+4, r24	; 0x04
    4e02:	28 a5       	ldd	r18, Y+40	; 0x28
    4e04:	39 a5       	ldd	r19, Y+41	; 0x29
    4e06:	4a a5       	ldd	r20, Y+42	; 0x2a
    4e08:	5b a5       	ldd	r21, Y+43	; 0x2b
    4e0a:	fe 01       	movw	r30, r28
    4e0c:	fe 96       	adiw	r30, 0x3e	; 62
    4e0e:	80 81       	ld	r24, Z
    4e10:	91 81       	ldd	r25, Z+1	; 0x01
    4e12:	a2 81       	ldd	r26, Z+2	; 0x02
    4e14:	b3 81       	ldd	r27, Z+3	; 0x03
    4e16:	28 17       	cp	r18, r24
    4e18:	39 07       	cpc	r19, r25
    4e1a:	4a 07       	cpc	r20, r26
    4e1c:	5b 07       	cpc	r21, r27
    4e1e:	09 f4       	brne	.+2      	; 0x4e22 <f_rename+0x11e>
    4e20:	7f c0       	rjmp	.+254    	; 0x4f20 <f_rename+0x21c>
    4e22:	f6 01       	movw	r30, r12
    4e24:	83 85       	ldd	r24, Z+11	; 0x0b
    4e26:	84 ff       	sbrs	r24, 4
    4e28:	7b c0       	rjmp	.+246    	; 0x4f20 <f_rename+0x21c>
    4e2a:	a8 ac       	ldd	r10, Y+56	; 0x38
    4e2c:	b9 ac       	ldd	r11, Y+57	; 0x39
    4e2e:	84 89       	ldd	r24, Z+20	; 0x14
    4e30:	95 89       	ldd	r25, Z+21	; 0x15
    4e32:	a0 e0       	ldi	r26, 0x00	; 0
    4e34:	b0 e0       	ldi	r27, 0x00	; 0
    4e36:	8c 01       	movw	r16, r24
    4e38:	ff 24       	eor	r15, r15
    4e3a:	ee 24       	eor	r14, r14
    4e3c:	82 8d       	ldd	r24, Z+26	; 0x1a
    4e3e:	93 8d       	ldd	r25, Z+27	; 0x1b
    4e40:	a0 e0       	ldi	r26, 0x00	; 0
    4e42:	b0 e0       	ldi	r27, 0x00	; 0
    4e44:	e8 2a       	or	r14, r24
    4e46:	f9 2a       	or	r15, r25
    4e48:	0a 2b       	or	r16, r26
    4e4a:	1b 2b       	or	r17, r27
    4e4c:	8e ef       	ldi	r24, 0xFE	; 254
    4e4e:	9f ef       	ldi	r25, 0xFF	; 255
    4e50:	af ef       	ldi	r26, 0xFF	; 255
    4e52:	bf ef       	ldi	r27, 0xFF	; 255
    4e54:	e8 0e       	add	r14, r24
    4e56:	f9 1e       	adc	r15, r25
    4e58:	0a 1f       	adc	r16, r26
    4e5a:	1b 1f       	adc	r17, r27
    4e5c:	f5 01       	movw	r30, r10
    4e5e:	82 8d       	ldd	r24, Z+26	; 0x1a
    4e60:	93 8d       	ldd	r25, Z+27	; 0x1b
    4e62:	a4 8d       	ldd	r26, Z+28	; 0x1c
    4e64:	b5 8d       	ldd	r27, Z+29	; 0x1d
    4e66:	02 97       	sbiw	r24, 0x02	; 2
    4e68:	a1 09       	sbc	r26, r1
    4e6a:	b1 09       	sbc	r27, r1
    4e6c:	e8 16       	cp	r14, r24
    4e6e:	f9 06       	cpc	r15, r25
    4e70:	0a 07       	cpc	r16, r26
    4e72:	1b 07       	cpc	r17, r27
    4e74:	08 f0       	brcs	.+2      	; 0x4e78 <f_rename+0x174>
    4e76:	5f c0       	rjmp	.+190    	; 0x4f36 <f_rename+0x232>
    4e78:	22 81       	ldd	r18, Z+2	; 0x02
    4e7a:	30 e0       	ldi	r19, 0x00	; 0
    4e7c:	40 e0       	ldi	r20, 0x00	; 0
    4e7e:	50 e0       	ldi	r21, 0x00	; 0
    4e80:	c8 01       	movw	r24, r16
    4e82:	b7 01       	movw	r22, r14
    4e84:	0e 94 cf 35 	call	0x6b9e	; 0x6b9e <__mulsi3>
    4e88:	ab 01       	movw	r20, r22
    4e8a:	bc 01       	movw	r22, r24
    4e8c:	f5 01       	movw	r30, r10
    4e8e:	82 a5       	ldd	r24, Z+42	; 0x2a
    4e90:	93 a5       	ldd	r25, Z+43	; 0x2b
    4e92:	a4 a5       	ldd	r26, Z+44	; 0x2c
    4e94:	b5 a5       	ldd	r27, Z+45	; 0x2d
    4e96:	48 0f       	add	r20, r24
    4e98:	59 1f       	adc	r21, r25
    4e9a:	6a 1f       	adc	r22, r26
    4e9c:	7b 1f       	adc	r23, r27
    4e9e:	41 15       	cp	r20, r1
    4ea0:	51 05       	cpc	r21, r1
    4ea2:	61 05       	cpc	r22, r1
    4ea4:	71 05       	cpc	r23, r1
    4ea6:	09 f4       	brne	.+2      	; 0x4eaa <f_rename+0x1a6>
    4ea8:	46 c0       	rjmp	.+140    	; 0x4f36 <f_rename+0x232>
    4eaa:	c5 01       	movw	r24, r10
    4eac:	0e 94 8f 19 	call	0x331e	; 0x331e <move_window>
    4eb0:	08 ad       	ldd	r16, Y+56	; 0x38
    4eb2:	19 ad       	ldd	r17, Y+57	; 0x39
    4eb4:	88 23       	and	r24, r24
    4eb6:	09 f0       	breq	.+2      	; 0x4eba <f_rename+0x1b6>
    4eb8:	3f c0       	rjmp	.+126    	; 0x4f38 <f_rename+0x234>
    4eba:	b8 01       	movw	r22, r16
    4ebc:	6e 5a       	subi	r22, 0xAE	; 174
    4ebe:	7f 4f       	sbci	r23, 0xFF	; 255
    4ec0:	db 01       	movw	r26, r22
    4ec2:	11 96       	adiw	r26, 0x01	; 1
    4ec4:	8c 91       	ld	r24, X
    4ec6:	8e 32       	cpi	r24, 0x2E	; 46
    4ec8:	59 f5       	brne	.+86     	; 0x4f20 <f_rename+0x21c>
    4eca:	f8 01       	movw	r30, r16
    4ecc:	80 81       	ld	r24, Z
    4ece:	83 30       	cpi	r24, 0x03	; 3
    4ed0:	a9 f4       	brne	.+42     	; 0x4efc <f_rename+0x1f8>
    4ed2:	fe 01       	movw	r30, r28
    4ed4:	fe 96       	adiw	r30, 0x3e	; 62
    4ed6:	20 81       	ld	r18, Z
    4ed8:	31 81       	ldd	r19, Z+1	; 0x01
    4eda:	42 81       	ldd	r20, Z+2	; 0x02
    4edc:	53 81       	ldd	r21, Z+3	; 0x03
    4ede:	f8 01       	movw	r30, r16
    4ee0:	86 a1       	ldd	r24, Z+38	; 0x26
    4ee2:	97 a1       	ldd	r25, Z+39	; 0x27
    4ee4:	a0 a5       	ldd	r26, Z+40	; 0x28
    4ee6:	b1 a5       	ldd	r27, Z+41	; 0x29
    4ee8:	28 17       	cp	r18, r24
    4eea:	39 07       	cpc	r19, r25
    4eec:	4a 07       	cpc	r20, r26
    4eee:	5b 07       	cpc	r21, r27
    4ef0:	29 f4       	brne	.+10     	; 0x4efc <f_rename+0x1f8>
    4ef2:	80 e0       	ldi	r24, 0x00	; 0
    4ef4:	90 e0       	ldi	r25, 0x00	; 0
    4ef6:	a0 e0       	ldi	r26, 0x00	; 0
    4ef8:	b0 e0       	ldi	r27, 0x00	; 0
    4efa:	06 c0       	rjmp	.+12     	; 0x4f08 <f_rename+0x204>
    4efc:	fe 01       	movw	r30, r28
    4efe:	fe 96       	adiw	r30, 0x3e	; 62
    4f00:	80 81       	ld	r24, Z
    4f02:	91 81       	ldd	r25, Z+1	; 0x01
    4f04:	a2 81       	ldd	r26, Z+2	; 0x02
    4f06:	b3 81       	ldd	r27, Z+3	; 0x03
    4f08:	fb 01       	movw	r30, r22
    4f0a:	93 8f       	std	Z+27, r25	; 0x1b
    4f0c:	82 8f       	std	Z+26, r24	; 0x1a
    4f0e:	cd 01       	movw	r24, r26
    4f10:	aa 27       	eor	r26, r26
    4f12:	bb 27       	eor	r27, r27
    4f14:	95 8b       	std	Z+21, r25	; 0x15
    4f16:	84 8b       	std	Z+20, r24	; 0x14
    4f18:	81 e0       	ldi	r24, 0x01	; 1
    4f1a:	d8 01       	movw	r26, r16
    4f1c:	14 96       	adiw	r26, 0x04	; 4
    4f1e:	8c 93       	st	X, r24
    4f20:	ce 01       	movw	r24, r28
    4f22:	82 96       	adiw	r24, 0x22	; 34
    4f24:	0e 94 6c 21 	call	0x42d8	; 0x42d8 <dir_remove>
    4f28:	88 23       	and	r24, r24
    4f2a:	31 f4       	brne	.+12     	; 0x4f38 <f_rename+0x234>
    4f2c:	8a a1       	ldd	r24, Y+34	; 0x22
    4f2e:	9b a1       	ldd	r25, Y+35	; 0x23
    4f30:	0e 94 08 1a 	call	0x3410	; 0x3410 <sync>
    4f34:	01 c0       	rjmp	.+2      	; 0x4f38 <f_rename+0x234>
    4f36:	82 e0       	ldi	r24, 0x02	; 2
    4f38:	c1 5b       	subi	r28, 0xB1	; 177
    4f3a:	df 4f       	sbci	r29, 0xFF	; 255
    4f3c:	0f b6       	in	r0, 0x3f	; 63
    4f3e:	f8 94       	cli
    4f40:	de bf       	out	0x3e, r29	; 62
    4f42:	0f be       	out	0x3f, r0	; 63
    4f44:	cd bf       	out	0x3d, r28	; 61
    4f46:	cf 91       	pop	r28
    4f48:	df 91       	pop	r29
    4f4a:	1f 91       	pop	r17
    4f4c:	0f 91       	pop	r16
    4f4e:	ff 90       	pop	r15
    4f50:	ef 90       	pop	r14
    4f52:	df 90       	pop	r13
    4f54:	cf 90       	pop	r12
    4f56:	bf 90       	pop	r11
    4f58:	af 90       	pop	r10
    4f5a:	08 95       	ret

00004f5c <dir_read>:
    4f5c:	cf 93       	push	r28
    4f5e:	df 93       	push	r29
    4f60:	ec 01       	movw	r28, r24
    4f62:	94 e0       	ldi	r25, 0x04	; 4
    4f64:	19 c0       	rjmp	.+50     	; 0x4f98 <dir_read+0x3c>
    4f66:	88 81       	ld	r24, Y
    4f68:	99 81       	ldd	r25, Y+1	; 0x01
    4f6a:	0e 94 8f 19 	call	0x331e	; 0x331e <move_window>
    4f6e:	98 2f       	mov	r25, r24
    4f70:	88 23       	and	r24, r24
    4f72:	e9 f4       	brne	.+58     	; 0x4fae <dir_read+0x52>
    4f74:	ea 89       	ldd	r30, Y+18	; 0x12
    4f76:	fb 89       	ldd	r31, Y+19	; 0x13
    4f78:	80 81       	ld	r24, Z
    4f7a:	88 23       	and	r24, r24
    4f7c:	01 f1       	breq	.+64     	; 0x4fbe <dir_read+0x62>
    4f7e:	85 3e       	cpi	r24, 0xE5	; 229
    4f80:	19 f0       	breq	.+6      	; 0x4f88 <dir_read+0x2c>
    4f82:	83 85       	ldd	r24, Z+11	; 0x0b
    4f84:	83 ff       	sbrs	r24, 3
    4f86:	17 c0       	rjmp	.+46     	; 0x4fb6 <dir_read+0x5a>
    4f88:	ce 01       	movw	r24, r28
    4f8a:	60 e0       	ldi	r22, 0x00	; 0
    4f8c:	70 e0       	ldi	r23, 0x00	; 0
    4f8e:	0e 94 8d 21 	call	0x431a	; 0x431a <dir_next>
    4f92:	98 2f       	mov	r25, r24
    4f94:	88 23       	and	r24, r24
    4f96:	59 f4       	brne	.+22     	; 0x4fae <dir_read+0x52>
    4f98:	4e 85       	ldd	r20, Y+14	; 0x0e
    4f9a:	5f 85       	ldd	r21, Y+15	; 0x0f
    4f9c:	68 89       	ldd	r22, Y+16	; 0x10
    4f9e:	79 89       	ldd	r23, Y+17	; 0x11
    4fa0:	41 15       	cp	r20, r1
    4fa2:	51 05       	cpc	r21, r1
    4fa4:	61 05       	cpc	r22, r1
    4fa6:	71 05       	cpc	r23, r1
    4fa8:	f1 f6       	brne	.-68     	; 0x4f66 <dir_read+0xa>
    4faa:	99 23       	and	r25, r25
    4fac:	21 f0       	breq	.+8      	; 0x4fb6 <dir_read+0x5a>
    4fae:	1e 86       	std	Y+14, r1	; 0x0e
    4fb0:	1f 86       	std	Y+15, r1	; 0x0f
    4fb2:	18 8a       	std	Y+16, r1	; 0x10
    4fb4:	19 8a       	std	Y+17, r1	; 0x11
    4fb6:	89 2f       	mov	r24, r25
    4fb8:	df 91       	pop	r29
    4fba:	cf 91       	pop	r28
    4fbc:	08 95       	ret
    4fbe:	94 e0       	ldi	r25, 0x04	; 4
    4fc0:	f6 cf       	rjmp	.-20     	; 0x4fae <dir_read+0x52>

00004fc2 <f_readdir>:
    4fc2:	ef 92       	push	r14
    4fc4:	ff 92       	push	r15
    4fc6:	0f 93       	push	r16
    4fc8:	1f 93       	push	r17
    4fca:	df 93       	push	r29
    4fcc:	cf 93       	push	r28
    4fce:	cd b7       	in	r28, 0x3d	; 61
    4fd0:	de b7       	in	r29, 0x3e	; 62
    4fd2:	2c 97       	sbiw	r28, 0x0c	; 12
    4fd4:	0f b6       	in	r0, 0x3f	; 63
    4fd6:	f8 94       	cli
    4fd8:	de bf       	out	0x3e, r29	; 62
    4fda:	0f be       	out	0x3f, r0	; 63
    4fdc:	cd bf       	out	0x3d, r28	; 61
    4fde:	8c 01       	movw	r16, r24
    4fe0:	7b 01       	movw	r14, r22
    4fe2:	fc 01       	movw	r30, r24
    4fe4:	62 81       	ldd	r22, Z+2	; 0x02
    4fe6:	73 81       	ldd	r23, Z+3	; 0x03
    4fe8:	80 81       	ld	r24, Z
    4fea:	91 81       	ldd	r25, Z+1	; 0x01
    4fec:	0e 94 92 16 	call	0x2d24	; 0x2d24 <validate>
    4ff0:	88 23       	and	r24, r24
    4ff2:	61 f5       	brne	.+88     	; 0x504c <f_readdir+0x8a>
    4ff4:	e1 14       	cp	r14, r1
    4ff6:	f1 04       	cpc	r15, r1
    4ff8:	31 f4       	brne	.+12     	; 0x5006 <f_readdir+0x44>
    4ffa:	c8 01       	movw	r24, r16
    4ffc:	60 e0       	ldi	r22, 0x00	; 0
    4ffe:	70 e0       	ldi	r23, 0x00	; 0
    5000:	0e 94 9d 1c 	call	0x393a	; 0x393a <dir_sdi>
    5004:	23 c0       	rjmp	.+70     	; 0x504c <f_readdir+0x8a>
    5006:	ce 01       	movw	r24, r28
    5008:	01 96       	adiw	r24, 0x01	; 1
    500a:	f8 01       	movw	r30, r16
    500c:	95 8b       	std	Z+21, r25	; 0x15
    500e:	84 8b       	std	Z+20, r24	; 0x14
    5010:	c8 01       	movw	r24, r16
    5012:	0e 94 ae 27 	call	0x4f5c	; 0x4f5c <dir_read>
    5016:	84 30       	cpi	r24, 0x04	; 4
    5018:	31 f4       	brne	.+12     	; 0x5026 <f_readdir+0x64>
    501a:	f8 01       	movw	r30, r16
    501c:	16 86       	std	Z+14, r1	; 0x0e
    501e:	17 86       	std	Z+15, r1	; 0x0f
    5020:	10 8a       	std	Z+16, r1	; 0x10
    5022:	11 8a       	std	Z+17, r1	; 0x11
    5024:	02 c0       	rjmp	.+4      	; 0x502a <f_readdir+0x68>
    5026:	88 23       	and	r24, r24
    5028:	89 f4       	brne	.+34     	; 0x504c <f_readdir+0x8a>
    502a:	c8 01       	movw	r24, r16
    502c:	b7 01       	movw	r22, r14
    502e:	0e 94 58 11 	call	0x22b0	; 0x22b0 <get_fileinfo>
    5032:	c8 01       	movw	r24, r16
    5034:	60 e0       	ldi	r22, 0x00	; 0
    5036:	70 e0       	ldi	r23, 0x00	; 0
    5038:	0e 94 8d 21 	call	0x431a	; 0x431a <dir_next>
    503c:	84 30       	cpi	r24, 0x04	; 4
    503e:	31 f4       	brne	.+12     	; 0x504c <f_readdir+0x8a>
    5040:	f8 01       	movw	r30, r16
    5042:	16 86       	std	Z+14, r1	; 0x0e
    5044:	17 86       	std	Z+15, r1	; 0x0f
    5046:	10 8a       	std	Z+16, r1	; 0x10
    5048:	11 8a       	std	Z+17, r1	; 0x11
    504a:	80 e0       	ldi	r24, 0x00	; 0
    504c:	2c 96       	adiw	r28, 0x0c	; 12
    504e:	0f b6       	in	r0, 0x3f	; 63
    5050:	f8 94       	cli
    5052:	de bf       	out	0x3e, r29	; 62
    5054:	0f be       	out	0x3f, r0	; 63
    5056:	cd bf       	out	0x3d, r28	; 61
    5058:	cf 91       	pop	r28
    505a:	df 91       	pop	r29
    505c:	1f 91       	pop	r17
    505e:	0f 91       	pop	r16
    5060:	ff 90       	pop	r15
    5062:	ef 90       	pop	r14
    5064:	08 95       	ret

00005066 <f_getcwd>:
    5066:	3f 92       	push	r3
    5068:	4f 92       	push	r4
    506a:	5f 92       	push	r5
    506c:	6f 92       	push	r6
    506e:	7f 92       	push	r7
    5070:	8f 92       	push	r8
    5072:	9f 92       	push	r9
    5074:	af 92       	push	r10
    5076:	bf 92       	push	r11
    5078:	cf 92       	push	r12
    507a:	df 92       	push	r13
    507c:	ef 92       	push	r14
    507e:	ff 92       	push	r15
    5080:	0f 93       	push	r16
    5082:	1f 93       	push	r17
    5084:	df 93       	push	r29
    5086:	cf 93       	push	r28
    5088:	cd b7       	in	r28, 0x3d	; 61
    508a:	de b7       	in	r29, 0x3e	; 62
    508c:	ea 97       	sbiw	r28, 0x3a	; 58
    508e:	0f b6       	in	r0, 0x3f	; 63
    5090:	f8 94       	cli
    5092:	de bf       	out	0x3e, r29	; 62
    5094:	0f be       	out	0x3f, r0	; 63
    5096:	cd bf       	out	0x3d, r28	; 61
    5098:	fc 01       	movw	r30, r24
    509a:	9a af       	std	Y+58, r25	; 0x3a
    509c:	89 af       	std	Y+57, r24	; 0x39
    509e:	4b 01       	movw	r8, r22
    50a0:	10 82       	st	Z, r1
    50a2:	ad e0       	ldi	r26, 0x0D	; 13
    50a4:	ea 2e       	mov	r14, r26
    50a6:	f1 2c       	mov	r15, r1
    50a8:	ec 0e       	add	r14, r28
    50aa:	fd 1e       	adc	r15, r29
    50ac:	ce 01       	movw	r24, r28
    50ae:	c9 96       	adiw	r24, 0x39	; 57
    50b0:	b7 01       	movw	r22, r14
    50b2:	40 e0       	ldi	r20, 0x00	; 0
    50b4:	0e 94 e7 16 	call	0x2dce	; 0x2dce <chk_mounted>
    50b8:	88 23       	and	r24, r24
    50ba:	11 f0       	breq	.+4      	; 0x50c0 <f_getcwd+0x5a>
    50bc:	98 2f       	mov	r25, r24
    50be:	c6 c0       	rjmp	.+396    	; 0x524c <f_getcwd+0x1e6>
    50c0:	ce 01       	movw	r24, r28
    50c2:	01 96       	adiw	r24, 0x01	; 1
    50c4:	9a a3       	std	Y+34, r25	; 0x22
    50c6:	89 a3       	std	Y+33, r24	; 0x21
    50c8:	ed 85       	ldd	r30, Y+13	; 0x0d
    50ca:	fe 85       	ldd	r31, Y+14	; 0x0e
    50cc:	86 89       	ldd	r24, Z+22	; 0x16
    50ce:	97 89       	ldd	r25, Z+23	; 0x17
    50d0:	a0 8d       	ldd	r26, Z+24	; 0x18
    50d2:	b1 8d       	ldd	r27, Z+25	; 0x19
    50d4:	8b 8b       	std	Y+19, r24	; 0x13
    50d6:	9c 8b       	std	Y+20, r25	; 0x14
    50d8:	ad 8b       	std	Y+21, r26	; 0x15
    50da:	be 8b       	std	Y+22, r27	; 0x16
    50dc:	84 01       	movw	r16, r8
    50de:	57 01       	movw	r10, r14
    50e0:	f3 e2       	ldi	r31, 0x23	; 35
    50e2:	6f 2e       	mov	r6, r31
    50e4:	71 2c       	mov	r7, r1
    50e6:	6c 0e       	add	r6, r28
    50e8:	7d 1e       	adc	r7, r29
    50ea:	ec e2       	ldi	r30, 0x2C	; 44
    50ec:	4e 2e       	mov	r4, r30
    50ee:	51 2c       	mov	r5, r1
    50f0:	4c 0e       	add	r4, r28
    50f2:	5d 1e       	adc	r5, r29
    50f4:	7f e2       	ldi	r23, 0x2F	; 47
    50f6:	37 2e       	mov	r3, r23
    50f8:	7d c0       	rjmp	.+250    	; 0x51f4 <f_getcwd+0x18e>
    50fa:	c5 01       	movw	r24, r10
    50fc:	61 e0       	ldi	r22, 0x01	; 1
    50fe:	70 e0       	ldi	r23, 0x00	; 0
    5100:	0e 94 9d 1c 	call	0x393a	; 0x393a <dir_sdi>
    5104:	98 2f       	mov	r25, r24
    5106:	88 23       	and	r24, r24
    5108:	09 f0       	breq	.+2      	; 0x510c <f_getcwd+0xa6>
    510a:	7f c0       	rjmp	.+254    	; 0x520a <f_getcwd+0x1a4>
    510c:	c5 01       	movw	r24, r10
    510e:	0e 94 ae 27 	call	0x4f5c	; 0x4f5c <dir_read>
    5112:	98 2f       	mov	r25, r24
    5114:	88 23       	and	r24, r24
    5116:	09 f0       	breq	.+2      	; 0x511a <f_getcwd+0xb4>
    5118:	78 c0       	rjmp	.+240    	; 0x520a <f_getcwd+0x1a4>
    511a:	ef 8d       	ldd	r30, Y+31	; 0x1f
    511c:	f8 a1       	ldd	r31, Y+32	; 0x20
    511e:	84 89       	ldd	r24, Z+20	; 0x14
    5120:	95 89       	ldd	r25, Z+21	; 0x15
    5122:	a0 e0       	ldi	r26, 0x00	; 0
    5124:	b0 e0       	ldi	r27, 0x00	; 0
    5126:	dc 01       	movw	r26, r24
    5128:	99 27       	eor	r25, r25
    512a:	88 27       	eor	r24, r24
    512c:	22 8d       	ldd	r18, Z+26	; 0x1a
    512e:	33 8d       	ldd	r19, Z+27	; 0x1b
    5130:	40 e0       	ldi	r20, 0x00	; 0
    5132:	50 e0       	ldi	r21, 0x00	; 0
    5134:	82 2b       	or	r24, r18
    5136:	93 2b       	or	r25, r19
    5138:	a4 2b       	or	r26, r20
    513a:	b5 2b       	or	r27, r21
    513c:	8b 8b       	std	Y+19, r24	; 0x13
    513e:	9c 8b       	std	Y+20, r25	; 0x14
    5140:	ad 8b       	std	Y+21, r26	; 0x15
    5142:	be 8b       	std	Y+22, r27	; 0x16
    5144:	c5 01       	movw	r24, r10
    5146:	60 e0       	ldi	r22, 0x00	; 0
    5148:	70 e0       	ldi	r23, 0x00	; 0
    514a:	0e 94 9d 1c 	call	0x393a	; 0x393a <dir_sdi>
    514e:	98 2f       	mov	r25, r24
    5150:	88 23       	and	r24, r24
    5152:	09 f0       	breq	.+2      	; 0x5156 <f_getcwd+0xf0>
    5154:	5a c0       	rjmp	.+180    	; 0x520a <f_getcwd+0x1a4>
    5156:	c5 01       	movw	r24, r10
    5158:	0e 94 ae 27 	call	0x4f5c	; 0x4f5c <dir_read>
    515c:	98 2f       	mov	r25, r24
    515e:	88 23       	and	r24, r24
    5160:	f9 f4       	brne	.+62     	; 0x51a0 <f_getcwd+0x13a>
    5162:	ef 8d       	ldd	r30, Y+31	; 0x1f
    5164:	f8 a1       	ldd	r31, Y+32	; 0x20
    5166:	84 89       	ldd	r24, Z+20	; 0x14
    5168:	95 89       	ldd	r25, Z+21	; 0x15
    516a:	a0 e0       	ldi	r26, 0x00	; 0
    516c:	b0 e0       	ldi	r27, 0x00	; 0
    516e:	dc 01       	movw	r26, r24
    5170:	99 27       	eor	r25, r25
    5172:	88 27       	eor	r24, r24
    5174:	22 8d       	ldd	r18, Z+26	; 0x1a
    5176:	33 8d       	ldd	r19, Z+27	; 0x1b
    5178:	40 e0       	ldi	r20, 0x00	; 0
    517a:	50 e0       	ldi	r21, 0x00	; 0
    517c:	82 2b       	or	r24, r18
    517e:	93 2b       	or	r25, r19
    5180:	a4 2b       	or	r26, r20
    5182:	b5 2b       	or	r27, r21
    5184:	c8 16       	cp	r12, r24
    5186:	d9 06       	cpc	r13, r25
    5188:	ea 06       	cpc	r14, r26
    518a:	fb 06       	cpc	r15, r27
    518c:	09 f4       	brne	.+2      	; 0x5190 <f_getcwd+0x12a>
    518e:	77 c0       	rjmp	.+238    	; 0x527e <f_getcwd+0x218>
    5190:	c5 01       	movw	r24, r10
    5192:	60 e0       	ldi	r22, 0x00	; 0
    5194:	70 e0       	ldi	r23, 0x00	; 0
    5196:	0e 94 8d 21 	call	0x431a	; 0x431a <dir_next>
    519a:	98 2f       	mov	r25, r24
    519c:	88 23       	and	r24, r24
    519e:	d9 f2       	breq	.-74     	; 0x5156 <f_getcwd+0xf0>
    51a0:	94 30       	cpi	r25, 0x04	; 4
    51a2:	99 f5       	brne	.+102    	; 0x520a <f_getcwd+0x1a4>
    51a4:	92 e0       	ldi	r25, 0x02	; 2
    51a6:	31 c0       	rjmp	.+98     	; 0x520a <f_getcwd+0x1a4>
    51a8:	2f 5f       	subi	r18, 0xFF	; 255
    51aa:	3f 4f       	sbci	r19, 0xFF	; 255
    51ac:	81 91       	ld	r24, Z+
    51ae:	88 23       	and	r24, r24
    51b0:	d9 f7       	brne	.-10     	; 0x51a8 <f_getcwd+0x142>
    51b2:	b9 01       	movw	r22, r18
    51b4:	c9 01       	movw	r24, r18
    51b6:	03 96       	adiw	r24, 0x03	; 3
    51b8:	08 17       	cp	r16, r24
    51ba:	19 07       	cpc	r17, r25
    51bc:	10 f4       	brcc	.+4      	; 0x51c2 <f_getcwd+0x15c>
    51be:	91 e1       	ldi	r25, 0x11	; 17
    51c0:	24 c0       	rjmp	.+72     	; 0x520a <f_getcwd+0x1a4>
    51c2:	a8 01       	movw	r20, r16
    51c4:	0b c0       	rjmp	.+22     	; 0x51dc <f_getcwd+0x176>
    51c6:	41 50       	subi	r20, 0x01	; 1
    51c8:	50 40       	sbci	r21, 0x00	; 0
    51ca:	21 50       	subi	r18, 0x01	; 1
    51cc:	30 40       	sbci	r19, 0x00	; 0
    51ce:	a4 0f       	add	r26, r20
    51d0:	b5 1f       	adc	r27, r21
    51d2:	f9 01       	movw	r30, r18
    51d4:	e6 0d       	add	r30, r6
    51d6:	f7 1d       	adc	r31, r7
    51d8:	81 85       	ldd	r24, Z+9	; 0x09
    51da:	8c 93       	st	X, r24
    51dc:	a9 ad       	ldd	r26, Y+57	; 0x39
    51de:	ba ad       	ldd	r27, Y+58	; 0x3a
    51e0:	21 15       	cp	r18, r1
    51e2:	31 05       	cpc	r19, r1
    51e4:	81 f7       	brne	.-32     	; 0x51c6 <f_getcwd+0x160>
    51e6:	60 95       	com	r22
    51e8:	70 95       	com	r23
    51ea:	06 0f       	add	r16, r22
    51ec:	17 1f       	adc	r17, r23
    51ee:	a0 0f       	add	r26, r16
    51f0:	b1 1f       	adc	r27, r17
    51f2:	3c 92       	st	X, r3
    51f4:	cb 88       	ldd	r12, Y+19	; 0x13
    51f6:	dc 88       	ldd	r13, Y+20	; 0x14
    51f8:	ed 88       	ldd	r14, Y+21	; 0x15
    51fa:	fe 88       	ldd	r15, Y+22	; 0x16
    51fc:	c1 14       	cp	r12, r1
    51fe:	d1 04       	cpc	r13, r1
    5200:	e1 04       	cpc	r14, r1
    5202:	f1 04       	cpc	r15, r1
    5204:	09 f0       	breq	.+2      	; 0x5208 <f_getcwd+0x1a2>
    5206:	79 cf       	rjmp	.-270    	; 0x50fa <f_getcwd+0x94>
    5208:	90 e0       	ldi	r25, 0x00	; 0
    520a:	a9 ad       	ldd	r26, Y+57	; 0x39
    520c:	ba ad       	ldd	r27, Y+58	; 0x3a
    520e:	99 23       	and	r25, r25
    5210:	e1 f4       	brne	.+56     	; 0x524a <f_getcwd+0x1e4>
    5212:	80 91 64 01 	lds	r24, 0x0164
    5216:	80 5d       	subi	r24, 0xD0	; 208
    5218:	fd 01       	movw	r30, r26
    521a:	81 93       	st	Z+, r24
    521c:	8a e3       	ldi	r24, 0x3A	; 58
    521e:	11 96       	adiw	r26, 0x01	; 1
    5220:	8c 93       	st	X, r24
    5222:	df 01       	movw	r26, r30
    5224:	11 96       	adiw	r26, 0x01	; 1
    5226:	08 15       	cp	r16, r8
    5228:	19 05       	cpc	r17, r9
    522a:	21 f4       	brne	.+8      	; 0x5234 <f_getcwd+0x1ce>
    522c:	8f e2       	ldi	r24, 0x2F	; 47
    522e:	81 83       	std	Z+1, r24	; 0x01
    5230:	11 96       	adiw	r26, 0x01	; 1
    5232:	0b c0       	rjmp	.+22     	; 0x524a <f_getcwd+0x1e4>
    5234:	e9 ad       	ldd	r30, Y+57	; 0x39
    5236:	fa ad       	ldd	r31, Y+58	; 0x3a
    5238:	e0 0f       	add	r30, r16
    523a:	f1 1f       	adc	r31, r17
    523c:	80 81       	ld	r24, Z
    523e:	8d 93       	st	X+, r24
    5240:	0f 5f       	subi	r16, 0xFF	; 255
    5242:	1f 4f       	sbci	r17, 0xFF	; 255
    5244:	08 15       	cp	r16, r8
    5246:	19 05       	cpc	r17, r9
    5248:	a8 f3       	brcs	.-22     	; 0x5234 <f_getcwd+0x1ce>
    524a:	1c 92       	st	X, r1
    524c:	89 2f       	mov	r24, r25
    524e:	ea 96       	adiw	r28, 0x3a	; 58
    5250:	0f b6       	in	r0, 0x3f	; 63
    5252:	f8 94       	cli
    5254:	de bf       	out	0x3e, r29	; 62
    5256:	0f be       	out	0x3f, r0	; 63
    5258:	cd bf       	out	0x3d, r28	; 61
    525a:	cf 91       	pop	r28
    525c:	df 91       	pop	r29
    525e:	1f 91       	pop	r17
    5260:	0f 91       	pop	r16
    5262:	ff 90       	pop	r15
    5264:	ef 90       	pop	r14
    5266:	df 90       	pop	r13
    5268:	cf 90       	pop	r12
    526a:	bf 90       	pop	r11
    526c:	af 90       	pop	r10
    526e:	9f 90       	pop	r9
    5270:	8f 90       	pop	r8
    5272:	7f 90       	pop	r7
    5274:	6f 90       	pop	r6
    5276:	5f 90       	pop	r5
    5278:	4f 90       	pop	r4
    527a:	3f 90       	pop	r3
    527c:	08 95       	ret
    527e:	c5 01       	movw	r24, r10
    5280:	b3 01       	movw	r22, r6
    5282:	0e 94 58 11 	call	0x22b0	; 0x22b0 <get_fileinfo>
    5286:	f2 01       	movw	r30, r4
    5288:	20 e0       	ldi	r18, 0x00	; 0
    528a:	30 e0       	ldi	r19, 0x00	; 0
    528c:	8f cf       	rjmp	.-226    	; 0x51ac <f_getcwd+0x146>

0000528e <f_unlink>:
    528e:	cf 92       	push	r12
    5290:	df 92       	push	r13
    5292:	ef 92       	push	r14
    5294:	ff 92       	push	r15
    5296:	0f 93       	push	r16
    5298:	1f 93       	push	r17
    529a:	df 93       	push	r29
    529c:	cf 93       	push	r28
    529e:	cd b7       	in	r28, 0x3d	; 61
    52a0:	de b7       	in	r29, 0x3e	; 62
    52a2:	ea 97       	sbiw	r28, 0x3a	; 58
    52a4:	0f b6       	in	r0, 0x3f	; 63
    52a6:	f8 94       	cli
    52a8:	de bf       	out	0x3e, r29	; 62
    52aa:	0f be       	out	0x3f, r0	; 63
    52ac:	cd bf       	out	0x3d, r28	; 61
    52ae:	9a af       	std	Y+58, r25	; 0x3a
    52b0:	89 af       	std	Y+57, r24	; 0x39
    52b2:	8e 01       	movw	r16, r28
    52b4:	03 5f       	subi	r16, 0xF3	; 243
    52b6:	1f 4f       	sbci	r17, 0xFF	; 255
    52b8:	ce 01       	movw	r24, r28
    52ba:	c9 96       	adiw	r24, 0x39	; 57
    52bc:	b8 01       	movw	r22, r16
    52be:	41 e0       	ldi	r20, 0x01	; 1
    52c0:	0e 94 e7 16 	call	0x2dce	; 0x2dce <chk_mounted>
    52c4:	28 2f       	mov	r18, r24
    52c6:	88 23       	and	r24, r24
    52c8:	09 f0       	breq	.+2      	; 0x52cc <f_unlink+0x3e>
    52ca:	7b c0       	rjmp	.+246    	; 0x53c2 <f_unlink+0x134>
    52cc:	ce 01       	movw	r24, r28
    52ce:	01 96       	adiw	r24, 0x01	; 1
    52d0:	9a a3       	std	Y+34, r25	; 0x22
    52d2:	89 a3       	std	Y+33, r24	; 0x21
    52d4:	69 ad       	ldd	r22, Y+57	; 0x39
    52d6:	7a ad       	ldd	r23, Y+58	; 0x3a
    52d8:	c8 01       	movw	r24, r16
    52da:	0e 94 0a 23 	call	0x4614	; 0x4614 <follow_path>
    52de:	28 2f       	mov	r18, r24
    52e0:	88 23       	and	r24, r24
    52e2:	09 f0       	breq	.+2      	; 0x52e6 <f_unlink+0x58>
    52e4:	6e c0       	rjmp	.+220    	; 0x53c2 <f_unlink+0x134>
    52e6:	e9 a1       	ldd	r30, Y+33	; 0x21
    52e8:	fa a1       	ldd	r31, Y+34	; 0x22
    52ea:	83 85       	ldd	r24, Z+11	; 0x0b
    52ec:	85 ff       	sbrs	r24, 5
    52ee:	02 c0       	rjmp	.+4      	; 0x52f4 <f_unlink+0x66>
    52f0:	26 e0       	ldi	r18, 0x06	; 6
    52f2:	67 c0       	rjmp	.+206    	; 0x53c2 <f_unlink+0x134>
    52f4:	ef 8d       	ldd	r30, Y+31	; 0x1f
    52f6:	f8 a1       	ldd	r31, Y+32	; 0x20
    52f8:	30 97       	sbiw	r30, 0x00	; 0
    52fa:	11 f4       	brne	.+4      	; 0x5300 <f_unlink+0x72>
    52fc:	26 e0       	ldi	r18, 0x06	; 6
    52fe:	03 c0       	rjmp	.+6      	; 0x5306 <f_unlink+0x78>
    5300:	83 85       	ldd	r24, Z+11	; 0x0b
    5302:	80 fd       	sbrc	r24, 0
    5304:	27 e0       	ldi	r18, 0x07	; 7
    5306:	84 89       	ldd	r24, Z+20	; 0x14
    5308:	95 89       	ldd	r25, Z+21	; 0x15
    530a:	42 8d       	ldd	r20, Z+26	; 0x1a
    530c:	53 8d       	ldd	r21, Z+27	; 0x1b
    530e:	22 23       	and	r18, r18
    5310:	09 f0       	breq	.+2      	; 0x5314 <f_unlink+0x86>
    5312:	57 c0       	rjmp	.+174    	; 0x53c2 <f_unlink+0x134>
    5314:	a0 e0       	ldi	r26, 0x00	; 0
    5316:	b0 e0       	ldi	r27, 0x00	; 0
    5318:	8c 01       	movw	r16, r24
    531a:	ff 24       	eor	r15, r15
    531c:	ee 24       	eor	r14, r14
    531e:	ca 01       	movw	r24, r20
    5320:	a0 e0       	ldi	r26, 0x00	; 0
    5322:	b0 e0       	ldi	r27, 0x00	; 0
    5324:	e8 2a       	or	r14, r24
    5326:	f9 2a       	or	r15, r25
    5328:	0a 2b       	or	r16, r26
    532a:	1b 2b       	or	r17, r27
    532c:	83 85       	ldd	r24, Z+11	; 0x0b
    532e:	84 ff       	sbrs	r24, 4
    5330:	5a c0       	rjmp	.+180    	; 0x53e6 <f_unlink+0x158>
    5332:	82 e0       	ldi	r24, 0x02	; 2
    5334:	e8 16       	cp	r14, r24
    5336:	f1 04       	cpc	r15, r1
    5338:	01 05       	cpc	r16, r1
    533a:	11 05       	cpc	r17, r1
    533c:	10 f4       	brcc	.+4      	; 0x5342 <f_unlink+0xb4>
    533e:	22 e0       	ldi	r18, 0x02	; 2
    5340:	40 c0       	rjmp	.+128    	; 0x53c2 <f_unlink+0x134>
    5342:	b3 e2       	ldi	r27, 0x23	; 35
    5344:	cb 2e       	mov	r12, r27
    5346:	d1 2c       	mov	r13, r1
    5348:	cc 0e       	add	r12, r28
    534a:	dd 1e       	adc	r13, r29
    534c:	c6 01       	movw	r24, r12
    534e:	be 01       	movw	r22, r28
    5350:	63 5f       	subi	r22, 0xF3	; 243
    5352:	7f 4f       	sbci	r23, 0xFF	; 255
    5354:	46 e1       	ldi	r20, 0x16	; 22
    5356:	50 e0       	ldi	r21, 0x00	; 0
    5358:	0e 94 ef 10 	call	0x21de	; 0x21de <mem_cpy>
    535c:	e9 a6       	std	Y+41, r14	; 0x29
    535e:	fa a6       	std	Y+42, r15	; 0x2a
    5360:	0b a7       	std	Y+43, r16	; 0x2b
    5362:	1c a7       	std	Y+44, r17	; 0x2c
    5364:	c6 01       	movw	r24, r12
    5366:	62 e0       	ldi	r22, 0x02	; 2
    5368:	70 e0       	ldi	r23, 0x00	; 0
    536a:	0e 94 9d 1c 	call	0x393a	; 0x393a <dir_sdi>
    536e:	28 2f       	mov	r18, r24
    5370:	88 23       	and	r24, r24
    5372:	39 f5       	brne	.+78     	; 0x53c2 <f_unlink+0x134>
    5374:	c6 01       	movw	r24, r12
    5376:	0e 94 ae 27 	call	0x4f5c	; 0x4f5c <dir_read>
    537a:	28 2f       	mov	r18, r24
    537c:	88 23       	and	r24, r24
    537e:	89 f1       	breq	.+98     	; 0x53e2 <f_unlink+0x154>
    5380:	eb a1       	ldd	r30, Y+35	; 0x23
    5382:	fc a1       	ldd	r31, Y+36	; 0x24
    5384:	86 89       	ldd	r24, Z+22	; 0x16
    5386:	97 89       	ldd	r25, Z+23	; 0x17
    5388:	a0 8d       	ldd	r26, Z+24	; 0x18
    538a:	b1 8d       	ldd	r27, Z+25	; 0x19
    538c:	e8 16       	cp	r14, r24
    538e:	f9 06       	cpc	r15, r25
    5390:	0a 07       	cpc	r16, r26
    5392:	1b 07       	cpc	r17, r27
    5394:	31 f1       	breq	.+76     	; 0x53e2 <f_unlink+0x154>
    5396:	24 30       	cpi	r18, 0x04	; 4
    5398:	31 f1       	breq	.+76     	; 0x53e6 <f_unlink+0x158>
    539a:	13 c0       	rjmp	.+38     	; 0x53c2 <f_unlink+0x134>
    539c:	e1 14       	cp	r14, r1
    539e:	f1 04       	cpc	r15, r1
    53a0:	01 05       	cpc	r16, r1
    53a2:	11 05       	cpc	r17, r1
    53a4:	49 f0       	breq	.+18     	; 0x53b8 <f_unlink+0x12a>
    53a6:	8d 85       	ldd	r24, Y+13	; 0x0d
    53a8:	9e 85       	ldd	r25, Y+14	; 0x0e
    53aa:	b8 01       	movw	r22, r16
    53ac:	a7 01       	movw	r20, r14
    53ae:	0e 94 79 1e 	call	0x3cf2	; 0x3cf2 <remove_chain>
    53b2:	28 2f       	mov	r18, r24
    53b4:	88 23       	and	r24, r24
    53b6:	29 f4       	brne	.+10     	; 0x53c2 <f_unlink+0x134>
    53b8:	8d 85       	ldd	r24, Y+13	; 0x0d
    53ba:	9e 85       	ldd	r25, Y+14	; 0x0e
    53bc:	0e 94 08 1a 	call	0x3410	; 0x3410 <sync>
    53c0:	28 2f       	mov	r18, r24
    53c2:	82 2f       	mov	r24, r18
    53c4:	ea 96       	adiw	r28, 0x3a	; 58
    53c6:	0f b6       	in	r0, 0x3f	; 63
    53c8:	f8 94       	cli
    53ca:	de bf       	out	0x3e, r29	; 62
    53cc:	0f be       	out	0x3f, r0	; 63
    53ce:	cd bf       	out	0x3d, r28	; 61
    53d0:	cf 91       	pop	r28
    53d2:	df 91       	pop	r29
    53d4:	1f 91       	pop	r17
    53d6:	0f 91       	pop	r16
    53d8:	ff 90       	pop	r15
    53da:	ef 90       	pop	r14
    53dc:	df 90       	pop	r13
    53de:	cf 90       	pop	r12
    53e0:	08 95       	ret
    53e2:	27 e0       	ldi	r18, 0x07	; 7
    53e4:	ee cf       	rjmp	.-36     	; 0x53c2 <f_unlink+0x134>
    53e6:	ce 01       	movw	r24, r28
    53e8:	0d 96       	adiw	r24, 0x0d	; 13
    53ea:	0e 94 6c 21 	call	0x42d8	; 0x42d8 <dir_remove>
    53ee:	28 2f       	mov	r18, r24
    53f0:	88 23       	and	r24, r24
    53f2:	a1 f2       	breq	.-88     	; 0x539c <f_unlink+0x10e>
    53f4:	e6 cf       	rjmp	.-52     	; 0x53c2 <f_unlink+0x134>

000053f6 <f_write>:
    53f6:	2f 92       	push	r2
    53f8:	3f 92       	push	r3
    53fa:	4f 92       	push	r4
    53fc:	5f 92       	push	r5
    53fe:	6f 92       	push	r6
    5400:	7f 92       	push	r7
    5402:	8f 92       	push	r8
    5404:	9f 92       	push	r9
    5406:	af 92       	push	r10
    5408:	bf 92       	push	r11
    540a:	cf 92       	push	r12
    540c:	df 92       	push	r13
    540e:	ef 92       	push	r14
    5410:	ff 92       	push	r15
    5412:	0f 93       	push	r16
    5414:	1f 93       	push	r17
    5416:	df 93       	push	r29
    5418:	cf 93       	push	r28
    541a:	00 d0       	rcall	.+0      	; 0x541c <f_write+0x26>
    541c:	00 d0       	rcall	.+0      	; 0x541e <f_write+0x28>
    541e:	cd b7       	in	r28, 0x3d	; 61
    5420:	de b7       	in	r29, 0x3e	; 62
    5422:	9c 83       	std	Y+4, r25	; 0x04
    5424:	8b 83       	std	Y+3, r24	; 0x03
    5426:	16 2f       	mov	r17, r22
    5428:	07 2f       	mov	r16, r23
    542a:	3a 01       	movw	r6, r20
    542c:	3a 83       	std	Y+2, r19	; 0x02
    542e:	29 83       	std	Y+1, r18	; 0x01
    5430:	d9 01       	movw	r26, r18
    5432:	1d 92       	st	X+, r1
    5434:	1c 92       	st	X, r1
    5436:	fc 01       	movw	r30, r24
    5438:	62 81       	ldd	r22, Z+2	; 0x02
    543a:	73 81       	ldd	r23, Z+3	; 0x03
    543c:	80 81       	ld	r24, Z
    543e:	91 81       	ldd	r25, Z+1	; 0x01
    5440:	0e 94 92 16 	call	0x2d24	; 0x2d24 <validate>
    5444:	88 2e       	mov	r8, r24
    5446:	88 23       	and	r24, r24
    5448:	09 f0       	breq	.+2      	; 0x544c <f_write+0x56>
    544a:	f3 c1       	rjmp	.+998    	; 0x5832 <f_write+0x43c>
    544c:	ab 81       	ldd	r26, Y+3	; 0x03
    544e:	bc 81       	ldd	r27, Y+4	; 0x04
    5450:	14 96       	adiw	r26, 0x04	; 4
    5452:	8c 91       	ld	r24, X
    5454:	87 fd       	sbrc	r24, 7
    5456:	7f c0       	rjmp	.+254    	; 0x5556 <f_write+0x160>
    5458:	81 fd       	sbrc	r24, 1
    545a:	03 c0       	rjmp	.+6      	; 0x5462 <f_write+0x6c>
    545c:	77 e0       	ldi	r23, 0x07	; 7
    545e:	87 2e       	mov	r8, r23
    5460:	e8 c1       	rjmp	.+976    	; 0x5832 <f_write+0x43c>
    5462:	eb 81       	ldd	r30, Y+3	; 0x03
    5464:	fc 81       	ldd	r31, Y+4	; 0x04
    5466:	22 85       	ldd	r18, Z+10	; 0x0a
    5468:	33 85       	ldd	r19, Z+11	; 0x0b
    546a:	44 85       	ldd	r20, Z+12	; 0x0c
    546c:	55 85       	ldd	r21, Z+13	; 0x0d
    546e:	c3 01       	movw	r24, r6
    5470:	a0 e0       	ldi	r26, 0x00	; 0
    5472:	b0 e0       	ldi	r27, 0x00	; 0
    5474:	82 0f       	add	r24, r18
    5476:	93 1f       	adc	r25, r19
    5478:	a4 1f       	adc	r26, r20
    547a:	b5 1f       	adc	r27, r21
    547c:	82 17       	cp	r24, r18
    547e:	93 07       	cpc	r25, r19
    5480:	a4 07       	cpc	r26, r20
    5482:	b5 07       	cpc	r27, r21
    5484:	10 f4       	brcc	.+4      	; 0x548a <f_write+0x94>
    5486:	66 24       	eor	r6, r6
    5488:	77 24       	eor	r7, r7
    548a:	81 2f       	mov	r24, r17
    548c:	90 2f       	mov	r25, r16
    548e:	9c 01       	movw	r18, r24
    5490:	19 01       	movw	r2, r18
    5492:	44 24       	eor	r4, r4
    5494:	43 94       	inc	r4
    5496:	a8 c1       	rjmp	.+848    	; 0x57e8 <f_write+0x3f2>
    5498:	ab 81       	ldd	r26, Y+3	; 0x03
    549a:	bc 81       	ldd	r27, Y+4	; 0x04
    549c:	16 96       	adiw	r26, 0x06	; 6
    549e:	2d 91       	ld	r18, X+
    54a0:	3d 91       	ld	r19, X+
    54a2:	4d 91       	ld	r20, X+
    54a4:	5c 91       	ld	r21, X
    54a6:	19 97       	sbiw	r26, 0x09	; 9
    54a8:	da 01       	movw	r26, r20
    54aa:	c9 01       	movw	r24, r18
    54ac:	91 70       	andi	r25, 0x01	; 1
    54ae:	a0 70       	andi	r26, 0x00	; 0
    54b0:	b0 70       	andi	r27, 0x00	; 0
    54b2:	00 97       	sbiw	r24, 0x00	; 0
    54b4:	a1 05       	cpc	r26, r1
    54b6:	b1 05       	cpc	r27, r1
    54b8:	09 f0       	breq	.+2      	; 0x54bc <f_write+0xc6>
    54ba:	3c c1       	rjmp	.+632    	; 0x5734 <f_write+0x33e>
    54bc:	ab 81       	ldd	r26, Y+3	; 0x03
    54be:	bc 81       	ldd	r27, Y+4	; 0x04
    54c0:	ed 91       	ld	r30, X+
    54c2:	fc 91       	ld	r31, X
    54c4:	da 01       	movw	r26, r20
    54c6:	c9 01       	movw	r24, r18
    54c8:	69 e0       	ldi	r22, 0x09	; 9
    54ca:	b6 95       	lsr	r27
    54cc:	a7 95       	ror	r26
    54ce:	97 95       	ror	r25
    54d0:	87 95       	ror	r24
    54d2:	6a 95       	dec	r22
    54d4:	d1 f7       	brne	.-12     	; 0x54ca <f_write+0xd4>
    54d6:	92 80       	ldd	r9, Z+2	; 0x02
    54d8:	9a 94       	dec	r9
    54da:	98 22       	and	r9, r24
    54dc:	09 f0       	breq	.+2      	; 0x54e0 <f_write+0xea>
    54de:	4d c0       	rjmp	.+154    	; 0x557a <f_write+0x184>
    54e0:	21 15       	cp	r18, r1
    54e2:	31 05       	cpc	r19, r1
    54e4:	41 05       	cpc	r20, r1
    54e6:	51 05       	cpc	r21, r1
    54e8:	d9 f4       	brne	.+54     	; 0x5520 <f_write+0x12a>
    54ea:	ab 81       	ldd	r26, Y+3	; 0x03
    54ec:	bc 81       	ldd	r27, Y+4	; 0x04
    54ee:	1e 96       	adiw	r26, 0x0e	; 14
    54f0:	6d 91       	ld	r22, X+
    54f2:	7d 91       	ld	r23, X+
    54f4:	8d 91       	ld	r24, X+
    54f6:	9c 91       	ld	r25, X
    54f8:	51 97       	sbiw	r26, 0x11	; 17
    54fa:	61 15       	cp	r22, r1
    54fc:	71 05       	cpc	r23, r1
    54fe:	81 05       	cpc	r24, r1
    5500:	91 05       	cpc	r25, r1
    5502:	f9 f4       	brne	.+62     	; 0x5542 <f_write+0x14c>
    5504:	cf 01       	movw	r24, r30
    5506:	40 e0       	ldi	r20, 0x00	; 0
    5508:	50 e0       	ldi	r21, 0x00	; 0
    550a:	60 e0       	ldi	r22, 0x00	; 0
    550c:	70 e0       	ldi	r23, 0x00	; 0
    550e:	0e 94 99 1d 	call	0x3b32	; 0x3b32 <create_chain>
    5512:	eb 81       	ldd	r30, Y+3	; 0x03
    5514:	fc 81       	ldd	r31, Y+4	; 0x04
    5516:	66 87       	std	Z+14, r22	; 0x0e
    5518:	77 87       	std	Z+15, r23	; 0x0f
    551a:	80 8b       	std	Z+16, r24	; 0x10
    551c:	91 8b       	std	Z+17, r25	; 0x11
    551e:	0b c0       	rjmp	.+22     	; 0x5536 <f_write+0x140>
    5520:	ab 81       	ldd	r26, Y+3	; 0x03
    5522:	bc 81       	ldd	r27, Y+4	; 0x04
    5524:	52 96       	adiw	r26, 0x12	; 18
    5526:	4d 91       	ld	r20, X+
    5528:	5d 91       	ld	r21, X+
    552a:	6d 91       	ld	r22, X+
    552c:	7c 91       	ld	r23, X
    552e:	55 97       	sbiw	r26, 0x15	; 21
    5530:	cf 01       	movw	r24, r30
    5532:	0e 94 99 1d 	call	0x3b32	; 0x3b32 <create_chain>
    5536:	61 15       	cp	r22, r1
    5538:	71 05       	cpc	r23, r1
    553a:	81 05       	cpc	r24, r1
    553c:	91 05       	cpc	r25, r1
    553e:	09 f4       	brne	.+2      	; 0x5542 <f_write+0x14c>
    5540:	57 c1       	rjmp	.+686    	; 0x57f0 <f_write+0x3fa>
    5542:	61 30       	cpi	r22, 0x01	; 1
    5544:	71 05       	cpc	r23, r1
    5546:	81 05       	cpc	r24, r1
    5548:	91 05       	cpc	r25, r1
    554a:	41 f4       	brne	.+16     	; 0x555c <f_write+0x166>
    554c:	eb 81       	ldd	r30, Y+3	; 0x03
    554e:	fc 81       	ldd	r31, Y+4	; 0x04
    5550:	84 81       	ldd	r24, Z+4	; 0x04
    5552:	80 68       	ori	r24, 0x80	; 128
    5554:	84 83       	std	Z+4, r24	; 0x04
    5556:	32 e0       	ldi	r19, 0x02	; 2
    5558:	83 2e       	mov	r8, r19
    555a:	6b c1       	rjmp	.+726    	; 0x5832 <f_write+0x43c>
    555c:	6f 3f       	cpi	r22, 0xFF	; 255
    555e:	ff ef       	ldi	r31, 0xFF	; 255
    5560:	7f 07       	cpc	r23, r31
    5562:	ff ef       	ldi	r31, 0xFF	; 255
    5564:	8f 07       	cpc	r24, r31
    5566:	ff ef       	ldi	r31, 0xFF	; 255
    5568:	9f 07       	cpc	r25, r31
    556a:	09 f4       	brne	.+2      	; 0x556e <f_write+0x178>
    556c:	cc c0       	rjmp	.+408    	; 0x5706 <f_write+0x310>
    556e:	eb 81       	ldd	r30, Y+3	; 0x03
    5570:	fc 81       	ldd	r31, Y+4	; 0x04
    5572:	62 8b       	std	Z+18, r22	; 0x12
    5574:	73 8b       	std	Z+19, r23	; 0x13
    5576:	84 8b       	std	Z+20, r24	; 0x14
    5578:	95 8b       	std	Z+21, r25	; 0x15
    557a:	ab 81       	ldd	r26, Y+3	; 0x03
    557c:	bc 81       	ldd	r27, Y+4	; 0x04
    557e:	ed 91       	ld	r30, X+
    5580:	fc 91       	ld	r31, X
    5582:	11 97       	sbiw	r26, 0x01	; 1
    5584:	26 a5       	ldd	r18, Z+46	; 0x2e
    5586:	37 a5       	ldd	r19, Z+47	; 0x2f
    5588:	40 a9       	ldd	r20, Z+48	; 0x30
    558a:	51 a9       	ldd	r21, Z+49	; 0x31
    558c:	56 96       	adiw	r26, 0x16	; 22
    558e:	ed 90       	ld	r14, X+
    5590:	fd 90       	ld	r15, X+
    5592:	0d 91       	ld	r16, X+
    5594:	1c 91       	ld	r17, X
    5596:	59 97       	sbiw	r26, 0x19	; 25
    5598:	2e 15       	cp	r18, r14
    559a:	3f 05       	cpc	r19, r15
    559c:	40 07       	cpc	r20, r16
    559e:	51 07       	cpc	r21, r17
    55a0:	51 f4       	brne	.+20     	; 0x55b6 <f_write+0x1c0>
    55a2:	cf 01       	movw	r24, r30
    55a4:	40 e0       	ldi	r20, 0x00	; 0
    55a6:	50 e0       	ldi	r21, 0x00	; 0
    55a8:	60 e0       	ldi	r22, 0x00	; 0
    55aa:	70 e0       	ldi	r23, 0x00	; 0
    55ac:	0e 94 8f 19 	call	0x331e	; 0x331e <move_window>
    55b0:	88 23       	and	r24, r24
    55b2:	09 f0       	breq	.+2      	; 0x55b6 <f_write+0x1c0>
    55b4:	d3 c0       	rjmp	.+422    	; 0x575c <f_write+0x366>
    55b6:	ab 81       	ldd	r26, Y+3	; 0x03
    55b8:	bc 81       	ldd	r27, Y+4	; 0x04
    55ba:	0d 91       	ld	r16, X+
    55bc:	1c 91       	ld	r17, X
    55be:	11 97       	sbiw	r26, 0x01	; 1
    55c0:	52 96       	adiw	r26, 0x12	; 18
    55c2:	2d 91       	ld	r18, X+
    55c4:	3d 91       	ld	r19, X+
    55c6:	4d 91       	ld	r20, X+
    55c8:	5c 91       	ld	r21, X
    55ca:	55 97       	sbiw	r26, 0x15	; 21
    55cc:	22 50       	subi	r18, 0x02	; 2
    55ce:	30 40       	sbci	r19, 0x00	; 0
    55d0:	40 40       	sbci	r20, 0x00	; 0
    55d2:	50 40       	sbci	r21, 0x00	; 0
    55d4:	f8 01       	movw	r30, r16
    55d6:	82 8d       	ldd	r24, Z+26	; 0x1a
    55d8:	93 8d       	ldd	r25, Z+27	; 0x1b
    55da:	a4 8d       	ldd	r26, Z+28	; 0x1c
    55dc:	b5 8d       	ldd	r27, Z+29	; 0x1d
    55de:	02 97       	sbiw	r24, 0x02	; 2
    55e0:	a1 09       	sbc	r26, r1
    55e2:	b1 09       	sbc	r27, r1
    55e4:	28 17       	cp	r18, r24
    55e6:	39 07       	cpc	r19, r25
    55e8:	4a 07       	cpc	r20, r26
    55ea:	5b 07       	cpc	r21, r27
    55ec:	b8 f4       	brcc	.+46     	; 0x561c <f_write+0x226>
    55ee:	52 80       	ldd	r5, Z+2	; 0x02
    55f0:	65 2d       	mov	r22, r5
    55f2:	70 e0       	ldi	r23, 0x00	; 0
    55f4:	80 e0       	ldi	r24, 0x00	; 0
    55f6:	90 e0       	ldi	r25, 0x00	; 0
    55f8:	0e 94 cf 35 	call	0x6b9e	; 0x6b9e <__mulsi3>
    55fc:	9b 01       	movw	r18, r22
    55fe:	ac 01       	movw	r20, r24
    5600:	f8 01       	movw	r30, r16
    5602:	82 a5       	ldd	r24, Z+42	; 0x2a
    5604:	93 a5       	ldd	r25, Z+43	; 0x2b
    5606:	a4 a5       	ldd	r26, Z+44	; 0x2c
    5608:	b5 a5       	ldd	r27, Z+45	; 0x2d
    560a:	28 0f       	add	r18, r24
    560c:	39 1f       	adc	r19, r25
    560e:	4a 1f       	adc	r20, r26
    5610:	5b 1f       	adc	r21, r27
    5612:	21 15       	cp	r18, r1
    5614:	31 05       	cpc	r19, r1
    5616:	41 05       	cpc	r20, r1
    5618:	51 05       	cpc	r21, r1
    561a:	49 f4       	brne	.+18     	; 0x562e <f_write+0x238>
    561c:	ab 81       	ldd	r26, Y+3	; 0x03
    561e:	bc 81       	ldd	r27, Y+4	; 0x04
    5620:	14 96       	adiw	r26, 0x04	; 4
    5622:	8c 91       	ld	r24, X
    5624:	14 97       	sbiw	r26, 0x04	; 4
    5626:	80 68       	ori	r24, 0x80	; 128
    5628:	14 96       	adiw	r26, 0x04	; 4
    562a:	8c 93       	st	X, r24
    562c:	94 cf       	rjmp	.-216    	; 0x5556 <f_write+0x160>
    562e:	69 01       	movw	r12, r18
    5630:	7a 01       	movw	r14, r20
    5632:	c9 0c       	add	r12, r9
    5634:	d1 1c       	adc	r13, r1
    5636:	e1 1c       	adc	r14, r1
    5638:	f1 1c       	adc	r15, r1
    563a:	53 01       	movw	r10, r6
    563c:	ab 2c       	mov	r10, r11
    563e:	bb 24       	eor	r11, r11
    5640:	a6 94       	lsr	r10
    5642:	a1 14       	cp	r10, r1
    5644:	b1 04       	cpc	r11, r1
    5646:	09 f4       	brne	.+2      	; 0x564a <f_write+0x254>
    5648:	46 c0       	rjmp	.+140    	; 0x56d6 <f_write+0x2e0>
    564a:	29 2d       	mov	r18, r9
    564c:	30 e0       	ldi	r19, 0x00	; 0
    564e:	c5 01       	movw	r24, r10
    5650:	82 0f       	add	r24, r18
    5652:	93 1f       	adc	r25, r19
    5654:	65 2d       	mov	r22, r5
    5656:	70 e0       	ldi	r23, 0x00	; 0
    5658:	68 17       	cp	r22, r24
    565a:	79 07       	cpc	r23, r25
    565c:	18 f4       	brcc	.+6      	; 0x5664 <f_write+0x26e>
    565e:	5b 01       	movw	r10, r22
    5660:	a2 1a       	sub	r10, r18
    5662:	b3 0a       	sbc	r11, r19
    5664:	f8 01       	movw	r30, r16
    5666:	81 81       	ldd	r24, Z+1	; 0x01
    5668:	b1 01       	movw	r22, r2
    566a:	a7 01       	movw	r20, r14
    566c:	96 01       	movw	r18, r12
    566e:	0a 2d       	mov	r16, r10
    5670:	0e 94 a1 33 	call	0x6742	; 0x6742 <disk_write>
    5674:	88 23       	and	r24, r24
    5676:	09 f0       	breq	.+2      	; 0x567a <f_write+0x284>
    5678:	46 c0       	rjmp	.+140    	; 0x5706 <f_write+0x310>
    567a:	ab 81       	ldd	r26, Y+3	; 0x03
    567c:	bc 81       	ldd	r27, Y+4	; 0x04
    567e:	ed 91       	ld	r30, X+
    5680:	fc 91       	ld	r31, X
    5682:	26 a5       	ldd	r18, Z+46	; 0x2e
    5684:	37 a5       	ldd	r19, Z+47	; 0x2f
    5686:	40 a9       	ldd	r20, Z+48	; 0x30
    5688:	51 a9       	ldd	r21, Z+49	; 0x31
    568a:	2c 19       	sub	r18, r12
    568c:	3d 09       	sbc	r19, r13
    568e:	4e 09       	sbc	r20, r14
    5690:	5f 09       	sbc	r21, r15
    5692:	c5 01       	movw	r24, r10
    5694:	a0 e0       	ldi	r26, 0x00	; 0
    5696:	b0 e0       	ldi	r27, 0x00	; 0
    5698:	28 17       	cp	r18, r24
    569a:	39 07       	cpc	r19, r25
    569c:	4a 07       	cpc	r20, r26
    569e:	5b 07       	cpc	r21, r27
    56a0:	a8 f4       	brcc	.+42     	; 0x56cc <f_write+0x2d6>
    56a2:	99 e0       	ldi	r25, 0x09	; 9
    56a4:	22 0f       	add	r18, r18
    56a6:	33 1f       	adc	r19, r19
    56a8:	44 1f       	adc	r20, r20
    56aa:	55 1f       	adc	r21, r21
    56ac:	9a 95       	dec	r25
    56ae:	d1 f7       	brne	.-12     	; 0x56a4 <f_write+0x2ae>
    56b0:	b1 01       	movw	r22, r2
    56b2:	62 0f       	add	r22, r18
    56b4:	73 1f       	adc	r23, r19
    56b6:	cf 01       	movw	r24, r30
    56b8:	c2 96       	adiw	r24, 0x32	; 50
    56ba:	40 e0       	ldi	r20, 0x00	; 0
    56bc:	52 e0       	ldi	r21, 0x02	; 2
    56be:	0e 94 ef 10 	call	0x21de	; 0x21de <mem_cpy>
    56c2:	ab 81       	ldd	r26, Y+3	; 0x03
    56c4:	bc 81       	ldd	r27, Y+4	; 0x04
    56c6:	ed 91       	ld	r30, X+
    56c8:	fc 91       	ld	r31, X
    56ca:	14 82       	std	Z+4, r1	; 0x04
    56cc:	85 01       	movw	r16, r10
    56ce:	10 2f       	mov	r17, r16
    56d0:	00 27       	eor	r16, r16
    56d2:	11 0f       	add	r17, r17
    56d4:	6c c0       	rjmp	.+216    	; 0x57ae <f_write+0x3b8>
    56d6:	eb 81       	ldd	r30, Y+3	; 0x03
    56d8:	fc 81       	ldd	r31, Y+4	; 0x04
    56da:	26 81       	ldd	r18, Z+6	; 0x06
    56dc:	37 81       	ldd	r19, Z+7	; 0x07
    56de:	40 85       	ldd	r20, Z+8	; 0x08
    56e0:	51 85       	ldd	r21, Z+9	; 0x09
    56e2:	82 85       	ldd	r24, Z+10	; 0x0a
    56e4:	93 85       	ldd	r25, Z+11	; 0x0b
    56e6:	a4 85       	ldd	r26, Z+12	; 0x0c
    56e8:	b5 85       	ldd	r27, Z+13	; 0x0d
    56ea:	28 17       	cp	r18, r24
    56ec:	39 07       	cpc	r19, r25
    56ee:	4a 07       	cpc	r20, r26
    56f0:	5b 07       	cpc	r21, r27
    56f2:	d0 f0       	brcs	.+52     	; 0x5728 <f_write+0x332>
    56f4:	c8 01       	movw	r24, r16
    56f6:	40 e0       	ldi	r20, 0x00	; 0
    56f8:	50 e0       	ldi	r21, 0x00	; 0
    56fa:	60 e0       	ldi	r22, 0x00	; 0
    56fc:	70 e0       	ldi	r23, 0x00	; 0
    56fe:	0e 94 8f 19 	call	0x331e	; 0x331e <move_window>
    5702:	88 23       	and	r24, r24
    5704:	49 f0       	breq	.+18     	; 0x5718 <f_write+0x322>
    5706:	ab 81       	ldd	r26, Y+3	; 0x03
    5708:	bc 81       	ldd	r27, Y+4	; 0x04
    570a:	14 96       	adiw	r26, 0x04	; 4
    570c:	8c 91       	ld	r24, X
    570e:	14 97       	sbiw	r26, 0x04	; 4
    5710:	80 68       	ori	r24, 0x80	; 128
    5712:	14 96       	adiw	r26, 0x04	; 4
    5714:	8c 93       	st	X, r24
    5716:	27 c0       	rjmp	.+78     	; 0x5766 <f_write+0x370>
    5718:	ab 81       	ldd	r26, Y+3	; 0x03
    571a:	bc 81       	ldd	r27, Y+4	; 0x04
    571c:	ed 91       	ld	r30, X+
    571e:	fc 91       	ld	r31, X
    5720:	c6 a6       	std	Z+46, r12	; 0x2e
    5722:	d7 a6       	std	Z+47, r13	; 0x2f
    5724:	e0 aa       	std	Z+48, r14	; 0x30
    5726:	f1 aa       	std	Z+49, r15	; 0x31
    5728:	eb 81       	ldd	r30, Y+3	; 0x03
    572a:	fc 81       	ldd	r31, Y+4	; 0x04
    572c:	c6 8a       	std	Z+22, r12	; 0x16
    572e:	d7 8a       	std	Z+23, r13	; 0x17
    5730:	e0 8e       	std	Z+24, r14	; 0x18
    5732:	f1 8e       	std	Z+25, r15	; 0x19
    5734:	ab 81       	ldd	r26, Y+3	; 0x03
    5736:	bc 81       	ldd	r27, Y+4	; 0x04
    5738:	16 96       	adiw	r26, 0x06	; 6
    573a:	ed 90       	ld	r14, X+
    573c:	fd 90       	ld	r15, X+
    573e:	0d 91       	ld	r16, X+
    5740:	1c 91       	ld	r17, X
    5742:	19 97       	sbiw	r26, 0x09	; 9
    5744:	56 96       	adiw	r26, 0x16	; 22
    5746:	4d 91       	ld	r20, X+
    5748:	5d 91       	ld	r21, X+
    574a:	6d 91       	ld	r22, X+
    574c:	7c 91       	ld	r23, X
    574e:	59 97       	sbiw	r26, 0x19	; 25
    5750:	8d 91       	ld	r24, X+
    5752:	9c 91       	ld	r25, X
    5754:	0e 94 8f 19 	call	0x331e	; 0x331e <move_window>
    5758:	88 23       	and	r24, r24
    575a:	41 f0       	breq	.+16     	; 0x576c <f_write+0x376>
    575c:	eb 81       	ldd	r30, Y+3	; 0x03
    575e:	fc 81       	ldd	r31, Y+4	; 0x04
    5760:	84 81       	ldd	r24, Z+4	; 0x04
    5762:	80 68       	ori	r24, 0x80	; 128
    5764:	84 83       	std	Z+4, r24	; 0x04
    5766:	88 24       	eor	r8, r8
    5768:	83 94       	inc	r8
    576a:	63 c0       	rjmp	.+198    	; 0x5832 <f_write+0x43c>
    576c:	c7 01       	movw	r24, r14
    576e:	91 70       	andi	r25, 0x01	; 1
    5770:	20 e0       	ldi	r18, 0x00	; 0
    5772:	32 e0       	ldi	r19, 0x02	; 2
    5774:	28 1b       	sub	r18, r24
    5776:	39 0b       	sbc	r19, r25
    5778:	83 01       	movw	r16, r6
    577a:	26 15       	cp	r18, r6
    577c:	37 05       	cpc	r19, r7
    577e:	08 f4       	brcc	.+2      	; 0x5782 <f_write+0x38c>
    5780:	89 01       	movw	r16, r18
    5782:	ab 81       	ldd	r26, Y+3	; 0x03
    5784:	bc 81       	ldd	r27, Y+4	; 0x04
    5786:	16 96       	adiw	r26, 0x06	; 6
    5788:	2d 91       	ld	r18, X+
    578a:	3c 91       	ld	r19, X
    578c:	17 97       	sbiw	r26, 0x07	; 7
    578e:	31 70       	andi	r19, 0x01	; 1
    5790:	2e 5c       	subi	r18, 0xCE	; 206
    5792:	3f 4f       	sbci	r19, 0xFF	; 255
    5794:	8d 91       	ld	r24, X+
    5796:	9c 91       	ld	r25, X
    5798:	82 0f       	add	r24, r18
    579a:	93 1f       	adc	r25, r19
    579c:	b1 01       	movw	r22, r2
    579e:	a8 01       	movw	r20, r16
    57a0:	0e 94 ef 10 	call	0x21de	; 0x21de <mem_cpy>
    57a4:	ab 81       	ldd	r26, Y+3	; 0x03
    57a6:	bc 81       	ldd	r27, Y+4	; 0x04
    57a8:	ed 91       	ld	r30, X+
    57aa:	fc 91       	ld	r31, X
    57ac:	44 82       	std	Z+4, r4	; 0x04
    57ae:	20 0e       	add	r2, r16
    57b0:	31 1e       	adc	r3, r17
    57b2:	c8 01       	movw	r24, r16
    57b4:	a0 e0       	ldi	r26, 0x00	; 0
    57b6:	b0 e0       	ldi	r27, 0x00	; 0
    57b8:	eb 81       	ldd	r30, Y+3	; 0x03
    57ba:	fc 81       	ldd	r31, Y+4	; 0x04
    57bc:	26 81       	ldd	r18, Z+6	; 0x06
    57be:	37 81       	ldd	r19, Z+7	; 0x07
    57c0:	40 85       	ldd	r20, Z+8	; 0x08
    57c2:	51 85       	ldd	r21, Z+9	; 0x09
    57c4:	28 0f       	add	r18, r24
    57c6:	39 1f       	adc	r19, r25
    57c8:	4a 1f       	adc	r20, r26
    57ca:	5b 1f       	adc	r21, r27
    57cc:	26 83       	std	Z+6, r18	; 0x06
    57ce:	37 83       	std	Z+7, r19	; 0x07
    57d0:	40 87       	std	Z+8, r20	; 0x08
    57d2:	51 87       	std	Z+9, r21	; 0x09
    57d4:	e9 81       	ldd	r30, Y+1	; 0x01
    57d6:	fa 81       	ldd	r31, Y+2	; 0x02
    57d8:	80 81       	ld	r24, Z
    57da:	91 81       	ldd	r25, Z+1	; 0x01
    57dc:	80 0f       	add	r24, r16
    57de:	91 1f       	adc	r25, r17
    57e0:	91 83       	std	Z+1, r25	; 0x01
    57e2:	80 83       	st	Z, r24
    57e4:	60 1a       	sub	r6, r16
    57e6:	71 0a       	sbc	r7, r17
    57e8:	61 14       	cp	r6, r1
    57ea:	71 04       	cpc	r7, r1
    57ec:	09 f0       	breq	.+2      	; 0x57f0 <f_write+0x3fa>
    57ee:	54 ce       	rjmp	.-856    	; 0x5498 <f_write+0xa2>
    57f0:	ab 81       	ldd	r26, Y+3	; 0x03
    57f2:	bc 81       	ldd	r27, Y+4	; 0x04
    57f4:	16 96       	adiw	r26, 0x06	; 6
    57f6:	2d 91       	ld	r18, X+
    57f8:	3d 91       	ld	r19, X+
    57fa:	4d 91       	ld	r20, X+
    57fc:	5c 91       	ld	r21, X
    57fe:	19 97       	sbiw	r26, 0x09	; 9
    5800:	1a 96       	adiw	r26, 0x0a	; 10
    5802:	8d 91       	ld	r24, X+
    5804:	9d 91       	ld	r25, X+
    5806:	0d 90       	ld	r0, X+
    5808:	bc 91       	ld	r27, X
    580a:	a0 2d       	mov	r26, r0
    580c:	82 17       	cp	r24, r18
    580e:	93 07       	cpc	r25, r19
    5810:	a4 07       	cpc	r26, r20
    5812:	b5 07       	cpc	r27, r21
    5814:	30 f4       	brcc	.+12     	; 0x5822 <f_write+0x42c>
    5816:	eb 81       	ldd	r30, Y+3	; 0x03
    5818:	fc 81       	ldd	r31, Y+4	; 0x04
    581a:	22 87       	std	Z+10, r18	; 0x0a
    581c:	33 87       	std	Z+11, r19	; 0x0b
    581e:	44 87       	std	Z+12, r20	; 0x0c
    5820:	55 87       	std	Z+13, r21	; 0x0d
    5822:	ab 81       	ldd	r26, Y+3	; 0x03
    5824:	bc 81       	ldd	r27, Y+4	; 0x04
    5826:	14 96       	adiw	r26, 0x04	; 4
    5828:	8c 91       	ld	r24, X
    582a:	14 97       	sbiw	r26, 0x04	; 4
    582c:	80 62       	ori	r24, 0x20	; 32
    582e:	14 96       	adiw	r26, 0x04	; 4
    5830:	8c 93       	st	X, r24
    5832:	88 2d       	mov	r24, r8
    5834:	0f 90       	pop	r0
    5836:	0f 90       	pop	r0
    5838:	0f 90       	pop	r0
    583a:	0f 90       	pop	r0
    583c:	cf 91       	pop	r28
    583e:	df 91       	pop	r29
    5840:	1f 91       	pop	r17
    5842:	0f 91       	pop	r16
    5844:	ff 90       	pop	r15
    5846:	ef 90       	pop	r14
    5848:	df 90       	pop	r13
    584a:	cf 90       	pop	r12
    584c:	bf 90       	pop	r11
    584e:	af 90       	pop	r10
    5850:	9f 90       	pop	r9
    5852:	8f 90       	pop	r8
    5854:	7f 90       	pop	r7
    5856:	6f 90       	pop	r6
    5858:	5f 90       	pop	r5
    585a:	4f 90       	pop	r4
    585c:	3f 90       	pop	r3
    585e:	2f 90       	pop	r2
    5860:	08 95       	ret

00005862 <f_mkdir>:
    5862:	2f 92       	push	r2
    5864:	3f 92       	push	r3
    5866:	4f 92       	push	r4
    5868:	5f 92       	push	r5
    586a:	6f 92       	push	r6
    586c:	7f 92       	push	r7
    586e:	8f 92       	push	r8
    5870:	9f 92       	push	r9
    5872:	af 92       	push	r10
    5874:	bf 92       	push	r11
    5876:	cf 92       	push	r12
    5878:	df 92       	push	r13
    587a:	ef 92       	push	r14
    587c:	ff 92       	push	r15
    587e:	0f 93       	push	r16
    5880:	1f 93       	push	r17
    5882:	df 93       	push	r29
    5884:	cf 93       	push	r28
    5886:	cd b7       	in	r28, 0x3d	; 61
    5888:	de b7       	in	r29, 0x3e	; 62
    588a:	aa 97       	sbiw	r28, 0x2a	; 42
    588c:	0f b6       	in	r0, 0x3f	; 63
    588e:	f8 94       	cli
    5890:	de bf       	out	0x3e, r29	; 62
    5892:	0f be       	out	0x3f, r0	; 63
    5894:	cd bf       	out	0x3d, r28	; 61
    5896:	9c a3       	std	Y+36, r25	; 0x24
    5898:	8b a3       	std	Y+35, r24	; 0x23
    589a:	0e 94 8b 02 	call	0x516	; 0x516 <get_fattime>
    589e:	6d a3       	std	Y+37, r22	; 0x25
    58a0:	7e a3       	std	Y+38, r23	; 0x26
    58a2:	8f a3       	std	Y+39, r24	; 0x27
    58a4:	98 a7       	std	Y+40, r25	; 0x28
    58a6:	2d e0       	ldi	r18, 0x0D	; 13
    58a8:	e2 2e       	mov	r14, r18
    58aa:	f1 2c       	mov	r15, r1
    58ac:	ec 0e       	add	r14, r28
    58ae:	fd 1e       	adc	r15, r29
    58b0:	ce 01       	movw	r24, r28
    58b2:	83 96       	adiw	r24, 0x23	; 35
    58b4:	b7 01       	movw	r22, r14
    58b6:	41 e0       	ldi	r20, 0x01	; 1
    58b8:	0e 94 e7 16 	call	0x2dce	; 0x2dce <chk_mounted>
    58bc:	18 2f       	mov	r17, r24
    58be:	88 23       	and	r24, r24
    58c0:	09 f0       	breq	.+2      	; 0x58c4 <f_mkdir+0x62>
    58c2:	26 c1       	rjmp	.+588    	; 0x5b10 <f_mkdir+0x2ae>
    58c4:	ce 01       	movw	r24, r28
    58c6:	01 96       	adiw	r24, 0x01	; 1
    58c8:	9a a3       	std	Y+34, r25	; 0x22
    58ca:	89 a3       	std	Y+33, r24	; 0x21
    58cc:	6b a1       	ldd	r22, Y+35	; 0x23
    58ce:	7c a1       	ldd	r23, Y+36	; 0x24
    58d0:	c7 01       	movw	r24, r14
    58d2:	0e 94 0a 23 	call	0x4614	; 0x4614 <follow_path>
    58d6:	18 2f       	mov	r17, r24
    58d8:	88 23       	and	r24, r24
    58da:	51 f0       	breq	.+20     	; 0x58f0 <f_mkdir+0x8e>
    58dc:	84 30       	cpi	r24, 0x04	; 4
    58de:	09 f0       	breq	.+2      	; 0x58e2 <f_mkdir+0x80>
    58e0:	17 c1       	rjmp	.+558    	; 0x5b10 <f_mkdir+0x2ae>
    58e2:	e9 a1       	ldd	r30, Y+33	; 0x21
    58e4:	fa a1       	ldd	r31, Y+34	; 0x22
    58e6:	83 85       	ldd	r24, Z+11	; 0x0b
    58e8:	85 ff       	sbrs	r24, 5
    58ea:	04 c0       	rjmp	.+8      	; 0x58f4 <f_mkdir+0x92>
    58ec:	16 e0       	ldi	r17, 0x06	; 6
    58ee:	10 c1       	rjmp	.+544    	; 0x5b10 <f_mkdir+0x2ae>
    58f0:	18 e0       	ldi	r17, 0x08	; 8
    58f2:	0e c1       	rjmp	.+540    	; 0x5b10 <f_mkdir+0x2ae>
    58f4:	8d 85       	ldd	r24, Y+13	; 0x0d
    58f6:	9e 85       	ldd	r25, Y+14	; 0x0e
    58f8:	40 e0       	ldi	r20, 0x00	; 0
    58fa:	50 e0       	ldi	r21, 0x00	; 0
    58fc:	60 e0       	ldi	r22, 0x00	; 0
    58fe:	70 e0       	ldi	r23, 0x00	; 0
    5900:	0e 94 99 1d 	call	0x3b32	; 0x3b32 <create_chain>
    5904:	4b 01       	movw	r8, r22
    5906:	5c 01       	movw	r10, r24
    5908:	61 15       	cp	r22, r1
    590a:	71 05       	cpc	r23, r1
    590c:	81 05       	cpc	r24, r1
    590e:	91 05       	cpc	r25, r1
    5910:	11 f4       	brne	.+4      	; 0x5916 <f_mkdir+0xb4>
    5912:	17 e0       	ldi	r17, 0x07	; 7
    5914:	dc c0       	rjmp	.+440    	; 0x5ace <f_mkdir+0x26c>
    5916:	61 30       	cpi	r22, 0x01	; 1
    5918:	71 05       	cpc	r23, r1
    591a:	81 05       	cpc	r24, r1
    591c:	91 05       	cpc	r25, r1
    591e:	11 f4       	brne	.+4      	; 0x5924 <f_mkdir+0xc2>
    5920:	12 e0       	ldi	r17, 0x02	; 2
    5922:	d5 c0       	rjmp	.+426    	; 0x5ace <f_mkdir+0x26c>
    5924:	6f 3f       	cpi	r22, 0xFF	; 255
    5926:	3f ef       	ldi	r19, 0xFF	; 255
    5928:	73 07       	cpc	r23, r19
    592a:	3f ef       	ldi	r19, 0xFF	; 255
    592c:	83 07       	cpc	r24, r19
    592e:	3f ef       	ldi	r19, 0xFF	; 255
    5930:	93 07       	cpc	r25, r19
    5932:	09 f4       	brne	.+2      	; 0x5936 <f_mkdir+0xd4>
    5934:	07 c1       	rjmp	.+526    	; 0x5b44 <f_mkdir+0x2e2>
    5936:	8d 85       	ldd	r24, Y+13	; 0x0d
    5938:	9e 85       	ldd	r25, Y+14	; 0x0e
    593a:	40 e0       	ldi	r20, 0x00	; 0
    593c:	50 e0       	ldi	r21, 0x00	; 0
    593e:	60 e0       	ldi	r22, 0x00	; 0
    5940:	70 e0       	ldi	r23, 0x00	; 0
    5942:	0e 94 8f 19 	call	0x331e	; 0x331e <move_window>
    5946:	18 2f       	mov	r17, r24
    5948:	88 23       	and	r24, r24
    594a:	09 f0       	breq	.+2      	; 0x594e <f_mkdir+0xec>
    594c:	c0 c0       	rjmp	.+384    	; 0x5ace <f_mkdir+0x26c>
    594e:	cd 84       	ldd	r12, Y+13	; 0x0d
    5950:	de 84       	ldd	r13, Y+14	; 0x0e
    5952:	9e ef       	ldi	r25, 0xFE	; 254
    5954:	e9 2e       	mov	r14, r25
    5956:	9f ef       	ldi	r25, 0xFF	; 255
    5958:	f9 2e       	mov	r15, r25
    595a:	9f ef       	ldi	r25, 0xFF	; 255
    595c:	09 2f       	mov	r16, r25
    595e:	9f ef       	ldi	r25, 0xFF	; 255
    5960:	19 2f       	mov	r17, r25
    5962:	e8 0c       	add	r14, r8
    5964:	f9 1c       	adc	r15, r9
    5966:	0a 1d       	adc	r16, r10
    5968:	1b 1d       	adc	r17, r11
    596a:	f6 01       	movw	r30, r12
    596c:	82 8d       	ldd	r24, Z+26	; 0x1a
    596e:	93 8d       	ldd	r25, Z+27	; 0x1b
    5970:	a4 8d       	ldd	r26, Z+28	; 0x1c
    5972:	b5 8d       	ldd	r27, Z+29	; 0x1d
    5974:	02 97       	sbiw	r24, 0x02	; 2
    5976:	a1 09       	sbc	r26, r1
    5978:	b1 09       	sbc	r27, r1
    597a:	e8 16       	cp	r14, r24
    597c:	f9 06       	cpc	r15, r25
    597e:	0a 07       	cpc	r16, r26
    5980:	1b 07       	cpc	r17, r27
    5982:	20 f0       	brcs	.+8      	; 0x598c <f_mkdir+0x12a>
    5984:	44 24       	eor	r4, r4
    5986:	55 24       	eor	r5, r5
    5988:	32 01       	movw	r6, r4
    598a:	15 c0       	rjmp	.+42     	; 0x59b6 <f_mkdir+0x154>
    598c:	d6 01       	movw	r26, r12
    598e:	12 96       	adiw	r26, 0x02	; 2
    5990:	2c 91       	ld	r18, X
    5992:	30 e0       	ldi	r19, 0x00	; 0
    5994:	40 e0       	ldi	r20, 0x00	; 0
    5996:	50 e0       	ldi	r21, 0x00	; 0
    5998:	c8 01       	movw	r24, r16
    599a:	b7 01       	movw	r22, r14
    599c:	0e 94 cf 35 	call	0x6b9e	; 0x6b9e <__mulsi3>
    59a0:	2b 01       	movw	r4, r22
    59a2:	3c 01       	movw	r6, r24
    59a4:	f6 01       	movw	r30, r12
    59a6:	82 a5       	ldd	r24, Z+42	; 0x2a
    59a8:	93 a5       	ldd	r25, Z+43	; 0x2b
    59aa:	a4 a5       	ldd	r26, Z+44	; 0x2c
    59ac:	b5 a5       	ldd	r27, Z+45	; 0x2d
    59ae:	48 0e       	add	r4, r24
    59b0:	59 1e       	adc	r5, r25
    59b2:	6a 1e       	adc	r6, r26
    59b4:	7b 1e       	adc	r7, r27
    59b6:	82 e3       	ldi	r24, 0x32	; 50
    59b8:	e8 2e       	mov	r14, r24
    59ba:	f1 2c       	mov	r15, r1
    59bc:	ec 0c       	add	r14, r12
    59be:	fd 1c       	adc	r15, r13
    59c0:	f7 01       	movw	r30, r14
    59c2:	80 e0       	ldi	r24, 0x00	; 0
    59c4:	92 e0       	ldi	r25, 0x02	; 2
    59c6:	01 c0       	rjmp	.+2      	; 0x59ca <f_mkdir+0x168>
    59c8:	11 92       	st	Z+, r1
    59ca:	01 97       	sbiw	r24, 0x01	; 1
    59cc:	2f ef       	ldi	r18, 0xFF	; 255
    59ce:	8f 3f       	cpi	r24, 0xFF	; 255
    59d0:	92 07       	cpc	r25, r18
    59d2:	d1 f7       	brne	.-12     	; 0x59c8 <f_mkdir+0x166>
    59d4:	f7 01       	movw	r30, r14
    59d6:	8b e0       	ldi	r24, 0x0B	; 11
    59d8:	90 e0       	ldi	r25, 0x00	; 0
    59da:	20 e2       	ldi	r18, 0x20	; 32
    59dc:	01 c0       	rjmp	.+2      	; 0x59e0 <f_mkdir+0x17e>
    59de:	21 93       	st	Z+, r18
    59e0:	01 97       	sbiw	r24, 0x01	; 1
    59e2:	3f ef       	ldi	r19, 0xFF	; 255
    59e4:	8f 3f       	cpi	r24, 0xFF	; 255
    59e6:	93 07       	cpc	r25, r19
    59e8:	d1 f7       	brne	.-12     	; 0x59de <f_mkdir+0x17c>
    59ea:	1e e2       	ldi	r17, 0x2E	; 46
    59ec:	d6 01       	movw	r26, r12
    59ee:	d2 96       	adiw	r26, 0x32	; 50
    59f0:	1c 93       	st	X, r17
    59f2:	d2 97       	sbiw	r26, 0x32	; 50
    59f4:	80 e1       	ldi	r24, 0x10	; 16
    59f6:	dd 96       	adiw	r26, 0x3d	; 61
    59f8:	8c 93       	st	X, r24
    59fa:	8d a1       	ldd	r24, Y+37	; 0x25
    59fc:	9e a1       	ldd	r25, Y+38	; 0x26
    59fe:	af a1       	ldd	r26, Y+39	; 0x27
    5a00:	b8 a5       	ldd	r27, Y+40	; 0x28
    5a02:	f7 01       	movw	r30, r14
    5a04:	86 8b       	std	Z+22, r24	; 0x16
    5a06:	97 8b       	std	Z+23, r25	; 0x17
    5a08:	a0 8f       	std	Z+24, r26	; 0x18
    5a0a:	b1 8f       	std	Z+25, r27	; 0x19
    5a0c:	9a a6       	std	Y+42, r9	; 0x2a
    5a0e:	89 a6       	std	Y+41, r8	; 0x29
    5a10:	93 8e       	std	Z+27, r9	; 0x1b
    5a12:	82 8e       	std	Z+26, r8	; 0x1a
    5a14:	c5 01       	movw	r24, r10
    5a16:	aa 27       	eor	r26, r26
    5a18:	bb 27       	eor	r27, r27
    5a1a:	1c 01       	movw	r2, r24
    5a1c:	95 8b       	std	Z+21, r25	; 0x15
    5a1e:	84 8b       	std	Z+20, r24	; 0x14
    5a20:	c7 01       	movw	r24, r14
    5a22:	80 96       	adiw	r24, 0x20	; 32
    5a24:	b7 01       	movw	r22, r14
    5a26:	40 e2       	ldi	r20, 0x20	; 32
    5a28:	50 e0       	ldi	r21, 0x00	; 0
    5a2a:	0e 94 ef 10 	call	0x21de	; 0x21de <mem_cpy>
    5a2e:	23 e5       	ldi	r18, 0x53	; 83
    5a30:	30 e0       	ldi	r19, 0x00	; 0
    5a32:	c2 0e       	add	r12, r18
    5a34:	d3 1e       	adc	r13, r19
    5a36:	d6 01       	movw	r26, r12
    5a38:	1c 93       	st	X, r17
    5a3a:	2b 89       	ldd	r18, Y+19	; 0x13
    5a3c:	3c 89       	ldd	r19, Y+20	; 0x14
    5a3e:	4d 89       	ldd	r20, Y+21	; 0x15
    5a40:	5e 89       	ldd	r21, Y+22	; 0x16
    5a42:	ed 85       	ldd	r30, Y+13	; 0x0d
    5a44:	fe 85       	ldd	r31, Y+14	; 0x0e
    5a46:	80 81       	ld	r24, Z
    5a48:	83 30       	cpi	r24, 0x03	; 3
    5a4a:	69 f4       	brne	.+26     	; 0x5a66 <f_mkdir+0x204>
    5a4c:	86 a1       	ldd	r24, Z+38	; 0x26
    5a4e:	97 a1       	ldd	r25, Z+39	; 0x27
    5a50:	a0 a5       	ldd	r26, Z+40	; 0x28
    5a52:	b1 a5       	ldd	r27, Z+41	; 0x29
    5a54:	28 17       	cp	r18, r24
    5a56:	39 07       	cpc	r19, r25
    5a58:	4a 07       	cpc	r20, r26
    5a5a:	5b 07       	cpc	r21, r27
    5a5c:	21 f4       	brne	.+8      	; 0x5a66 <f_mkdir+0x204>
    5a5e:	20 e0       	ldi	r18, 0x00	; 0
    5a60:	30 e0       	ldi	r19, 0x00	; 0
    5a62:	40 e0       	ldi	r20, 0x00	; 0
    5a64:	50 e0       	ldi	r21, 0x00	; 0
    5a66:	d7 01       	movw	r26, r14
    5a68:	db 96       	adiw	r26, 0x3b	; 59
    5a6a:	3c 93       	st	X, r19
    5a6c:	2e 93       	st	-X, r18
    5a6e:	da 97       	sbiw	r26, 0x3a	; 58
    5a70:	9a 01       	movw	r18, r20
    5a72:	44 27       	eor	r20, r20
    5a74:	55 27       	eor	r21, r21
    5a76:	d5 96       	adiw	r26, 0x35	; 53
    5a78:	3c 93       	st	X, r19
    5a7a:	2e 93       	st	-X, r18
    5a7c:	d4 97       	sbiw	r26, 0x34	; 52
    5a7e:	02 81       	ldd	r16, Z+2	; 0x02
    5a80:	dd 24       	eor	r13, r13
    5a82:	d3 94       	inc	r13
    5a84:	21 c0       	rjmp	.+66     	; 0x5ac8 <f_mkdir+0x266>
    5a86:	ed 85       	ldd	r30, Y+13	; 0x0d
    5a88:	fe 85       	ldd	r31, Y+14	; 0x0e
    5a8a:	46 a6       	std	Z+46, r4	; 0x2e
    5a8c:	57 a6       	std	Z+47, r5	; 0x2f
    5a8e:	60 aa       	std	Z+48, r6	; 0x30
    5a90:	71 aa       	std	Z+49, r7	; 0x31
    5a92:	d4 82       	std	Z+4, r13	; 0x04
    5a94:	cf 01       	movw	r24, r30
    5a96:	40 e0       	ldi	r20, 0x00	; 0
    5a98:	50 e0       	ldi	r21, 0x00	; 0
    5a9a:	60 e0       	ldi	r22, 0x00	; 0
    5a9c:	70 e0       	ldi	r23, 0x00	; 0
    5a9e:	0e 94 8f 19 	call	0x331e	; 0x331e <move_window>
    5aa2:	18 2f       	mov	r17, r24
    5aa4:	88 23       	and	r24, r24
    5aa6:	99 f4       	brne	.+38     	; 0x5ace <f_mkdir+0x26c>
    5aa8:	f7 01       	movw	r30, r14
    5aaa:	80 e0       	ldi	r24, 0x00	; 0
    5aac:	92 e0       	ldi	r25, 0x02	; 2
    5aae:	01 c0       	rjmp	.+2      	; 0x5ab2 <f_mkdir+0x250>
    5ab0:	11 92       	st	Z+, r1
    5ab2:	01 97       	sbiw	r24, 0x01	; 1
    5ab4:	bf ef       	ldi	r27, 0xFF	; 255
    5ab6:	8f 3f       	cpi	r24, 0xFF	; 255
    5ab8:	9b 07       	cpc	r25, r27
    5aba:	d1 f7       	brne	.-12     	; 0x5ab0 <f_mkdir+0x24e>
    5abc:	08 94       	sec
    5abe:	41 1c       	adc	r4, r1
    5ac0:	51 1c       	adc	r5, r1
    5ac2:	61 1c       	adc	r6, r1
    5ac4:	71 1c       	adc	r7, r1
    5ac6:	01 50       	subi	r16, 0x01	; 1
    5ac8:	00 23       	and	r16, r16
    5aca:	e9 f6       	brne	.-70     	; 0x5a86 <f_mkdir+0x224>
    5acc:	3d c0       	rjmp	.+122    	; 0x5b48 <f_mkdir+0x2e6>
    5ace:	8d 85       	ldd	r24, Y+13	; 0x0d
    5ad0:	9e 85       	ldd	r25, Y+14	; 0x0e
    5ad2:	b5 01       	movw	r22, r10
    5ad4:	a4 01       	movw	r20, r8
    5ad6:	0e 94 79 1e 	call	0x3cf2	; 0x3cf2 <remove_chain>
    5ada:	1a c0       	rjmp	.+52     	; 0x5b10 <f_mkdir+0x2ae>
    5adc:	ef 8d       	ldd	r30, Y+31	; 0x1f
    5ade:	f8 a1       	ldd	r31, Y+32	; 0x20
    5ae0:	80 e1       	ldi	r24, 0x10	; 16
    5ae2:	83 87       	std	Z+11, r24	; 0x0b
    5ae4:	8d a1       	ldd	r24, Y+37	; 0x25
    5ae6:	9e a1       	ldd	r25, Y+38	; 0x26
    5ae8:	af a1       	ldd	r26, Y+39	; 0x27
    5aea:	b8 a5       	ldd	r27, Y+40	; 0x28
    5aec:	86 8b       	std	Z+22, r24	; 0x16
    5aee:	97 8b       	std	Z+23, r25	; 0x17
    5af0:	a0 8f       	std	Z+24, r26	; 0x18
    5af2:	b1 8f       	std	Z+25, r27	; 0x19
    5af4:	a9 a5       	ldd	r26, Y+41	; 0x29
    5af6:	ba a5       	ldd	r27, Y+42	; 0x2a
    5af8:	b3 8f       	std	Z+27, r27	; 0x1b
    5afa:	a2 8f       	std	Z+26, r26	; 0x1a
    5afc:	35 8a       	std	Z+21, r3	; 0x15
    5afe:	24 8a       	std	Z+20, r2	; 0x14
    5b00:	ed 85       	ldd	r30, Y+13	; 0x0d
    5b02:	fe 85       	ldd	r31, Y+14	; 0x0e
    5b04:	81 e0       	ldi	r24, 0x01	; 1
    5b06:	84 83       	std	Z+4, r24	; 0x04
    5b08:	cf 01       	movw	r24, r30
    5b0a:	0e 94 08 1a 	call	0x3410	; 0x3410 <sync>
    5b0e:	18 2f       	mov	r17, r24
    5b10:	81 2f       	mov	r24, r17
    5b12:	aa 96       	adiw	r28, 0x2a	; 42
    5b14:	0f b6       	in	r0, 0x3f	; 63
    5b16:	f8 94       	cli
    5b18:	de bf       	out	0x3e, r29	; 62
    5b1a:	0f be       	out	0x3f, r0	; 63
    5b1c:	cd bf       	out	0x3d, r28	; 61
    5b1e:	cf 91       	pop	r28
    5b20:	df 91       	pop	r29
    5b22:	1f 91       	pop	r17
    5b24:	0f 91       	pop	r16
    5b26:	ff 90       	pop	r15
    5b28:	ef 90       	pop	r14
    5b2a:	df 90       	pop	r13
    5b2c:	cf 90       	pop	r12
    5b2e:	bf 90       	pop	r11
    5b30:	af 90       	pop	r10
    5b32:	9f 90       	pop	r9
    5b34:	8f 90       	pop	r8
    5b36:	7f 90       	pop	r7
    5b38:	6f 90       	pop	r6
    5b3a:	5f 90       	pop	r5
    5b3c:	4f 90       	pop	r4
    5b3e:	3f 90       	pop	r3
    5b40:	2f 90       	pop	r2
    5b42:	08 95       	ret
    5b44:	11 e0       	ldi	r17, 0x01	; 1
    5b46:	c3 cf       	rjmp	.-122    	; 0x5ace <f_mkdir+0x26c>
    5b48:	ce 01       	movw	r24, r28
    5b4a:	0d 96       	adiw	r24, 0x0d	; 13
    5b4c:	0e 94 36 26 	call	0x4c6c	; 0x4c6c <dir_register>
    5b50:	18 2f       	mov	r17, r24
    5b52:	88 23       	and	r24, r24
    5b54:	19 f2       	breq	.-122    	; 0x5adc <f_mkdir+0x27a>
    5b56:	bb cf       	rjmp	.-138    	; 0x5ace <f_mkdir+0x26c>

00005b58 <f_open>:
    5b58:	5f 92       	push	r5
    5b5a:	6f 92       	push	r6
    5b5c:	7f 92       	push	r7
    5b5e:	8f 92       	push	r8
    5b60:	9f 92       	push	r9
    5b62:	af 92       	push	r10
    5b64:	bf 92       	push	r11
    5b66:	cf 92       	push	r12
    5b68:	df 92       	push	r13
    5b6a:	ef 92       	push	r14
    5b6c:	ff 92       	push	r15
    5b6e:	0f 93       	push	r16
    5b70:	1f 93       	push	r17
    5b72:	df 93       	push	r29
    5b74:	cf 93       	push	r28
    5b76:	cd b7       	in	r28, 0x3d	; 61
    5b78:	de b7       	in	r29, 0x3e	; 62
    5b7a:	a4 97       	sbiw	r28, 0x24	; 36
    5b7c:	0f b6       	in	r0, 0x3f	; 63
    5b7e:	f8 94       	cli
    5b80:	de bf       	out	0x3e, r29	; 62
    5b82:	0f be       	out	0x3f, r0	; 63
    5b84:	cd bf       	out	0x3d, r28	; 61
    5b86:	3c 01       	movw	r6, r24
    5b88:	7c a3       	std	Y+36, r23	; 0x24
    5b8a:	6b a3       	std	Y+35, r22	; 0x23
    5b8c:	dc 01       	movw	r26, r24
    5b8e:	1d 92       	st	X+, r1
    5b90:	1c 92       	st	X, r1
    5b92:	5f e1       	ldi	r21, 0x1F	; 31
    5b94:	55 2e       	mov	r5, r21
    5b96:	54 22       	and	r5, r20
    5b98:	8e 01       	movw	r16, r28
    5b9a:	03 5f       	subi	r16, 0xF3	; 243
    5b9c:	1f 4f       	sbci	r17, 0xFF	; 255
    5b9e:	4e 71       	andi	r20, 0x1E	; 30
    5ba0:	ce 01       	movw	r24, r28
    5ba2:	83 96       	adiw	r24, 0x23	; 35
    5ba4:	b8 01       	movw	r22, r16
    5ba6:	0e 94 e7 16 	call	0x2dce	; 0x2dce <chk_mounted>
    5baa:	28 2f       	mov	r18, r24
    5bac:	ce 01       	movw	r24, r28
    5bae:	01 96       	adiw	r24, 0x01	; 1
    5bb0:	9a a3       	std	Y+34, r25	; 0x22
    5bb2:	89 a3       	std	Y+33, r24	; 0x21
    5bb4:	22 23       	and	r18, r18
    5bb6:	31 f4       	brne	.+12     	; 0x5bc4 <f_open+0x6c>
    5bb8:	6b a1       	ldd	r22, Y+35	; 0x23
    5bba:	7c a1       	ldd	r23, Y+36	; 0x24
    5bbc:	c8 01       	movw	r24, r16
    5bbe:	0e 94 0a 23 	call	0x4614	; 0x4614 <follow_path>
    5bc2:	28 2f       	mov	r18, r24
    5bc4:	cf 8c       	ldd	r12, Y+31	; 0x1f
    5bc6:	d8 a0       	ldd	r13, Y+32	; 0x20
    5bc8:	22 23       	and	r18, r18
    5bca:	21 f4       	brne	.+8      	; 0x5bd4 <f_open+0x7c>
    5bcc:	c1 14       	cp	r12, r1
    5bce:	d1 04       	cpc	r13, r1
    5bd0:	09 f4       	brne	.+2      	; 0x5bd4 <f_open+0x7c>
    5bd2:	26 e0       	ldi	r18, 0x06	; 6
    5bd4:	45 2d       	mov	r20, r5
    5bd6:	50 e0       	ldi	r21, 0x00	; 0
    5bd8:	ca 01       	movw	r24, r20
    5bda:	8c 71       	andi	r24, 0x1C	; 28
    5bdc:	90 70       	andi	r25, 0x00	; 0
    5bde:	89 2b       	or	r24, r25
    5be0:	09 f4       	brne	.+2      	; 0x5be4 <f_open+0x8c>
    5be2:	69 c0       	rjmp	.+210    	; 0x5cb6 <f_open+0x15e>
    5be4:	22 23       	and	r18, r18
    5be6:	79 f0       	breq	.+30     	; 0x5c06 <f_open+0xae>
    5be8:	24 30       	cpi	r18, 0x04	; 4
    5bea:	29 f4       	brne	.+10     	; 0x5bf6 <f_open+0x9e>
    5bec:	ce 01       	movw	r24, r28
    5bee:	0d 96       	adiw	r24, 0x0d	; 13
    5bf0:	0e 94 36 26 	call	0x4c6c	; 0x4c6c <dir_register>
    5bf4:	28 2f       	mov	r18, r24
    5bf6:	cf 8c       	ldd	r12, Y+31	; 0x1f
    5bf8:	d8 a0       	ldd	r13, Y+32	; 0x20
    5bfa:	22 23       	and	r18, r18
    5bfc:	09 f0       	breq	.+2      	; 0x5c00 <f_open+0xa8>
    5bfe:	b5 c0       	rjmp	.+362    	; 0x5d6a <f_open+0x212>
    5c00:	b8 e0       	ldi	r27, 0x08	; 8
    5c02:	5b 2a       	or	r5, r27
    5c04:	09 c0       	rjmp	.+18     	; 0x5c18 <f_open+0xc0>
    5c06:	52 fe       	sbrs	r5, 2
    5c08:	02 c0       	rjmp	.+4      	; 0x5c0e <f_open+0xb6>
    5c0a:	28 e0       	ldi	r18, 0x08	; 8
    5c0c:	ae c0       	rjmp	.+348    	; 0x5d6a <f_open+0x212>
    5c0e:	f6 01       	movw	r30, r12
    5c10:	83 85       	ldd	r24, Z+11	; 0x0b
    5c12:	81 71       	andi	r24, 0x11	; 17
    5c14:	09 f0       	breq	.+2      	; 0x5c18 <f_open+0xc0>
    5c16:	c0 c0       	rjmp	.+384    	; 0x5d98 <f_open+0x240>
    5c18:	53 fe       	sbrs	r5, 3
    5c1a:	5b c0       	rjmp	.+182    	; 0x5cd2 <f_open+0x17a>
    5c1c:	0e 94 8b 02 	call	0x516	; 0x516 <get_fattime>
    5c20:	d6 01       	movw	r26, r12
    5c22:	1e 96       	adiw	r26, 0x0e	; 14
    5c24:	6d 93       	st	X+, r22
    5c26:	7d 93       	st	X+, r23
    5c28:	8d 93       	st	X+, r24
    5c2a:	9c 93       	st	X, r25
    5c2c:	51 97       	sbiw	r26, 0x11	; 17
    5c2e:	1b 96       	adiw	r26, 0x0b	; 11
    5c30:	1c 92       	st	X, r1
    5c32:	f6 01       	movw	r30, r12
    5c34:	14 8e       	std	Z+28, r1	; 0x1c
    5c36:	15 8e       	std	Z+29, r1	; 0x1d
    5c38:	16 8e       	std	Z+30, r1	; 0x1e
    5c3a:	17 8e       	std	Z+31, r1	; 0x1f
    5c3c:	84 89       	ldd	r24, Z+20	; 0x14
    5c3e:	95 89       	ldd	r25, Z+21	; 0x15
    5c40:	a0 e0       	ldi	r26, 0x00	; 0
    5c42:	b0 e0       	ldi	r27, 0x00	; 0
    5c44:	8c 01       	movw	r16, r24
    5c46:	ff 24       	eor	r15, r15
    5c48:	ee 24       	eor	r14, r14
    5c4a:	82 8d       	ldd	r24, Z+26	; 0x1a
    5c4c:	93 8d       	ldd	r25, Z+27	; 0x1b
    5c4e:	a0 e0       	ldi	r26, 0x00	; 0
    5c50:	b0 e0       	ldi	r27, 0x00	; 0
    5c52:	e8 2a       	or	r14, r24
    5c54:	f9 2a       	or	r15, r25
    5c56:	0a 2b       	or	r16, r26
    5c58:	1b 2b       	or	r17, r27
    5c5a:	13 8e       	std	Z+27, r1	; 0x1b
    5c5c:	12 8e       	std	Z+26, r1	; 0x1a
    5c5e:	15 8a       	std	Z+21, r1	; 0x15
    5c60:	14 8a       	std	Z+20, r1	; 0x14
    5c62:	ed 85       	ldd	r30, Y+13	; 0x0d
    5c64:	fe 85       	ldd	r31, Y+14	; 0x0e
    5c66:	81 e0       	ldi	r24, 0x01	; 1
    5c68:	84 83       	std	Z+4, r24	; 0x04
    5c6a:	e1 14       	cp	r14, r1
    5c6c:	f1 04       	cpc	r15, r1
    5c6e:	01 05       	cpc	r16, r1
    5c70:	11 05       	cpc	r17, r1
    5c72:	79 f1       	breq	.+94     	; 0x5cd2 <f_open+0x17a>
    5c74:	86 a4       	ldd	r8, Z+46	; 0x2e
    5c76:	97 a4       	ldd	r9, Z+47	; 0x2f
    5c78:	a0 a8       	ldd	r10, Z+48	; 0x30
    5c7a:	b1 a8       	ldd	r11, Z+49	; 0x31
    5c7c:	cf 01       	movw	r24, r30
    5c7e:	b8 01       	movw	r22, r16
    5c80:	a7 01       	movw	r20, r14
    5c82:	0e 94 79 1e 	call	0x3cf2	; 0x3cf2 <remove_chain>
    5c86:	28 2f       	mov	r18, r24
    5c88:	88 23       	and	r24, r24
    5c8a:	09 f0       	breq	.+2      	; 0x5c8e <f_open+0x136>
    5c8c:	6e c0       	rjmp	.+220    	; 0x5d6a <f_open+0x212>
    5c8e:	ed 85       	ldd	r30, Y+13	; 0x0d
    5c90:	fe 85       	ldd	r31, Y+14	; 0x0e
    5c92:	08 94       	sec
    5c94:	e1 08       	sbc	r14, r1
    5c96:	f1 08       	sbc	r15, r1
    5c98:	01 09       	sbc	r16, r1
    5c9a:	11 09       	sbc	r17, r1
    5c9c:	e2 86       	std	Z+10, r14	; 0x0a
    5c9e:	f3 86       	std	Z+11, r15	; 0x0b
    5ca0:	04 87       	std	Z+12, r16	; 0x0c
    5ca2:	15 87       	std	Z+13, r17	; 0x0d
    5ca4:	cf 01       	movw	r24, r30
    5ca6:	b5 01       	movw	r22, r10
    5ca8:	a4 01       	movw	r20, r8
    5caa:	0e 94 8f 19 	call	0x331e	; 0x331e <move_window>
    5cae:	28 2f       	mov	r18, r24
    5cb0:	88 23       	and	r24, r24
    5cb2:	79 f0       	breq	.+30     	; 0x5cd2 <f_open+0x17a>
    5cb4:	5a c0       	rjmp	.+180    	; 0x5d6a <f_open+0x212>
    5cb6:	22 23       	and	r18, r18
    5cb8:	09 f0       	breq	.+2      	; 0x5cbc <f_open+0x164>
    5cba:	57 c0       	rjmp	.+174    	; 0x5d6a <f_open+0x212>
    5cbc:	d6 01       	movw	r26, r12
    5cbe:	1b 96       	adiw	r26, 0x0b	; 11
    5cc0:	8c 91       	ld	r24, X
    5cc2:	84 ff       	sbrs	r24, 4
    5cc4:	02 c0       	rjmp	.+4      	; 0x5cca <f_open+0x172>
    5cc6:	24 e0       	ldi	r18, 0x04	; 4
    5cc8:	50 c0       	rjmp	.+160    	; 0x5d6a <f_open+0x212>
    5cca:	51 fe       	sbrs	r5, 1
    5ccc:	02 c0       	rjmp	.+4      	; 0x5cd2 <f_open+0x17a>
    5cce:	80 fd       	sbrc	r24, 0
    5cd0:	63 c0       	rjmp	.+198    	; 0x5d98 <f_open+0x240>
    5cd2:	53 fe       	sbrs	r5, 3
    5cd4:	02 c0       	rjmp	.+4      	; 0x5cda <f_open+0x182>
    5cd6:	b0 e2       	ldi	r27, 0x20	; 32
    5cd8:	5b 2a       	or	r5, r27
    5cda:	6d 85       	ldd	r22, Y+13	; 0x0d
    5cdc:	7e 85       	ldd	r23, Y+14	; 0x0e
    5cde:	fb 01       	movw	r30, r22
    5ce0:	26 a5       	ldd	r18, Z+46	; 0x2e
    5ce2:	37 a5       	ldd	r19, Z+47	; 0x2f
    5ce4:	40 a9       	ldd	r20, Z+48	; 0x30
    5ce6:	51 a9       	ldd	r21, Z+49	; 0x31
    5ce8:	d3 01       	movw	r26, r6
    5cea:	5a 96       	adiw	r26, 0x1a	; 26
    5cec:	2d 93       	st	X+, r18
    5cee:	3d 93       	st	X+, r19
    5cf0:	4d 93       	st	X+, r20
    5cf2:	5c 93       	st	X, r21
    5cf4:	5d 97       	sbiw	r26, 0x1d	; 29
    5cf6:	5f 96       	adiw	r26, 0x1f	; 31
    5cf8:	dc 92       	st	X, r13
    5cfa:	ce 92       	st	-X, r12
    5cfc:	5e 97       	sbiw	r26, 0x1e	; 30
    5cfe:	14 96       	adiw	r26, 0x04	; 4
    5d00:	5c 92       	st	X, r5
    5d02:	f6 01       	movw	r30, r12
    5d04:	84 89       	ldd	r24, Z+20	; 0x14
    5d06:	95 89       	ldd	r25, Z+21	; 0x15
    5d08:	a0 e0       	ldi	r26, 0x00	; 0
    5d0a:	b0 e0       	ldi	r27, 0x00	; 0
    5d0c:	dc 01       	movw	r26, r24
    5d0e:	99 27       	eor	r25, r25
    5d10:	88 27       	eor	r24, r24
    5d12:	22 8d       	ldd	r18, Z+26	; 0x1a
    5d14:	33 8d       	ldd	r19, Z+27	; 0x1b
    5d16:	40 e0       	ldi	r20, 0x00	; 0
    5d18:	50 e0       	ldi	r21, 0x00	; 0
    5d1a:	82 2b       	or	r24, r18
    5d1c:	93 2b       	or	r25, r19
    5d1e:	a4 2b       	or	r26, r20
    5d20:	b5 2b       	or	r27, r21
    5d22:	f3 01       	movw	r30, r6
    5d24:	86 87       	std	Z+14, r24	; 0x0e
    5d26:	97 87       	std	Z+15, r25	; 0x0f
    5d28:	a0 8b       	std	Z+16, r26	; 0x10
    5d2a:	b1 8b       	std	Z+17, r27	; 0x11
    5d2c:	f6 01       	movw	r30, r12
    5d2e:	84 8d       	ldd	r24, Z+28	; 0x1c
    5d30:	95 8d       	ldd	r25, Z+29	; 0x1d
    5d32:	a6 8d       	ldd	r26, Z+30	; 0x1e
    5d34:	b7 8d       	ldd	r27, Z+31	; 0x1f
    5d36:	f3 01       	movw	r30, r6
    5d38:	82 87       	std	Z+10, r24	; 0x0a
    5d3a:	93 87       	std	Z+11, r25	; 0x0b
    5d3c:	a4 87       	std	Z+12, r26	; 0x0c
    5d3e:	b5 87       	std	Z+13, r27	; 0x0d
    5d40:	d3 01       	movw	r26, r6
    5d42:	16 96       	adiw	r26, 0x06	; 6
    5d44:	1d 92       	st	X+, r1
    5d46:	1d 92       	st	X+, r1
    5d48:	1d 92       	st	X+, r1
    5d4a:	1c 92       	st	X, r1
    5d4c:	19 97       	sbiw	r26, 0x09	; 9
    5d4e:	16 8a       	std	Z+22, r1	; 0x16
    5d50:	17 8a       	std	Z+23, r1	; 0x17
    5d52:	10 8e       	std	Z+24, r1	; 0x18
    5d54:	11 8e       	std	Z+25, r1	; 0x19
    5d56:	71 83       	std	Z+1, r23	; 0x01
    5d58:	60 83       	st	Z, r22
    5d5a:	db 01       	movw	r26, r22
    5d5c:	16 96       	adiw	r26, 0x06	; 6
    5d5e:	8d 91       	ld	r24, X+
    5d60:	9c 91       	ld	r25, X
    5d62:	17 97       	sbiw	r26, 0x07	; 7
    5d64:	93 83       	std	Z+3, r25	; 0x03
    5d66:	82 83       	std	Z+2, r24	; 0x02
    5d68:	20 e0       	ldi	r18, 0x00	; 0
    5d6a:	82 2f       	mov	r24, r18
    5d6c:	a4 96       	adiw	r28, 0x24	; 36
    5d6e:	0f b6       	in	r0, 0x3f	; 63
    5d70:	f8 94       	cli
    5d72:	de bf       	out	0x3e, r29	; 62
    5d74:	0f be       	out	0x3f, r0	; 63
    5d76:	cd bf       	out	0x3d, r28	; 61
    5d78:	cf 91       	pop	r28
    5d7a:	df 91       	pop	r29
    5d7c:	1f 91       	pop	r17
    5d7e:	0f 91       	pop	r16
    5d80:	ff 90       	pop	r15
    5d82:	ef 90       	pop	r14
    5d84:	df 90       	pop	r13
    5d86:	cf 90       	pop	r12
    5d88:	bf 90       	pop	r11
    5d8a:	af 90       	pop	r10
    5d8c:	9f 90       	pop	r9
    5d8e:	8f 90       	pop	r8
    5d90:	7f 90       	pop	r7
    5d92:	6f 90       	pop	r6
    5d94:	5f 90       	pop	r5
    5d96:	08 95       	ret
    5d98:	27 e0       	ldi	r18, 0x07	; 7
    5d9a:	e7 cf       	rjmp	.-50     	; 0x5d6a <f_open+0x212>

00005d9c <f_getfree>:
    5d9c:	3f 92       	push	r3
    5d9e:	4f 92       	push	r4
    5da0:	5f 92       	push	r5
    5da2:	6f 92       	push	r6
    5da4:	7f 92       	push	r7
    5da6:	8f 92       	push	r8
    5da8:	9f 92       	push	r9
    5daa:	af 92       	push	r10
    5dac:	bf 92       	push	r11
    5dae:	cf 92       	push	r12
    5db0:	df 92       	push	r13
    5db2:	ef 92       	push	r14
    5db4:	ff 92       	push	r15
    5db6:	0f 93       	push	r16
    5db8:	1f 93       	push	r17
    5dba:	df 93       	push	r29
    5dbc:	cf 93       	push	r28
    5dbe:	00 d0       	rcall	.+0      	; 0x5dc0 <f_getfree+0x24>
    5dc0:	00 d0       	rcall	.+0      	; 0x5dc2 <f_getfree+0x26>
    5dc2:	cd b7       	in	r28, 0x3d	; 61
    5dc4:	de b7       	in	r29, 0x3e	; 62
    5dc6:	9a 83       	std	Y+2, r25	; 0x02
    5dc8:	89 83       	std	Y+1, r24	; 0x01
    5dca:	7c 83       	std	Y+4, r23	; 0x04
    5dcc:	6b 83       	std	Y+3, r22	; 0x03
    5dce:	2a 01       	movw	r4, r20
    5dd0:	ce 01       	movw	r24, r28
    5dd2:	01 96       	adiw	r24, 0x01	; 1
    5dd4:	ba 01       	movw	r22, r20
    5dd6:	40 e0       	ldi	r20, 0x00	; 0
    5dd8:	0e 94 e7 16 	call	0x2dce	; 0x2dce <chk_mounted>
    5ddc:	68 2f       	mov	r22, r24
    5dde:	88 23       	and	r24, r24
    5de0:	09 f0       	breq	.+2      	; 0x5de4 <f_getfree+0x48>
    5de2:	bf c0       	rjmp	.+382    	; 0x5f62 <f_getfree+0x1c6>
    5de4:	d2 01       	movw	r26, r4
    5de6:	ed 91       	ld	r30, X+
    5de8:	fc 91       	ld	r31, X
    5dea:	26 85       	ldd	r18, Z+14	; 0x0e
    5dec:	37 85       	ldd	r19, Z+15	; 0x0f
    5dee:	40 89       	ldd	r20, Z+16	; 0x10
    5df0:	51 89       	ldd	r21, Z+17	; 0x11
    5df2:	e2 8c       	ldd	r14, Z+26	; 0x1a
    5df4:	f3 8c       	ldd	r15, Z+27	; 0x1b
    5df6:	04 8d       	ldd	r16, Z+28	; 0x1c
    5df8:	15 8d       	ldd	r17, Z+29	; 0x1d
    5dfa:	d8 01       	movw	r26, r16
    5dfc:	c7 01       	movw	r24, r14
    5dfe:	02 97       	sbiw	r24, 0x02	; 2
    5e00:	a1 09       	sbc	r26, r1
    5e02:	b1 09       	sbc	r27, r1
    5e04:	82 17       	cp	r24, r18
    5e06:	93 07       	cpc	r25, r19
    5e08:	a4 07       	cpc	r26, r20
    5e0a:	b5 07       	cpc	r27, r21
    5e0c:	38 f0       	brcs	.+14     	; 0x5e1c <f_getfree+0x80>
    5e0e:	eb 81       	ldd	r30, Y+3	; 0x03
    5e10:	fc 81       	ldd	r31, Y+4	; 0x04
    5e12:	20 83       	st	Z, r18
    5e14:	31 83       	std	Z+1, r19	; 0x01
    5e16:	42 83       	std	Z+2, r20	; 0x02
    5e18:	53 83       	std	Z+3, r21	; 0x03
    5e1a:	a3 c0       	rjmp	.+326    	; 0x5f62 <f_getfree+0x1c6>
    5e1c:	30 80       	ld	r3, Z
    5e1e:	21 e0       	ldi	r18, 0x01	; 1
    5e20:	32 16       	cp	r3, r18
    5e22:	e1 f5       	brne	.+120    	; 0x5e9c <f_getfree+0x100>
    5e24:	aa 24       	eor	r10, r10
    5e26:	bb 24       	eor	r11, r11
    5e28:	65 01       	movw	r12, r10
    5e2a:	62 e0       	ldi	r22, 0x02	; 2
    5e2c:	e6 2e       	mov	r14, r22
    5e2e:	f1 2c       	mov	r15, r1
    5e30:	01 2d       	mov	r16, r1
    5e32:	11 2d       	mov	r17, r1
    5e34:	d2 01       	movw	r26, r4
    5e36:	8d 91       	ld	r24, X+
    5e38:	9c 91       	ld	r25, X
    5e3a:	b8 01       	movw	r22, r16
    5e3c:	a7 01       	movw	r20, r14
    5e3e:	0e 94 ca 1b 	call	0x3794	; 0x3794 <get_fat>
    5e42:	6f 3f       	cpi	r22, 0xFF	; 255
    5e44:	bf ef       	ldi	r27, 0xFF	; 255
    5e46:	7b 07       	cpc	r23, r27
    5e48:	bf ef       	ldi	r27, 0xFF	; 255
    5e4a:	8b 07       	cpc	r24, r27
    5e4c:	bf ef       	ldi	r27, 0xFF	; 255
    5e4e:	9b 07       	cpc	r25, r27
    5e50:	11 f4       	brne	.+4      	; 0x5e56 <f_getfree+0xba>
    5e52:	91 e0       	ldi	r25, 0x01	; 1
    5e54:	73 c0       	rjmp	.+230    	; 0x5f3c <f_getfree+0x1a0>
    5e56:	61 30       	cpi	r22, 0x01	; 1
    5e58:	71 05       	cpc	r23, r1
    5e5a:	81 05       	cpc	r24, r1
    5e5c:	91 05       	cpc	r25, r1
    5e5e:	11 f4       	brne	.+4      	; 0x5e64 <f_getfree+0xc8>
    5e60:	92 e0       	ldi	r25, 0x02	; 2
    5e62:	6c c0       	rjmp	.+216    	; 0x5f3c <f_getfree+0x1a0>
    5e64:	61 15       	cp	r22, r1
    5e66:	71 05       	cpc	r23, r1
    5e68:	81 05       	cpc	r24, r1
    5e6a:	91 05       	cpc	r25, r1
    5e6c:	29 f4       	brne	.+10     	; 0x5e78 <f_getfree+0xdc>
    5e6e:	08 94       	sec
    5e70:	a1 1c       	adc	r10, r1
    5e72:	b1 1c       	adc	r11, r1
    5e74:	c1 1c       	adc	r12, r1
    5e76:	d1 1c       	adc	r13, r1
    5e78:	08 94       	sec
    5e7a:	e1 1c       	adc	r14, r1
    5e7c:	f1 1c       	adc	r15, r1
    5e7e:	01 1d       	adc	r16, r1
    5e80:	11 1d       	adc	r17, r1
    5e82:	d2 01       	movw	r26, r4
    5e84:	ed 91       	ld	r30, X+
    5e86:	fc 91       	ld	r31, X
    5e88:	82 8d       	ldd	r24, Z+26	; 0x1a
    5e8a:	93 8d       	ldd	r25, Z+27	; 0x1b
    5e8c:	a4 8d       	ldd	r26, Z+28	; 0x1c
    5e8e:	b5 8d       	ldd	r27, Z+29	; 0x1d
    5e90:	e8 16       	cp	r14, r24
    5e92:	f9 06       	cpc	r15, r25
    5e94:	0a 07       	cpc	r16, r26
    5e96:	1b 07       	cpc	r17, r27
    5e98:	68 f2       	brcs	.-102    	; 0x5e34 <f_getfree+0x98>
    5e9a:	4f c0       	rjmp	.+158    	; 0x5f3a <f_getfree+0x19e>
    5e9c:	62 a0       	ldd	r6, Z+34	; 0x22
    5e9e:	73 a0       	ldd	r7, Z+35	; 0x23
    5ea0:	84 a0       	ldd	r8, Z+36	; 0x24
    5ea2:	95 a0       	ldd	r9, Z+37	; 0x25
    5ea4:	aa 24       	eor	r10, r10
    5ea6:	bb 24       	eor	r11, r11
    5ea8:	65 01       	movw	r12, r10
    5eaa:	20 e0       	ldi	r18, 0x00	; 0
    5eac:	30 e0       	ldi	r19, 0x00	; 0
    5eae:	e0 e0       	ldi	r30, 0x00	; 0
    5eb0:	f0 e0       	ldi	r31, 0x00	; 0
    5eb2:	21 15       	cp	r18, r1
    5eb4:	31 05       	cpc	r19, r1
    5eb6:	a9 f4       	brne	.+42     	; 0x5ee2 <f_getfree+0x146>
    5eb8:	f2 01       	movw	r30, r4
    5eba:	80 81       	ld	r24, Z
    5ebc:	91 81       	ldd	r25, Z+1	; 0x01
    5ebe:	b4 01       	movw	r22, r8
    5ec0:	a3 01       	movw	r20, r6
    5ec2:	0e 94 8f 19 	call	0x331e	; 0x331e <move_window>
    5ec6:	98 2f       	mov	r25, r24
    5ec8:	88 23       	and	r24, r24
    5eca:	c1 f5       	brne	.+112    	; 0x5f3c <f_getfree+0x1a0>
    5ecc:	08 94       	sec
    5ece:	61 1c       	adc	r6, r1
    5ed0:	71 1c       	adc	r7, r1
    5ed2:	81 1c       	adc	r8, r1
    5ed4:	91 1c       	adc	r9, r1
    5ed6:	d2 01       	movw	r26, r4
    5ed8:	ed 91       	ld	r30, X+
    5eda:	fc 91       	ld	r31, X
    5edc:	f2 96       	adiw	r30, 0x32	; 50
    5ede:	20 e0       	ldi	r18, 0x00	; 0
    5ee0:	32 e0       	ldi	r19, 0x02	; 2
    5ee2:	b2 e0       	ldi	r27, 0x02	; 2
    5ee4:	3b 16       	cp	r3, r27
    5ee6:	69 f4       	brne	.+26     	; 0x5f02 <f_getfree+0x166>
    5ee8:	80 81       	ld	r24, Z
    5eea:	91 81       	ldd	r25, Z+1	; 0x01
    5eec:	89 2b       	or	r24, r25
    5eee:	29 f4       	brne	.+10     	; 0x5efa <f_getfree+0x15e>
    5ef0:	08 94       	sec
    5ef2:	a1 1c       	adc	r10, r1
    5ef4:	b1 1c       	adc	r11, r1
    5ef6:	c1 1c       	adc	r12, r1
    5ef8:	d1 1c       	adc	r13, r1
    5efa:	32 96       	adiw	r30, 0x02	; 2
    5efc:	22 50       	subi	r18, 0x02	; 2
    5efe:	30 40       	sbci	r19, 0x00	; 0
    5f00:	11 c0       	rjmp	.+34     	; 0x5f24 <f_getfree+0x188>
    5f02:	80 81       	ld	r24, Z
    5f04:	91 81       	ldd	r25, Z+1	; 0x01
    5f06:	a2 81       	ldd	r26, Z+2	; 0x02
    5f08:	b3 81       	ldd	r27, Z+3	; 0x03
    5f0a:	bf 70       	andi	r27, 0x0F	; 15
    5f0c:	00 97       	sbiw	r24, 0x00	; 0
    5f0e:	a1 05       	cpc	r26, r1
    5f10:	b1 05       	cpc	r27, r1
    5f12:	29 f4       	brne	.+10     	; 0x5f1e <f_getfree+0x182>
    5f14:	08 94       	sec
    5f16:	a1 1c       	adc	r10, r1
    5f18:	b1 1c       	adc	r11, r1
    5f1a:	c1 1c       	adc	r12, r1
    5f1c:	d1 1c       	adc	r13, r1
    5f1e:	34 96       	adiw	r30, 0x04	; 4
    5f20:	24 50       	subi	r18, 0x04	; 4
    5f22:	30 40       	sbci	r19, 0x00	; 0
    5f24:	08 94       	sec
    5f26:	e1 08       	sbc	r14, r1
    5f28:	f1 08       	sbc	r15, r1
    5f2a:	01 09       	sbc	r16, r1
    5f2c:	11 09       	sbc	r17, r1
    5f2e:	e1 14       	cp	r14, r1
    5f30:	f1 04       	cpc	r15, r1
    5f32:	01 05       	cpc	r16, r1
    5f34:	11 05       	cpc	r17, r1
    5f36:	09 f0       	breq	.+2      	; 0x5f3a <f_getfree+0x19e>
    5f38:	bc cf       	rjmp	.-136    	; 0x5eb2 <f_getfree+0x116>
    5f3a:	90 e0       	ldi	r25, 0x00	; 0
    5f3c:	d2 01       	movw	r26, r4
    5f3e:	ed 91       	ld	r30, X+
    5f40:	fc 91       	ld	r31, X
    5f42:	a6 86       	std	Z+14, r10	; 0x0e
    5f44:	b7 86       	std	Z+15, r11	; 0x0f
    5f46:	c0 8a       	std	Z+16, r12	; 0x10
    5f48:	d1 8a       	std	Z+17, r13	; 0x11
    5f4a:	b3 e0       	ldi	r27, 0x03	; 3
    5f4c:	3b 16       	cp	r3, r27
    5f4e:	11 f4       	brne	.+4      	; 0x5f54 <f_getfree+0x1b8>
    5f50:	81 e0       	ldi	r24, 0x01	; 1
    5f52:	85 83       	std	Z+5, r24	; 0x05
    5f54:	eb 81       	ldd	r30, Y+3	; 0x03
    5f56:	fc 81       	ldd	r31, Y+4	; 0x04
    5f58:	a0 82       	st	Z, r10
    5f5a:	b1 82       	std	Z+1, r11	; 0x01
    5f5c:	c2 82       	std	Z+2, r12	; 0x02
    5f5e:	d3 82       	std	Z+3, r13	; 0x03
    5f60:	69 2f       	mov	r22, r25
    5f62:	86 2f       	mov	r24, r22
    5f64:	0f 90       	pop	r0
    5f66:	0f 90       	pop	r0
    5f68:	0f 90       	pop	r0
    5f6a:	0f 90       	pop	r0
    5f6c:	cf 91       	pop	r28
    5f6e:	df 91       	pop	r29
    5f70:	1f 91       	pop	r17
    5f72:	0f 91       	pop	r16
    5f74:	ff 90       	pop	r15
    5f76:	ef 90       	pop	r14
    5f78:	df 90       	pop	r13
    5f7a:	cf 90       	pop	r12
    5f7c:	bf 90       	pop	r11
    5f7e:	af 90       	pop	r10
    5f80:	9f 90       	pop	r9
    5f82:	8f 90       	pop	r8
    5f84:	7f 90       	pop	r7
    5f86:	6f 90       	pop	r6
    5f88:	5f 90       	pop	r5
    5f8a:	4f 90       	pop	r4
    5f8c:	3f 90       	pop	r3
    5f8e:	08 95       	ret

00005f90 <f_read>:
    5f90:	3f 92       	push	r3
    5f92:	4f 92       	push	r4
    5f94:	5f 92       	push	r5
    5f96:	6f 92       	push	r6
    5f98:	7f 92       	push	r7
    5f9a:	8f 92       	push	r8
    5f9c:	9f 92       	push	r9
    5f9e:	af 92       	push	r10
    5fa0:	bf 92       	push	r11
    5fa2:	cf 92       	push	r12
    5fa4:	df 92       	push	r13
    5fa6:	ef 92       	push	r14
    5fa8:	ff 92       	push	r15
    5faa:	0f 93       	push	r16
    5fac:	1f 93       	push	r17
    5fae:	df 93       	push	r29
    5fb0:	cf 93       	push	r28
    5fb2:	00 d0       	rcall	.+0      	; 0x5fb4 <f_read+0x24>
    5fb4:	00 d0       	rcall	.+0      	; 0x5fb6 <f_read+0x26>
    5fb6:	cd b7       	in	r28, 0x3d	; 61
    5fb8:	de b7       	in	r29, 0x3e	; 62
    5fba:	9c 83       	std	Y+4, r25	; 0x04
    5fbc:	8b 83       	std	Y+3, r24	; 0x03
    5fbe:	16 2f       	mov	r17, r22
    5fc0:	07 2f       	mov	r16, r23
    5fc2:	3a 01       	movw	r6, r20
    5fc4:	3a 83       	std	Y+2, r19	; 0x02
    5fc6:	29 83       	std	Y+1, r18	; 0x01
    5fc8:	d9 01       	movw	r26, r18
    5fca:	1d 92       	st	X+, r1
    5fcc:	1c 92       	st	X, r1
    5fce:	fc 01       	movw	r30, r24
    5fd0:	62 81       	ldd	r22, Z+2	; 0x02
    5fd2:	73 81       	ldd	r23, Z+3	; 0x03
    5fd4:	80 81       	ld	r24, Z
    5fd6:	91 81       	ldd	r25, Z+1	; 0x01
    5fd8:	0e 94 92 16 	call	0x2d24	; 0x2d24 <validate>
    5fdc:	88 2e       	mov	r8, r24
    5fde:	88 23       	and	r24, r24
    5fe0:	09 f0       	breq	.+2      	; 0x5fe4 <f_read+0x54>
    5fe2:	71 c1       	rjmp	.+738    	; 0x62c6 <f_read+0x336>
    5fe4:	ab 81       	ldd	r26, Y+3	; 0x03
    5fe6:	bc 81       	ldd	r27, Y+4	; 0x04
    5fe8:	14 96       	adiw	r26, 0x04	; 4
    5fea:	8c 91       	ld	r24, X
    5fec:	87 fd       	sbrc	r24, 7
    5fee:	65 c0       	rjmp	.+202    	; 0x60ba <f_read+0x12a>
    5ff0:	80 fd       	sbrc	r24, 0
    5ff2:	03 c0       	rjmp	.+6      	; 0x5ffa <f_read+0x6a>
    5ff4:	87 e0       	ldi	r24, 0x07	; 7
    5ff6:	88 2e       	mov	r8, r24
    5ff8:	66 c1       	rjmp	.+716    	; 0x62c6 <f_read+0x336>
    5ffa:	eb 81       	ldd	r30, Y+3	; 0x03
    5ffc:	fc 81       	ldd	r31, Y+4	; 0x04
    5ffe:	22 85       	ldd	r18, Z+10	; 0x0a
    6000:	33 85       	ldd	r19, Z+11	; 0x0b
    6002:	44 85       	ldd	r20, Z+12	; 0x0c
    6004:	55 85       	ldd	r21, Z+13	; 0x0d
    6006:	86 81       	ldd	r24, Z+6	; 0x06
    6008:	97 81       	ldd	r25, Z+7	; 0x07
    600a:	a0 85       	ldd	r26, Z+8	; 0x08
    600c:	b1 85       	ldd	r27, Z+9	; 0x09
    600e:	28 1b       	sub	r18, r24
    6010:	39 0b       	sbc	r19, r25
    6012:	4a 0b       	sbc	r20, r26
    6014:	5b 0b       	sbc	r21, r27
    6016:	c3 01       	movw	r24, r6
    6018:	a0 e0       	ldi	r26, 0x00	; 0
    601a:	b0 e0       	ldi	r27, 0x00	; 0
    601c:	28 17       	cp	r18, r24
    601e:	39 07       	cpc	r19, r25
    6020:	4a 07       	cpc	r20, r26
    6022:	5b 07       	cpc	r21, r27
    6024:	08 f4       	brcc	.+2      	; 0x6028 <f_read+0x98>
    6026:	39 01       	movw	r6, r18
    6028:	81 2f       	mov	r24, r17
    602a:	90 2f       	mov	r25, r16
    602c:	9c 01       	movw	r18, r24
    602e:	29 01       	movw	r4, r18
    6030:	46 c1       	rjmp	.+652    	; 0x62be <f_read+0x32e>
    6032:	ab 81       	ldd	r26, Y+3	; 0x03
    6034:	bc 81       	ldd	r27, Y+4	; 0x04
    6036:	16 96       	adiw	r26, 0x06	; 6
    6038:	2d 91       	ld	r18, X+
    603a:	3d 91       	ld	r19, X+
    603c:	4d 91       	ld	r20, X+
    603e:	5c 91       	ld	r21, X
    6040:	19 97       	sbiw	r26, 0x09	; 9
    6042:	da 01       	movw	r26, r20
    6044:	c9 01       	movw	r24, r18
    6046:	91 70       	andi	r25, 0x01	; 1
    6048:	a0 70       	andi	r26, 0x00	; 0
    604a:	b0 70       	andi	r27, 0x00	; 0
    604c:	00 97       	sbiw	r24, 0x00	; 0
    604e:	a1 05       	cpc	r26, r1
    6050:	b1 05       	cpc	r27, r1
    6052:	09 f0       	breq	.+2      	; 0x6056 <f_read+0xc6>
    6054:	e0 c0       	rjmp	.+448    	; 0x6216 <f_read+0x286>
    6056:	ab 81       	ldd	r26, Y+3	; 0x03
    6058:	bc 81       	ldd	r27, Y+4	; 0x04
    605a:	ed 91       	ld	r30, X+
    605c:	fc 91       	ld	r31, X
    605e:	da 01       	movw	r26, r20
    6060:	c9 01       	movw	r24, r18
    6062:	09 e0       	ldi	r16, 0x09	; 9
    6064:	b6 95       	lsr	r27
    6066:	a7 95       	ror	r26
    6068:	97 95       	ror	r25
    606a:	87 95       	ror	r24
    606c:	0a 95       	dec	r16
    606e:	d1 f7       	brne	.-12     	; 0x6064 <f_read+0xd4>
    6070:	92 80       	ldd	r9, Z+2	; 0x02
    6072:	9a 94       	dec	r9
    6074:	98 22       	and	r9, r24
    6076:	99 f5       	brne	.+102    	; 0x60de <f_read+0x14e>
    6078:	21 15       	cp	r18, r1
    607a:	31 05       	cpc	r19, r1
    607c:	41 05       	cpc	r20, r1
    607e:	51 05       	cpc	r21, r1
    6080:	39 f4       	brne	.+14     	; 0x6090 <f_read+0x100>
    6082:	eb 81       	ldd	r30, Y+3	; 0x03
    6084:	fc 81       	ldd	r31, Y+4	; 0x04
    6086:	66 85       	ldd	r22, Z+14	; 0x0e
    6088:	77 85       	ldd	r23, Z+15	; 0x0f
    608a:	80 89       	ldd	r24, Z+16	; 0x10
    608c:	91 89       	ldd	r25, Z+17	; 0x11
    608e:	0b c0       	rjmp	.+22     	; 0x60a6 <f_read+0x116>
    6090:	ab 81       	ldd	r26, Y+3	; 0x03
    6092:	bc 81       	ldd	r27, Y+4	; 0x04
    6094:	52 96       	adiw	r26, 0x12	; 18
    6096:	4d 91       	ld	r20, X+
    6098:	5d 91       	ld	r21, X+
    609a:	6d 91       	ld	r22, X+
    609c:	7c 91       	ld	r23, X
    609e:	55 97       	sbiw	r26, 0x15	; 21
    60a0:	cf 01       	movw	r24, r30
    60a2:	0e 94 ca 1b 	call	0x3794	; 0x3794 <get_fat>
    60a6:	62 30       	cpi	r22, 0x02	; 2
    60a8:	71 05       	cpc	r23, r1
    60aa:	81 05       	cpc	r24, r1
    60ac:	91 05       	cpc	r25, r1
    60ae:	40 f4       	brcc	.+16     	; 0x60c0 <f_read+0x130>
    60b0:	eb 81       	ldd	r30, Y+3	; 0x03
    60b2:	fc 81       	ldd	r31, Y+4	; 0x04
    60b4:	84 81       	ldd	r24, Z+4	; 0x04
    60b6:	80 68       	ori	r24, 0x80	; 128
    60b8:	84 83       	std	Z+4, r24	; 0x04
    60ba:	12 e0       	ldi	r17, 0x02	; 2
    60bc:	81 2e       	mov	r8, r17
    60be:	03 c1       	rjmp	.+518    	; 0x62c6 <f_read+0x336>
    60c0:	6f 3f       	cpi	r22, 0xFF	; 255
    60c2:	ff ef       	ldi	r31, 0xFF	; 255
    60c4:	7f 07       	cpc	r23, r31
    60c6:	ff ef       	ldi	r31, 0xFF	; 255
    60c8:	8f 07       	cpc	r24, r31
    60ca:	ff ef       	ldi	r31, 0xFF	; 255
    60cc:	9f 07       	cpc	r25, r31
    60ce:	09 f4       	brne	.+2      	; 0x60d2 <f_read+0x142>
    60d0:	67 c0       	rjmp	.+206    	; 0x61a0 <f_read+0x210>
    60d2:	eb 81       	ldd	r30, Y+3	; 0x03
    60d4:	fc 81       	ldd	r31, Y+4	; 0x04
    60d6:	62 8b       	std	Z+18, r22	; 0x12
    60d8:	73 8b       	std	Z+19, r23	; 0x13
    60da:	84 8b       	std	Z+20, r24	; 0x14
    60dc:	95 8b       	std	Z+21, r25	; 0x15
    60de:	ab 81       	ldd	r26, Y+3	; 0x03
    60e0:	bc 81       	ldd	r27, Y+4	; 0x04
    60e2:	0d 91       	ld	r16, X+
    60e4:	1c 91       	ld	r17, X
    60e6:	11 97       	sbiw	r26, 0x01	; 1
    60e8:	52 96       	adiw	r26, 0x12	; 18
    60ea:	2d 91       	ld	r18, X+
    60ec:	3d 91       	ld	r19, X+
    60ee:	4d 91       	ld	r20, X+
    60f0:	5c 91       	ld	r21, X
    60f2:	55 97       	sbiw	r26, 0x15	; 21
    60f4:	22 50       	subi	r18, 0x02	; 2
    60f6:	30 40       	sbci	r19, 0x00	; 0
    60f8:	40 40       	sbci	r20, 0x00	; 0
    60fa:	50 40       	sbci	r21, 0x00	; 0
    60fc:	f8 01       	movw	r30, r16
    60fe:	82 8d       	ldd	r24, Z+26	; 0x1a
    6100:	93 8d       	ldd	r25, Z+27	; 0x1b
    6102:	a4 8d       	ldd	r26, Z+28	; 0x1c
    6104:	b5 8d       	ldd	r27, Z+29	; 0x1d
    6106:	02 97       	sbiw	r24, 0x02	; 2
    6108:	a1 09       	sbc	r26, r1
    610a:	b1 09       	sbc	r27, r1
    610c:	28 17       	cp	r18, r24
    610e:	39 07       	cpc	r19, r25
    6110:	4a 07       	cpc	r20, r26
    6112:	5b 07       	cpc	r21, r27
    6114:	b8 f4       	brcc	.+46     	; 0x6144 <f_read+0x1b4>
    6116:	32 80       	ldd	r3, Z+2	; 0x02
    6118:	63 2d       	mov	r22, r3
    611a:	70 e0       	ldi	r23, 0x00	; 0
    611c:	80 e0       	ldi	r24, 0x00	; 0
    611e:	90 e0       	ldi	r25, 0x00	; 0
    6120:	0e 94 cf 35 	call	0x6b9e	; 0x6b9e <__mulsi3>
    6124:	9b 01       	movw	r18, r22
    6126:	ac 01       	movw	r20, r24
    6128:	f8 01       	movw	r30, r16
    612a:	82 a5       	ldd	r24, Z+42	; 0x2a
    612c:	93 a5       	ldd	r25, Z+43	; 0x2b
    612e:	a4 a5       	ldd	r26, Z+44	; 0x2c
    6130:	b5 a5       	ldd	r27, Z+45	; 0x2d
    6132:	28 0f       	add	r18, r24
    6134:	39 1f       	adc	r19, r25
    6136:	4a 1f       	adc	r20, r26
    6138:	5b 1f       	adc	r21, r27
    613a:	21 15       	cp	r18, r1
    613c:	31 05       	cpc	r19, r1
    613e:	41 05       	cpc	r20, r1
    6140:	51 05       	cpc	r21, r1
    6142:	49 f4       	brne	.+18     	; 0x6156 <f_read+0x1c6>
    6144:	ab 81       	ldd	r26, Y+3	; 0x03
    6146:	bc 81       	ldd	r27, Y+4	; 0x04
    6148:	14 96       	adiw	r26, 0x04	; 4
    614a:	8c 91       	ld	r24, X
    614c:	14 97       	sbiw	r26, 0x04	; 4
    614e:	80 68       	ori	r24, 0x80	; 128
    6150:	14 96       	adiw	r26, 0x04	; 4
    6152:	8c 93       	st	X, r24
    6154:	b2 cf       	rjmp	.-156    	; 0x60ba <f_read+0x12a>
    6156:	69 01       	movw	r12, r18
    6158:	7a 01       	movw	r14, r20
    615a:	c9 0c       	add	r12, r9
    615c:	d1 1c       	adc	r13, r1
    615e:	e1 1c       	adc	r14, r1
    6160:	f1 1c       	adc	r15, r1
    6162:	53 01       	movw	r10, r6
    6164:	ab 2c       	mov	r10, r11
    6166:	bb 24       	eor	r11, r11
    6168:	a6 94       	lsr	r10
    616a:	a1 14       	cp	r10, r1
    616c:	b1 04       	cpc	r11, r1
    616e:	09 f4       	brne	.+2      	; 0x6172 <f_read+0x1e2>
    6170:	4c c0       	rjmp	.+152    	; 0x620a <f_read+0x27a>
    6172:	29 2d       	mov	r18, r9
    6174:	30 e0       	ldi	r19, 0x00	; 0
    6176:	c5 01       	movw	r24, r10
    6178:	82 0f       	add	r24, r18
    617a:	93 1f       	adc	r25, r19
    617c:	63 2d       	mov	r22, r3
    617e:	70 e0       	ldi	r23, 0x00	; 0
    6180:	68 17       	cp	r22, r24
    6182:	79 07       	cpc	r23, r25
    6184:	18 f4       	brcc	.+6      	; 0x618c <f_read+0x1fc>
    6186:	5b 01       	movw	r10, r22
    6188:	a2 1a       	sub	r10, r18
    618a:	b3 0a       	sbc	r11, r19
    618c:	f8 01       	movw	r30, r16
    618e:	81 81       	ldd	r24, Z+1	; 0x01
    6190:	b2 01       	movw	r22, r4
    6192:	a7 01       	movw	r20, r14
    6194:	96 01       	movw	r18, r12
    6196:	0a 2d       	mov	r16, r10
    6198:	0e 94 49 33 	call	0x6692	; 0x6692 <disk_read>
    619c:	88 23       	and	r24, r24
    619e:	49 f0       	breq	.+18     	; 0x61b2 <f_read+0x222>
    61a0:	ab 81       	ldd	r26, Y+3	; 0x03
    61a2:	bc 81       	ldd	r27, Y+4	; 0x04
    61a4:	14 96       	adiw	r26, 0x04	; 4
    61a6:	8c 91       	ld	r24, X
    61a8:	14 97       	sbiw	r26, 0x04	; 4
    61aa:	80 68       	ori	r24, 0x80	; 128
    61ac:	14 96       	adiw	r26, 0x04	; 4
    61ae:	8c 93       	st	X, r24
    61b0:	4b c0       	rjmp	.+150    	; 0x6248 <f_read+0x2b8>
    61b2:	ab 81       	ldd	r26, Y+3	; 0x03
    61b4:	bc 81       	ldd	r27, Y+4	; 0x04
    61b6:	ed 91       	ld	r30, X+
    61b8:	fc 91       	ld	r31, X
    61ba:	84 81       	ldd	r24, Z+4	; 0x04
    61bc:	88 23       	and	r24, r24
    61be:	01 f1       	breq	.+64     	; 0x6200 <f_read+0x270>
    61c0:	26 a5       	ldd	r18, Z+46	; 0x2e
    61c2:	37 a5       	ldd	r19, Z+47	; 0x2f
    61c4:	40 a9       	ldd	r20, Z+48	; 0x30
    61c6:	51 a9       	ldd	r21, Z+49	; 0x31
    61c8:	2c 19       	sub	r18, r12
    61ca:	3d 09       	sbc	r19, r13
    61cc:	4e 09       	sbc	r20, r14
    61ce:	5f 09       	sbc	r21, r15
    61d0:	c5 01       	movw	r24, r10
    61d2:	a0 e0       	ldi	r26, 0x00	; 0
    61d4:	b0 e0       	ldi	r27, 0x00	; 0
    61d6:	28 17       	cp	r18, r24
    61d8:	39 07       	cpc	r19, r25
    61da:	4a 07       	cpc	r20, r26
    61dc:	5b 07       	cpc	r21, r27
    61de:	80 f4       	brcc	.+32     	; 0x6200 <f_read+0x270>
    61e0:	a9 e0       	ldi	r26, 0x09	; 9
    61e2:	22 0f       	add	r18, r18
    61e4:	33 1f       	adc	r19, r19
    61e6:	44 1f       	adc	r20, r20
    61e8:	55 1f       	adc	r21, r21
    61ea:	aa 95       	dec	r26
    61ec:	d1 f7       	brne	.-12     	; 0x61e2 <f_read+0x252>
    61ee:	c2 01       	movw	r24, r4
    61f0:	82 0f       	add	r24, r18
    61f2:	93 1f       	adc	r25, r19
    61f4:	f2 96       	adiw	r30, 0x32	; 50
    61f6:	bf 01       	movw	r22, r30
    61f8:	40 e0       	ldi	r20, 0x00	; 0
    61fa:	52 e0       	ldi	r21, 0x02	; 2
    61fc:	0e 94 ef 10 	call	0x21de	; 0x21de <mem_cpy>
    6200:	85 01       	movw	r16, r10
    6202:	10 2f       	mov	r17, r16
    6204:	00 27       	eor	r16, r16
    6206:	11 0f       	add	r17, r17
    6208:	3d c0       	rjmp	.+122    	; 0x6284 <f_read+0x2f4>
    620a:	eb 81       	ldd	r30, Y+3	; 0x03
    620c:	fc 81       	ldd	r31, Y+4	; 0x04
    620e:	c6 8a       	std	Z+22, r12	; 0x16
    6210:	d7 8a       	std	Z+23, r13	; 0x17
    6212:	e0 8e       	std	Z+24, r14	; 0x18
    6214:	f1 8e       	std	Z+25, r15	; 0x19
    6216:	ab 81       	ldd	r26, Y+3	; 0x03
    6218:	bc 81       	ldd	r27, Y+4	; 0x04
    621a:	16 96       	adiw	r26, 0x06	; 6
    621c:	ed 90       	ld	r14, X+
    621e:	fd 90       	ld	r15, X+
    6220:	0d 91       	ld	r16, X+
    6222:	1c 91       	ld	r17, X
    6224:	19 97       	sbiw	r26, 0x09	; 9
    6226:	56 96       	adiw	r26, 0x16	; 22
    6228:	4d 91       	ld	r20, X+
    622a:	5d 91       	ld	r21, X+
    622c:	6d 91       	ld	r22, X+
    622e:	7c 91       	ld	r23, X
    6230:	59 97       	sbiw	r26, 0x19	; 25
    6232:	8d 91       	ld	r24, X+
    6234:	9c 91       	ld	r25, X
    6236:	0e 94 8f 19 	call	0x331e	; 0x331e <move_window>
    623a:	88 23       	and	r24, r24
    623c:	41 f0       	breq	.+16     	; 0x624e <f_read+0x2be>
    623e:	eb 81       	ldd	r30, Y+3	; 0x03
    6240:	fc 81       	ldd	r31, Y+4	; 0x04
    6242:	84 81       	ldd	r24, Z+4	; 0x04
    6244:	80 68       	ori	r24, 0x80	; 128
    6246:	84 83       	std	Z+4, r24	; 0x04
    6248:	88 24       	eor	r8, r8
    624a:	83 94       	inc	r8
    624c:	3c c0       	rjmp	.+120    	; 0x62c6 <f_read+0x336>
    624e:	c7 01       	movw	r24, r14
    6250:	91 70       	andi	r25, 0x01	; 1
    6252:	20 e0       	ldi	r18, 0x00	; 0
    6254:	32 e0       	ldi	r19, 0x02	; 2
    6256:	28 1b       	sub	r18, r24
    6258:	39 0b       	sbc	r19, r25
    625a:	83 01       	movw	r16, r6
    625c:	26 15       	cp	r18, r6
    625e:	37 05       	cpc	r19, r7
    6260:	08 f4       	brcc	.+2      	; 0x6264 <f_read+0x2d4>
    6262:	89 01       	movw	r16, r18
    6264:	ab 81       	ldd	r26, Y+3	; 0x03
    6266:	bc 81       	ldd	r27, Y+4	; 0x04
    6268:	16 96       	adiw	r26, 0x06	; 6
    626a:	8d 91       	ld	r24, X+
    626c:	9c 91       	ld	r25, X
    626e:	17 97       	sbiw	r26, 0x07	; 7
    6270:	91 70       	andi	r25, 0x01	; 1
    6272:	c2 96       	adiw	r24, 0x32	; 50
    6274:	6d 91       	ld	r22, X+
    6276:	7c 91       	ld	r23, X
    6278:	68 0f       	add	r22, r24
    627a:	79 1f       	adc	r23, r25
    627c:	c2 01       	movw	r24, r4
    627e:	a8 01       	movw	r20, r16
    6280:	0e 94 ef 10 	call	0x21de	; 0x21de <mem_cpy>
    6284:	40 0e       	add	r4, r16
    6286:	51 1e       	adc	r5, r17
    6288:	c8 01       	movw	r24, r16
    628a:	a0 e0       	ldi	r26, 0x00	; 0
    628c:	b0 e0       	ldi	r27, 0x00	; 0
    628e:	eb 81       	ldd	r30, Y+3	; 0x03
    6290:	fc 81       	ldd	r31, Y+4	; 0x04
    6292:	26 81       	ldd	r18, Z+6	; 0x06
    6294:	37 81       	ldd	r19, Z+7	; 0x07
    6296:	40 85       	ldd	r20, Z+8	; 0x08
    6298:	51 85       	ldd	r21, Z+9	; 0x09
    629a:	28 0f       	add	r18, r24
    629c:	39 1f       	adc	r19, r25
    629e:	4a 1f       	adc	r20, r26
    62a0:	5b 1f       	adc	r21, r27
    62a2:	26 83       	std	Z+6, r18	; 0x06
    62a4:	37 83       	std	Z+7, r19	; 0x07
    62a6:	40 87       	std	Z+8, r20	; 0x08
    62a8:	51 87       	std	Z+9, r21	; 0x09
    62aa:	e9 81       	ldd	r30, Y+1	; 0x01
    62ac:	fa 81       	ldd	r31, Y+2	; 0x02
    62ae:	80 81       	ld	r24, Z
    62b0:	91 81       	ldd	r25, Z+1	; 0x01
    62b2:	80 0f       	add	r24, r16
    62b4:	91 1f       	adc	r25, r17
    62b6:	91 83       	std	Z+1, r25	; 0x01
    62b8:	80 83       	st	Z, r24
    62ba:	60 1a       	sub	r6, r16
    62bc:	71 0a       	sbc	r7, r17
    62be:	61 14       	cp	r6, r1
    62c0:	71 04       	cpc	r7, r1
    62c2:	09 f0       	breq	.+2      	; 0x62c6 <f_read+0x336>
    62c4:	b6 ce       	rjmp	.-660    	; 0x6032 <f_read+0xa2>
    62c6:	88 2d       	mov	r24, r8
    62c8:	0f 90       	pop	r0
    62ca:	0f 90       	pop	r0
    62cc:	0f 90       	pop	r0
    62ce:	0f 90       	pop	r0
    62d0:	cf 91       	pop	r28
    62d2:	df 91       	pop	r29
    62d4:	1f 91       	pop	r17
    62d6:	0f 91       	pop	r16
    62d8:	ff 90       	pop	r15
    62da:	ef 90       	pop	r14
    62dc:	df 90       	pop	r13
    62de:	cf 90       	pop	r12
    62e0:	bf 90       	pop	r11
    62e2:	af 90       	pop	r10
    62e4:	9f 90       	pop	r9
    62e6:	8f 90       	pop	r8
    62e8:	7f 90       	pop	r7
    62ea:	6f 90       	pop	r6
    62ec:	5f 90       	pop	r5
    62ee:	4f 90       	pop	r4
    62f0:	3f 90       	pop	r3
    62f2:	08 95       	ret

000062f4 <wait_ready>:
    62f4:	82 e3       	ldi	r24, 0x32	; 50
    62f6:	80 93 66 01 	sts	0x0166, r24
    62fa:	8f ef       	ldi	r24, 0xFF	; 255
    62fc:	8f b9       	out	0x0f, r24	; 15
    62fe:	77 9b       	sbis	0x0e, 7	; 14
    6300:	fe cf       	rjmp	.-4      	; 0x62fe <wait_ready+0xa>
    6302:	8f b1       	in	r24, 0x0f	; 15
    6304:	9f ef       	ldi	r25, 0xFF	; 255
    6306:	9f b9       	out	0x0f, r25	; 15
    6308:	77 9b       	sbis	0x0e, 7	; 14
    630a:	fe cf       	rjmp	.-4      	; 0x6308 <wait_ready+0x14>
    630c:	8f b1       	in	r24, 0x0f	; 15
    630e:	8f 3f       	cpi	r24, 0xFF	; 255
    6310:	19 f4       	brne	.+6      	; 0x6318 <wait_ready+0x24>
    6312:	21 e0       	ldi	r18, 0x01	; 1
    6314:	30 e0       	ldi	r19, 0x00	; 0
    6316:	06 c0       	rjmp	.+12     	; 0x6324 <wait_ready+0x30>
    6318:	80 91 66 01 	lds	r24, 0x0166
    631c:	88 23       	and	r24, r24
    631e:	99 f7       	brne	.-26     	; 0x6306 <wait_ready+0x12>
    6320:	20 e0       	ldi	r18, 0x00	; 0
    6322:	30 e0       	ldi	r19, 0x00	; 0
    6324:	c9 01       	movw	r24, r18
    6326:	08 95       	ret

00006328 <select>:
    6328:	c4 98       	cbi	0x18, 4	; 24
    632a:	0e 94 7a 31 	call	0x62f4	; 0x62f4 <wait_ready>
    632e:	89 2b       	or	r24, r25
    6330:	19 f0       	breq	.+6      	; 0x6338 <select+0x10>
    6332:	21 e0       	ldi	r18, 0x01	; 1
    6334:	30 e0       	ldi	r19, 0x00	; 0
    6336:	08 c0       	rjmp	.+16     	; 0x6348 <select+0x20>
    6338:	c4 9a       	sbi	0x18, 4	; 24
    633a:	8f ef       	ldi	r24, 0xFF	; 255
    633c:	8f b9       	out	0x0f, r24	; 15
    633e:	77 9b       	sbis	0x0e, 7	; 14
    6340:	fe cf       	rjmp	.-4      	; 0x633e <select+0x16>
    6342:	8f b1       	in	r24, 0x0f	; 15
    6344:	20 e0       	ldi	r18, 0x00	; 0
    6346:	30 e0       	ldi	r19, 0x00	; 0
    6348:	c9 01       	movw	r24, r18
    634a:	08 95       	ret

0000634c <rcvr_datablock>:
    634c:	fc 01       	movw	r30, r24
    634e:	84 e1       	ldi	r24, 0x14	; 20
    6350:	80 93 65 01 	sts	0x0165, r24
    6354:	9f ef       	ldi	r25, 0xFF	; 255
    6356:	9f b9       	out	0x0f, r25	; 15
    6358:	77 9b       	sbis	0x0e, 7	; 14
    635a:	fe cf       	rjmp	.-4      	; 0x6358 <rcvr_datablock+0xc>
    635c:	8f b1       	in	r24, 0x0f	; 15
    635e:	8f 3f       	cpi	r24, 0xFF	; 255
    6360:	29 f4       	brne	.+10     	; 0x636c <rcvr_datablock+0x20>
    6362:	80 91 65 01 	lds	r24, 0x0165
    6366:	88 23       	and	r24, r24
    6368:	b1 f7       	brne	.-20     	; 0x6356 <rcvr_datablock+0xa>
    636a:	29 c0       	rjmp	.+82     	; 0x63be <rcvr_datablock+0x72>
    636c:	8e 3f       	cpi	r24, 0xFE	; 254
    636e:	39 f5       	brne	.+78     	; 0x63be <rcvr_datablock+0x72>
    6370:	9f ef       	ldi	r25, 0xFF	; 255
    6372:	9f b9       	out	0x0f, r25	; 15
    6374:	77 9b       	sbis	0x0e, 7	; 14
    6376:	fe cf       	rjmp	.-4      	; 0x6374 <rcvr_datablock+0x28>
    6378:	8f b1       	in	r24, 0x0f	; 15
    637a:	80 83       	st	Z, r24
    637c:	9f b9       	out	0x0f, r25	; 15
    637e:	77 9b       	sbis	0x0e, 7	; 14
    6380:	fe cf       	rjmp	.-4      	; 0x637e <rcvr_datablock+0x32>
    6382:	8f b1       	in	r24, 0x0f	; 15
    6384:	81 83       	std	Z+1, r24	; 0x01
    6386:	9f b9       	out	0x0f, r25	; 15
    6388:	77 9b       	sbis	0x0e, 7	; 14
    638a:	fe cf       	rjmp	.-4      	; 0x6388 <rcvr_datablock+0x3c>
    638c:	8f b1       	in	r24, 0x0f	; 15
    638e:	82 83       	std	Z+2, r24	; 0x02
    6390:	9f b9       	out	0x0f, r25	; 15
    6392:	77 9b       	sbis	0x0e, 7	; 14
    6394:	fe cf       	rjmp	.-4      	; 0x6392 <rcvr_datablock+0x46>
    6396:	8f b1       	in	r24, 0x0f	; 15
    6398:	83 83       	std	Z+3, r24	; 0x03
    639a:	64 50       	subi	r22, 0x04	; 4
    639c:	70 40       	sbci	r23, 0x00	; 0
    639e:	11 f0       	breq	.+4      	; 0x63a4 <rcvr_datablock+0x58>
    63a0:	34 96       	adiw	r30, 0x04	; 4
    63a2:	e7 cf       	rjmp	.-50     	; 0x6372 <rcvr_datablock+0x26>
    63a4:	8f ef       	ldi	r24, 0xFF	; 255
    63a6:	8f b9       	out	0x0f, r24	; 15
    63a8:	77 9b       	sbis	0x0e, 7	; 14
    63aa:	fe cf       	rjmp	.-4      	; 0x63a8 <rcvr_datablock+0x5c>
    63ac:	8f b1       	in	r24, 0x0f	; 15
    63ae:	8f ef       	ldi	r24, 0xFF	; 255
    63b0:	8f b9       	out	0x0f, r24	; 15
    63b2:	77 9b       	sbis	0x0e, 7	; 14
    63b4:	fe cf       	rjmp	.-4      	; 0x63b2 <rcvr_datablock+0x66>
    63b6:	8f b1       	in	r24, 0x0f	; 15
    63b8:	21 e0       	ldi	r18, 0x01	; 1
    63ba:	30 e0       	ldi	r19, 0x00	; 0
    63bc:	02 c0       	rjmp	.+4      	; 0x63c2 <rcvr_datablock+0x76>
    63be:	20 e0       	ldi	r18, 0x00	; 0
    63c0:	30 e0       	ldi	r19, 0x00	; 0
    63c2:	c9 01       	movw	r24, r18
    63c4:	08 95       	ret

000063c6 <xmit_datablock>:
    63c6:	1f 93       	push	r17
    63c8:	cf 93       	push	r28
    63ca:	df 93       	push	r29
    63cc:	ec 01       	movw	r28, r24
    63ce:	16 2f       	mov	r17, r22
    63d0:	0e 94 7a 31 	call	0x62f4	; 0x62f4 <wait_ready>
    63d4:	89 2b       	or	r24, r25
    63d6:	19 f4       	brne	.+6      	; 0x63de <xmit_datablock+0x18>
    63d8:	20 e0       	ldi	r18, 0x00	; 0
    63da:	30 e0       	ldi	r19, 0x00	; 0
    63dc:	2b c0       	rjmp	.+86     	; 0x6434 <xmit_datablock+0x6e>
    63de:	1f b9       	out	0x0f, r17	; 15
    63e0:	77 9b       	sbis	0x0e, 7	; 14
    63e2:	fe cf       	rjmp	.-4      	; 0x63e0 <xmit_datablock+0x1a>
    63e4:	1d 3f       	cpi	r17, 0xFD	; 253
    63e6:	19 f4       	brne	.+6      	; 0x63ee <xmit_datablock+0x28>
    63e8:	21 e0       	ldi	r18, 0x01	; 1
    63ea:	30 e0       	ldi	r19, 0x00	; 0
    63ec:	23 c0       	rjmp	.+70     	; 0x6434 <xmit_datablock+0x6e>
    63ee:	90 e0       	ldi	r25, 0x00	; 0
    63f0:	88 81       	ld	r24, Y
    63f2:	8f b9       	out	0x0f, r24	; 15
    63f4:	77 9b       	sbis	0x0e, 7	; 14
    63f6:	fe cf       	rjmp	.-4      	; 0x63f4 <xmit_datablock+0x2e>
    63f8:	89 81       	ldd	r24, Y+1	; 0x01
    63fa:	8f b9       	out	0x0f, r24	; 15
    63fc:	77 9b       	sbis	0x0e, 7	; 14
    63fe:	fe cf       	rjmp	.-4      	; 0x63fc <xmit_datablock+0x36>
    6400:	91 50       	subi	r25, 0x01	; 1
    6402:	11 f0       	breq	.+4      	; 0x6408 <xmit_datablock+0x42>
    6404:	22 96       	adiw	r28, 0x02	; 2
    6406:	f4 cf       	rjmp	.-24     	; 0x63f0 <xmit_datablock+0x2a>
    6408:	8f ef       	ldi	r24, 0xFF	; 255
    640a:	8f b9       	out	0x0f, r24	; 15
    640c:	77 9b       	sbis	0x0e, 7	; 14
    640e:	fe cf       	rjmp	.-4      	; 0x640c <xmit_datablock+0x46>
    6410:	8f ef       	ldi	r24, 0xFF	; 255
    6412:	8f b9       	out	0x0f, r24	; 15
    6414:	77 9b       	sbis	0x0e, 7	; 14
    6416:	fe cf       	rjmp	.-4      	; 0x6414 <xmit_datablock+0x4e>
    6418:	8f ef       	ldi	r24, 0xFF	; 255
    641a:	8f b9       	out	0x0f, r24	; 15
    641c:	77 9b       	sbis	0x0e, 7	; 14
    641e:	fe cf       	rjmp	.-4      	; 0x641c <xmit_datablock+0x56>
    6420:	8f b1       	in	r24, 0x0f	; 15
    6422:	90 e0       	ldi	r25, 0x00	; 0
    6424:	8f 71       	andi	r24, 0x1F	; 31
    6426:	85 30       	cpi	r24, 0x05	; 5
    6428:	09 f0       	breq	.+2      	; 0x642c <xmit_datablock+0x66>
    642a:	91 e0       	ldi	r25, 0x01	; 1
    642c:	81 e0       	ldi	r24, 0x01	; 1
    642e:	98 27       	eor	r25, r24
    6430:	29 2f       	mov	r18, r25
    6432:	30 e0       	ldi	r19, 0x00	; 0
    6434:	c9 01       	movw	r24, r18
    6436:	df 91       	pop	r29
    6438:	cf 91       	pop	r28
    643a:	1f 91       	pop	r17
    643c:	08 95       	ret

0000643e <send_cmd>:
    643e:	df 92       	push	r13
    6440:	ef 92       	push	r14
    6442:	ff 92       	push	r15
    6444:	0f 93       	push	r16
    6446:	1f 93       	push	r17
    6448:	d8 2e       	mov	r13, r24
    644a:	7a 01       	movw	r14, r20
    644c:	8b 01       	movw	r16, r22
    644e:	87 ff       	sbrs	r24, 7
    6450:	0c c0       	rjmp	.+24     	; 0x646a <send_cmd+0x2c>
    6452:	87 e3       	ldi	r24, 0x37	; 55
    6454:	40 e0       	ldi	r20, 0x00	; 0
    6456:	50 e0       	ldi	r21, 0x00	; 0
    6458:	60 e0       	ldi	r22, 0x00	; 0
    645a:	70 e0       	ldi	r23, 0x00	; 0
    645c:	0e 94 1f 32 	call	0x643e	; 0x643e <send_cmd>
    6460:	82 30       	cpi	r24, 0x02	; 2
    6462:	08 f0       	brcs	.+2      	; 0x6466 <send_cmd+0x28>
    6464:	49 c0       	rjmp	.+146    	; 0x64f8 <send_cmd+0xba>
    6466:	8f e7       	ldi	r24, 0x7F	; 127
    6468:	d8 22       	and	r13, r24
    646a:	c4 9a       	sbi	0x18, 4	; 24
    646c:	8f ef       	ldi	r24, 0xFF	; 255
    646e:	8f b9       	out	0x0f, r24	; 15
    6470:	77 9b       	sbis	0x0e, 7	; 14
    6472:	fe cf       	rjmp	.-4      	; 0x6470 <send_cmd+0x32>
    6474:	8f b1       	in	r24, 0x0f	; 15
    6476:	0e 94 94 31 	call	0x6328	; 0x6328 <select>
    647a:	89 2b       	or	r24, r25
    647c:	11 f4       	brne	.+4      	; 0x6482 <send_cmd+0x44>
    647e:	8f ef       	ldi	r24, 0xFF	; 255
    6480:	3b c0       	rjmp	.+118    	; 0x64f8 <send_cmd+0xba>
    6482:	8d 2d       	mov	r24, r13
    6484:	80 64       	ori	r24, 0x40	; 64
    6486:	8f b9       	out	0x0f, r24	; 15
    6488:	77 9b       	sbis	0x0e, 7	; 14
    648a:	fe cf       	rjmp	.-4      	; 0x6488 <send_cmd+0x4a>
    648c:	81 2f       	mov	r24, r17
    648e:	99 27       	eor	r25, r25
    6490:	aa 27       	eor	r26, r26
    6492:	bb 27       	eor	r27, r27
    6494:	8f b9       	out	0x0f, r24	; 15
    6496:	77 9b       	sbis	0x0e, 7	; 14
    6498:	fe cf       	rjmp	.-4      	; 0x6496 <send_cmd+0x58>
    649a:	c8 01       	movw	r24, r16
    649c:	aa 27       	eor	r26, r26
    649e:	bb 27       	eor	r27, r27
    64a0:	8f b9       	out	0x0f, r24	; 15
    64a2:	77 9b       	sbis	0x0e, 7	; 14
    64a4:	fe cf       	rjmp	.-4      	; 0x64a2 <send_cmd+0x64>
    64a6:	bb 27       	eor	r27, r27
    64a8:	a1 2f       	mov	r26, r17
    64aa:	90 2f       	mov	r25, r16
    64ac:	8f 2d       	mov	r24, r15
    64ae:	8f b9       	out	0x0f, r24	; 15
    64b0:	77 9b       	sbis	0x0e, 7	; 14
    64b2:	fe cf       	rjmp	.-4      	; 0x64b0 <send_cmd+0x72>
    64b4:	ef b8       	out	0x0f, r14	; 15
    64b6:	77 9b       	sbis	0x0e, 7	; 14
    64b8:	fe cf       	rjmp	.-4      	; 0x64b6 <send_cmd+0x78>
    64ba:	dd 20       	and	r13, r13
    64bc:	11 f4       	brne	.+4      	; 0x64c2 <send_cmd+0x84>
    64be:	85 e9       	ldi	r24, 0x95	; 149
    64c0:	06 c0       	rjmp	.+12     	; 0x64ce <send_cmd+0x90>
    64c2:	88 e0       	ldi	r24, 0x08	; 8
    64c4:	d8 16       	cp	r13, r24
    64c6:	11 f4       	brne	.+4      	; 0x64cc <send_cmd+0x8e>
    64c8:	87 e8       	ldi	r24, 0x87	; 135
    64ca:	01 c0       	rjmp	.+2      	; 0x64ce <send_cmd+0x90>
    64cc:	81 e0       	ldi	r24, 0x01	; 1
    64ce:	8f b9       	out	0x0f, r24	; 15
    64d0:	77 9b       	sbis	0x0e, 7	; 14
    64d2:	fe cf       	rjmp	.-4      	; 0x64d0 <send_cmd+0x92>
    64d4:	8c e0       	ldi	r24, 0x0C	; 12
    64d6:	d8 16       	cp	r13, r24
    64d8:	29 f4       	brne	.+10     	; 0x64e4 <send_cmd+0xa6>
    64da:	8f ef       	ldi	r24, 0xFF	; 255
    64dc:	8f b9       	out	0x0f, r24	; 15
    64de:	77 9b       	sbis	0x0e, 7	; 14
    64e0:	fe cf       	rjmp	.-4      	; 0x64de <send_cmd+0xa0>
    64e2:	8f b1       	in	r24, 0x0f	; 15
    64e4:	9a e0       	ldi	r25, 0x0A	; 10
    64e6:	2f ef       	ldi	r18, 0xFF	; 255
    64e8:	2f b9       	out	0x0f, r18	; 15
    64ea:	77 9b       	sbis	0x0e, 7	; 14
    64ec:	fe cf       	rjmp	.-4      	; 0x64ea <send_cmd+0xac>
    64ee:	8f b1       	in	r24, 0x0f	; 15
    64f0:	87 ff       	sbrs	r24, 7
    64f2:	02 c0       	rjmp	.+4      	; 0x64f8 <send_cmd+0xba>
    64f4:	91 50       	subi	r25, 0x01	; 1
    64f6:	c1 f7       	brne	.-16     	; 0x64e8 <send_cmd+0xaa>
    64f8:	1f 91       	pop	r17
    64fa:	0f 91       	pop	r16
    64fc:	ff 90       	pop	r15
    64fe:	ef 90       	pop	r14
    6500:	df 90       	pop	r13
    6502:	08 95       	ret

00006504 <disk_initialize>:
    6504:	ef 92       	push	r14
    6506:	ff 92       	push	r15
    6508:	0f 93       	push	r16
    650a:	1f 93       	push	r17
    650c:	df 93       	push	r29
    650e:	cf 93       	push	r28
    6510:	00 d0       	rcall	.+0      	; 0x6512 <disk_initialize+0xe>
    6512:	00 d0       	rcall	.+0      	; 0x6514 <disk_initialize+0x10>
    6514:	cd b7       	in	r28, 0x3d	; 61
    6516:	de b7       	in	r29, 0x3e	; 62
    6518:	88 23       	and	r24, r24
    651a:	11 f0       	breq	.+4      	; 0x6520 <disk_initialize+0x1c>
    651c:	81 e0       	ldi	r24, 0x01	; 1
    651e:	a7 c0       	rjmp	.+334    	; 0x666e <disk_initialize+0x16a>
    6520:	80 91 d7 00 	lds	r24, 0x00D7
    6524:	81 fd       	sbrc	r24, 1
    6526:	a1 c0       	rjmp	.+322    	; 0x666a <disk_initialize+0x166>
    6528:	69 9a       	sbi	0x0d, 1	; 13
    652a:	8a e0       	ldi	r24, 0x0A	; 10
    652c:	9f ef       	ldi	r25, 0xFF	; 255
    652e:	9f b9       	out	0x0f, r25	; 15
    6530:	77 9b       	sbis	0x0e, 7	; 14
    6532:	fe cf       	rjmp	.-4      	; 0x6530 <disk_initialize+0x2c>
    6534:	2f b1       	in	r18, 0x0f	; 15
    6536:	81 50       	subi	r24, 0x01	; 1
    6538:	d1 f7       	brne	.-12     	; 0x652e <disk_initialize+0x2a>
    653a:	40 e0       	ldi	r20, 0x00	; 0
    653c:	50 e0       	ldi	r21, 0x00	; 0
    653e:	60 e0       	ldi	r22, 0x00	; 0
    6540:	70 e0       	ldi	r23, 0x00	; 0
    6542:	0e 94 1f 32 	call	0x643e	; 0x643e <send_cmd>
    6546:	81 30       	cpi	r24, 0x01	; 1
    6548:	09 f0       	breq	.+2      	; 0x654c <disk_initialize+0x48>
    654a:	7c c0       	rjmp	.+248    	; 0x6644 <disk_initialize+0x140>
    654c:	84 e6       	ldi	r24, 0x64	; 100
    654e:	80 93 65 01 	sts	0x0165, r24
    6552:	88 e0       	ldi	r24, 0x08	; 8
    6554:	4a ea       	ldi	r20, 0xAA	; 170
    6556:	51 e0       	ldi	r21, 0x01	; 1
    6558:	60 e0       	ldi	r22, 0x00	; 0
    655a:	70 e0       	ldi	r23, 0x00	; 0
    655c:	0e 94 1f 32 	call	0x643e	; 0x643e <send_cmd>
    6560:	81 30       	cpi	r24, 0x01	; 1
    6562:	09 f0       	breq	.+2      	; 0x6566 <disk_initialize+0x62>
    6564:	48 c0       	rjmp	.+144    	; 0x65f6 <disk_initialize+0xf2>
    6566:	7e 01       	movw	r14, r28
    6568:	08 94       	sec
    656a:	e1 1c       	adc	r14, r1
    656c:	f1 1c       	adc	r15, r1
    656e:	87 01       	movw	r16, r14
    6570:	9f ef       	ldi	r25, 0xFF	; 255
    6572:	9e 01       	movw	r18, r28
    6574:	2b 5f       	subi	r18, 0xFB	; 251
    6576:	3f 4f       	sbci	r19, 0xFF	; 255
    6578:	9f b9       	out	0x0f, r25	; 15
    657a:	77 9b       	sbis	0x0e, 7	; 14
    657c:	fe cf       	rjmp	.-4      	; 0x657a <disk_initialize+0x76>
    657e:	8f b1       	in	r24, 0x0f	; 15
    6580:	f8 01       	movw	r30, r16
    6582:	81 93       	st	Z+, r24
    6584:	8f 01       	movw	r16, r30
    6586:	e2 17       	cp	r30, r18
    6588:	f3 07       	cpc	r31, r19
    658a:	b1 f7       	brne	.-20     	; 0x6578 <disk_initialize+0x74>
    658c:	8b 81       	ldd	r24, Y+3	; 0x03
    658e:	81 30       	cpi	r24, 0x01	; 1
    6590:	09 f0       	breq	.+2      	; 0x6594 <disk_initialize+0x90>
    6592:	58 c0       	rjmp	.+176    	; 0x6644 <disk_initialize+0x140>
    6594:	8c 81       	ldd	r24, Y+4	; 0x04
    6596:	8a 3a       	cpi	r24, 0xAA	; 170
    6598:	09 f0       	breq	.+2      	; 0x659c <disk_initialize+0x98>
    659a:	54 c0       	rjmp	.+168    	; 0x6644 <disk_initialize+0x140>
    659c:	80 91 65 01 	lds	r24, 0x0165
    65a0:	88 23       	and	r24, r24
    65a2:	49 f0       	breq	.+18     	; 0x65b6 <disk_initialize+0xb2>
    65a4:	89 ea       	ldi	r24, 0xA9	; 169
    65a6:	40 e0       	ldi	r20, 0x00	; 0
    65a8:	50 e0       	ldi	r21, 0x00	; 0
    65aa:	60 e0       	ldi	r22, 0x00	; 0
    65ac:	70 e4       	ldi	r23, 0x40	; 64
    65ae:	0e 94 1f 32 	call	0x643e	; 0x643e <send_cmd>
    65b2:	88 23       	and	r24, r24
    65b4:	99 f7       	brne	.-26     	; 0x659c <disk_initialize+0x98>
    65b6:	80 91 65 01 	lds	r24, 0x0165
    65ba:	88 23       	and	r24, r24
    65bc:	09 f4       	brne	.+2      	; 0x65c0 <disk_initialize+0xbc>
    65be:	42 c0       	rjmp	.+132    	; 0x6644 <disk_initialize+0x140>
    65c0:	8a e3       	ldi	r24, 0x3A	; 58
    65c2:	40 e0       	ldi	r20, 0x00	; 0
    65c4:	50 e0       	ldi	r21, 0x00	; 0
    65c6:	60 e0       	ldi	r22, 0x00	; 0
    65c8:	70 e0       	ldi	r23, 0x00	; 0
    65ca:	0e 94 1f 32 	call	0x643e	; 0x643e <send_cmd>
    65ce:	88 23       	and	r24, r24
    65d0:	c9 f5       	brne	.+114    	; 0x6644 <disk_initialize+0x140>
    65d2:	9f ef       	ldi	r25, 0xFF	; 255
    65d4:	9f b9       	out	0x0f, r25	; 15
    65d6:	77 9b       	sbis	0x0e, 7	; 14
    65d8:	fe cf       	rjmp	.-4      	; 0x65d6 <disk_initialize+0xd2>
    65da:	8f b1       	in	r24, 0x0f	; 15
    65dc:	f7 01       	movw	r30, r14
    65de:	81 93       	st	Z+, r24
    65e0:	7f 01       	movw	r14, r30
    65e2:	e0 17       	cp	r30, r16
    65e4:	f1 07       	cpc	r31, r17
    65e6:	b1 f7       	brne	.-20     	; 0x65d4 <disk_initialize+0xd0>
    65e8:	89 81       	ldd	r24, Y+1	; 0x01
    65ea:	86 fd       	sbrc	r24, 6
    65ec:	02 c0       	rjmp	.+4      	; 0x65f2 <disk_initialize+0xee>
    65ee:	14 e0       	ldi	r17, 0x04	; 4
    65f0:	2a c0       	rjmp	.+84     	; 0x6646 <disk_initialize+0x142>
    65f2:	1c e0       	ldi	r17, 0x0C	; 12
    65f4:	28 c0       	rjmp	.+80     	; 0x6646 <disk_initialize+0x142>
    65f6:	89 ea       	ldi	r24, 0xA9	; 169
    65f8:	40 e0       	ldi	r20, 0x00	; 0
    65fa:	50 e0       	ldi	r21, 0x00	; 0
    65fc:	60 e0       	ldi	r22, 0x00	; 0
    65fe:	70 e0       	ldi	r23, 0x00	; 0
    6600:	0e 94 1f 32 	call	0x643e	; 0x643e <send_cmd>
    6604:	82 30       	cpi	r24, 0x02	; 2
    6606:	18 f0       	brcs	.+6      	; 0x660e <disk_initialize+0x10a>
    6608:	01 e0       	ldi	r16, 0x01	; 1
    660a:	11 e0       	ldi	r17, 0x01	; 1
    660c:	02 c0       	rjmp	.+4      	; 0x6612 <disk_initialize+0x10e>
    660e:	09 ea       	ldi	r16, 0xA9	; 169
    6610:	12 e0       	ldi	r17, 0x02	; 2
    6612:	80 91 65 01 	lds	r24, 0x0165
    6616:	88 23       	and	r24, r24
    6618:	49 f0       	breq	.+18     	; 0x662c <disk_initialize+0x128>
    661a:	80 2f       	mov	r24, r16
    661c:	40 e0       	ldi	r20, 0x00	; 0
    661e:	50 e0       	ldi	r21, 0x00	; 0
    6620:	60 e0       	ldi	r22, 0x00	; 0
    6622:	70 e0       	ldi	r23, 0x00	; 0
    6624:	0e 94 1f 32 	call	0x643e	; 0x643e <send_cmd>
    6628:	88 23       	and	r24, r24
    662a:	99 f7       	brne	.-26     	; 0x6612 <disk_initialize+0x10e>
    662c:	80 91 65 01 	lds	r24, 0x0165
    6630:	88 23       	and	r24, r24
    6632:	41 f0       	breq	.+16     	; 0x6644 <disk_initialize+0x140>
    6634:	80 e1       	ldi	r24, 0x10	; 16
    6636:	40 e0       	ldi	r20, 0x00	; 0
    6638:	52 e0       	ldi	r21, 0x02	; 2
    663a:	60 e0       	ldi	r22, 0x00	; 0
    663c:	70 e0       	ldi	r23, 0x00	; 0
    663e:	0e 94 1f 32 	call	0x643e	; 0x643e <send_cmd>
    6642:	81 11       	cpse	r24, r1
    6644:	10 e0       	ldi	r17, 0x00	; 0
    6646:	10 93 67 01 	sts	0x0167, r17
    664a:	c4 9a       	sbi	0x18, 4	; 24
    664c:	8f ef       	ldi	r24, 0xFF	; 255
    664e:	8f b9       	out	0x0f, r24	; 15
    6650:	77 9b       	sbis	0x0e, 7	; 14
    6652:	fe cf       	rjmp	.-4      	; 0x6650 <disk_initialize+0x14c>
    6654:	8f b1       	in	r24, 0x0f	; 15
    6656:	11 23       	and	r17, r17
    6658:	41 f0       	breq	.+16     	; 0x666a <disk_initialize+0x166>
    665a:	80 91 d7 00 	lds	r24, 0x00D7
    665e:	8e 7f       	andi	r24, 0xFE	; 254
    6660:	80 93 d7 00 	sts	0x00D7, r24
    6664:	8d b1       	in	r24, 0x0d	; 13
    6666:	8c 7f       	andi	r24, 0xFC	; 252
    6668:	8d b9       	out	0x0d, r24	; 13
    666a:	80 91 d7 00 	lds	r24, 0x00D7
    666e:	0f 90       	pop	r0
    6670:	0f 90       	pop	r0
    6672:	0f 90       	pop	r0
    6674:	0f 90       	pop	r0
    6676:	cf 91       	pop	r28
    6678:	df 91       	pop	r29
    667a:	1f 91       	pop	r17
    667c:	0f 91       	pop	r16
    667e:	ff 90       	pop	r15
    6680:	ef 90       	pop	r14
    6682:	08 95       	ret

00006684 <disk_status>:
    6684:	88 23       	and	r24, r24
    6686:	11 f0       	breq	.+4      	; 0x668c <disk_status+0x8>
    6688:	81 e0       	ldi	r24, 0x01	; 1
    668a:	08 95       	ret
    668c:	80 91 d7 00 	lds	r24, 0x00D7
    6690:	08 95       	ret

00006692 <disk_read>:
    6692:	0f 93       	push	r16
    6694:	cf 93       	push	r28
    6696:	df 93       	push	r29
    6698:	eb 01       	movw	r28, r22
    669a:	88 23       	and	r24, r24
    669c:	09 f0       	breq	.+2      	; 0x66a0 <disk_read+0xe>
    669e:	4b c0       	rjmp	.+150    	; 0x6736 <disk_read+0xa4>
    66a0:	00 23       	and	r16, r16
    66a2:	09 f4       	brne	.+2      	; 0x66a6 <disk_read+0x14>
    66a4:	48 c0       	rjmp	.+144    	; 0x6736 <disk_read+0xa4>
    66a6:	80 91 d7 00 	lds	r24, 0x00D7
    66aa:	80 ff       	sbrs	r24, 0
    66ac:	02 c0       	rjmp	.+4      	; 0x66b2 <disk_read+0x20>
    66ae:	03 e0       	ldi	r16, 0x03	; 3
    66b0:	43 c0       	rjmp	.+134    	; 0x6738 <disk_read+0xa6>
    66b2:	80 91 67 01 	lds	r24, 0x0167
    66b6:	83 fd       	sbrc	r24, 3
    66b8:	07 c0       	rjmp	.+14     	; 0x66c8 <disk_read+0x36>
    66ba:	69 e0       	ldi	r22, 0x09	; 9
    66bc:	22 0f       	add	r18, r18
    66be:	33 1f       	adc	r19, r19
    66c0:	44 1f       	adc	r20, r20
    66c2:	55 1f       	adc	r21, r21
    66c4:	6a 95       	dec	r22
    66c6:	d1 f7       	brne	.-12     	; 0x66bc <disk_read+0x2a>
    66c8:	01 30       	cpi	r16, 0x01	; 1
    66ca:	89 f4       	brne	.+34     	; 0x66ee <disk_read+0x5c>
    66cc:	81 e1       	ldi	r24, 0x11	; 17
    66ce:	ba 01       	movw	r22, r20
    66d0:	a9 01       	movw	r20, r18
    66d2:	0e 94 1f 32 	call	0x643e	; 0x643e <send_cmd>
    66d6:	88 23       	and	r24, r24
    66d8:	21 f5       	brne	.+72     	; 0x6722 <disk_read+0x90>
    66da:	ce 01       	movw	r24, r28
    66dc:	60 e0       	ldi	r22, 0x00	; 0
    66de:	72 e0       	ldi	r23, 0x02	; 2
    66e0:	0e 94 a6 31 	call	0x634c	; 0x634c <rcvr_datablock>
    66e4:	00 e0       	ldi	r16, 0x00	; 0
    66e6:	89 2b       	or	r24, r25
    66e8:	e1 f4       	brne	.+56     	; 0x6722 <disk_read+0x90>
    66ea:	01 e0       	ldi	r16, 0x01	; 1
    66ec:	1a c0       	rjmp	.+52     	; 0x6722 <disk_read+0x90>
    66ee:	82 e1       	ldi	r24, 0x12	; 18
    66f0:	ba 01       	movw	r22, r20
    66f2:	a9 01       	movw	r20, r18
    66f4:	0e 94 1f 32 	call	0x643e	; 0x643e <send_cmd>
    66f8:	88 23       	and	r24, r24
    66fa:	99 f4       	brne	.+38     	; 0x6722 <disk_read+0x90>
    66fc:	ce 01       	movw	r24, r28
    66fe:	60 e0       	ldi	r22, 0x00	; 0
    6700:	72 e0       	ldi	r23, 0x02	; 2
    6702:	0e 94 a6 31 	call	0x634c	; 0x634c <rcvr_datablock>
    6706:	89 2b       	or	r24, r25
    6708:	29 f0       	breq	.+10     	; 0x6714 <disk_read+0x82>
    670a:	01 50       	subi	r16, 0x01	; 1
    670c:	19 f0       	breq	.+6      	; 0x6714 <disk_read+0x82>
    670e:	c0 50       	subi	r28, 0x00	; 0
    6710:	de 4f       	sbci	r29, 0xFE	; 254
    6712:	f4 cf       	rjmp	.-24     	; 0x66fc <disk_read+0x6a>
    6714:	8c e0       	ldi	r24, 0x0C	; 12
    6716:	40 e0       	ldi	r20, 0x00	; 0
    6718:	50 e0       	ldi	r21, 0x00	; 0
    671a:	60 e0       	ldi	r22, 0x00	; 0
    671c:	70 e0       	ldi	r23, 0x00	; 0
    671e:	0e 94 1f 32 	call	0x643e	; 0x643e <send_cmd>
    6722:	c4 9a       	sbi	0x18, 4	; 24
    6724:	8f ef       	ldi	r24, 0xFF	; 255
    6726:	8f b9       	out	0x0f, r24	; 15
    6728:	77 9b       	sbis	0x0e, 7	; 14
    672a:	fe cf       	rjmp	.-4      	; 0x6728 <disk_read+0x96>
    672c:	8f b1       	in	r24, 0x0f	; 15
    672e:	00 23       	and	r16, r16
    6730:	19 f0       	breq	.+6      	; 0x6738 <disk_read+0xa6>
    6732:	01 e0       	ldi	r16, 0x01	; 1
    6734:	01 c0       	rjmp	.+2      	; 0x6738 <disk_read+0xa6>
    6736:	04 e0       	ldi	r16, 0x04	; 4
    6738:	80 2f       	mov	r24, r16
    673a:	df 91       	pop	r29
    673c:	cf 91       	pop	r28
    673e:	0f 91       	pop	r16
    6740:	08 95       	ret

00006742 <disk_write>:
    6742:	cf 92       	push	r12
    6744:	df 92       	push	r13
    6746:	ef 92       	push	r14
    6748:	ff 92       	push	r15
    674a:	0f 93       	push	r16
    674c:	cf 93       	push	r28
    674e:	df 93       	push	r29
    6750:	eb 01       	movw	r28, r22
    6752:	69 01       	movw	r12, r18
    6754:	7a 01       	movw	r14, r20
    6756:	88 23       	and	r24, r24
    6758:	09 f0       	breq	.+2      	; 0x675c <disk_write+0x1a>
    675a:	59 c0       	rjmp	.+178    	; 0x680e <disk_write+0xcc>
    675c:	00 23       	and	r16, r16
    675e:	09 f4       	brne	.+2      	; 0x6762 <disk_write+0x20>
    6760:	56 c0       	rjmp	.+172    	; 0x680e <disk_write+0xcc>
    6762:	80 91 d7 00 	lds	r24, 0x00D7
    6766:	80 ff       	sbrs	r24, 0
    6768:	02 c0       	rjmp	.+4      	; 0x676e <disk_write+0x2c>
    676a:	03 e0       	ldi	r16, 0x03	; 3
    676c:	51 c0       	rjmp	.+162    	; 0x6810 <disk_write+0xce>
    676e:	80 91 d7 00 	lds	r24, 0x00D7
    6772:	82 ff       	sbrs	r24, 2
    6774:	02 c0       	rjmp	.+4      	; 0x677a <disk_write+0x38>
    6776:	02 e0       	ldi	r16, 0x02	; 2
    6778:	4b c0       	rjmp	.+150    	; 0x6810 <disk_write+0xce>
    677a:	80 91 67 01 	lds	r24, 0x0167
    677e:	90 e0       	ldi	r25, 0x00	; 0
    6780:	83 fd       	sbrc	r24, 3
    6782:	07 c0       	rjmp	.+14     	; 0x6792 <disk_write+0x50>
    6784:	79 e0       	ldi	r23, 0x09	; 9
    6786:	cc 0c       	add	r12, r12
    6788:	dd 1c       	adc	r13, r13
    678a:	ee 1c       	adc	r14, r14
    678c:	ff 1c       	adc	r15, r15
    678e:	7a 95       	dec	r23
    6790:	d1 f7       	brne	.-12     	; 0x6786 <disk_write+0x44>
    6792:	01 30       	cpi	r16, 0x01	; 1
    6794:	69 f4       	brne	.+26     	; 0x67b0 <disk_write+0x6e>
    6796:	88 e1       	ldi	r24, 0x18	; 24
    6798:	b7 01       	movw	r22, r14
    679a:	a6 01       	movw	r20, r12
    679c:	0e 94 1f 32 	call	0x643e	; 0x643e <send_cmd>
    67a0:	88 23       	and	r24, r24
    67a2:	59 f5       	brne	.+86     	; 0x67fa <disk_write+0xb8>
    67a4:	ce 01       	movw	r24, r28
    67a6:	6e ef       	ldi	r22, 0xFE	; 254
    67a8:	0e 94 e3 31 	call	0x63c6	; 0x63c6 <xmit_datablock>
    67ac:	00 e0       	ldi	r16, 0x00	; 0
    67ae:	22 c0       	rjmp	.+68     	; 0x67f4 <disk_write+0xb2>
    67b0:	86 70       	andi	r24, 0x06	; 6
    67b2:	90 70       	andi	r25, 0x00	; 0
    67b4:	89 2b       	or	r24, r25
    67b6:	39 f0       	breq	.+14     	; 0x67c6 <disk_write+0x84>
    67b8:	40 2f       	mov	r20, r16
    67ba:	50 e0       	ldi	r21, 0x00	; 0
    67bc:	60 e0       	ldi	r22, 0x00	; 0
    67be:	70 e0       	ldi	r23, 0x00	; 0
    67c0:	87 e9       	ldi	r24, 0x97	; 151
    67c2:	0e 94 1f 32 	call	0x643e	; 0x643e <send_cmd>
    67c6:	89 e1       	ldi	r24, 0x19	; 25
    67c8:	b7 01       	movw	r22, r14
    67ca:	a6 01       	movw	r20, r12
    67cc:	0e 94 1f 32 	call	0x643e	; 0x643e <send_cmd>
    67d0:	88 23       	and	r24, r24
    67d2:	99 f4       	brne	.+38     	; 0x67fa <disk_write+0xb8>
    67d4:	ce 01       	movw	r24, r28
    67d6:	6c ef       	ldi	r22, 0xFC	; 252
    67d8:	0e 94 e3 31 	call	0x63c6	; 0x63c6 <xmit_datablock>
    67dc:	89 2b       	or	r24, r25
    67de:	29 f0       	breq	.+10     	; 0x67ea <disk_write+0xa8>
    67e0:	01 50       	subi	r16, 0x01	; 1
    67e2:	19 f0       	breq	.+6      	; 0x67ea <disk_write+0xa8>
    67e4:	c0 50       	subi	r28, 0x00	; 0
    67e6:	de 4f       	sbci	r29, 0xFE	; 254
    67e8:	f5 cf       	rjmp	.-22     	; 0x67d4 <disk_write+0x92>
    67ea:	80 e0       	ldi	r24, 0x00	; 0
    67ec:	90 e0       	ldi	r25, 0x00	; 0
    67ee:	6d ef       	ldi	r22, 0xFD	; 253
    67f0:	0e 94 e3 31 	call	0x63c6	; 0x63c6 <xmit_datablock>
    67f4:	89 2b       	or	r24, r25
    67f6:	09 f4       	brne	.+2      	; 0x67fa <disk_write+0xb8>
    67f8:	01 e0       	ldi	r16, 0x01	; 1
    67fa:	c4 9a       	sbi	0x18, 4	; 24
    67fc:	8f ef       	ldi	r24, 0xFF	; 255
    67fe:	8f b9       	out	0x0f, r24	; 15
    6800:	77 9b       	sbis	0x0e, 7	; 14
    6802:	fe cf       	rjmp	.-4      	; 0x6800 <disk_write+0xbe>
    6804:	8f b1       	in	r24, 0x0f	; 15
    6806:	00 23       	and	r16, r16
    6808:	19 f0       	breq	.+6      	; 0x6810 <disk_write+0xce>
    680a:	01 e0       	ldi	r16, 0x01	; 1
    680c:	01 c0       	rjmp	.+2      	; 0x6810 <disk_write+0xce>
    680e:	04 e0       	ldi	r16, 0x04	; 4
    6810:	80 2f       	mov	r24, r16
    6812:	df 91       	pop	r29
    6814:	cf 91       	pop	r28
    6816:	0f 91       	pop	r16
    6818:	ff 90       	pop	r15
    681a:	ef 90       	pop	r14
    681c:	df 90       	pop	r13
    681e:	cf 90       	pop	r12
    6820:	08 95       	ret

00006822 <disk_ioctl>:
    6822:	ff 92       	push	r15
    6824:	0f 93       	push	r16
    6826:	1f 93       	push	r17
    6828:	df 93       	push	r29
    682a:	cf 93       	push	r28
    682c:	cd b7       	in	r28, 0x3d	; 61
    682e:	de b7       	in	r29, 0x3e	; 62
    6830:	60 97       	sbiw	r28, 0x10	; 16
    6832:	0f b6       	in	r0, 0x3f	; 63
    6834:	f8 94       	cli
    6836:	de bf       	out	0x3e, r29	; 62
    6838:	0f be       	out	0x3f, r0	; 63
    683a:	cd bf       	out	0x3d, r28	; 61
    683c:	8a 01       	movw	r16, r20
    683e:	88 23       	and	r24, r24
    6840:	09 f0       	breq	.+2      	; 0x6844 <disk_ioctl+0x22>
    6842:	82 c1       	rjmp	.+772    	; 0x6b48 <disk_ioctl+0x326>
    6844:	65 30       	cpi	r22, 0x05	; 5
    6846:	59 f4       	brne	.+22     	; 0x685e <disk_ioctl+0x3c>
    6848:	fa 01       	movw	r30, r20
    684a:	80 81       	ld	r24, Z
    684c:	88 23       	and	r24, r24
    684e:	29 f0       	breq	.+10     	; 0x685a <disk_ioctl+0x38>
    6850:	81 30       	cpi	r24, 0x01	; 1
    6852:	09 f0       	breq	.+2      	; 0x6856 <disk_ioctl+0x34>
    6854:	79 c1       	rjmp	.+754    	; 0x6b48 <disk_ioctl+0x326>
    6856:	fa 01       	movw	r30, r20
    6858:	81 83       	std	Z+1, r24	; 0x01
    685a:	20 e0       	ldi	r18, 0x00	; 0
    685c:	76 c1       	rjmp	.+748    	; 0x6b4a <disk_ioctl+0x328>
    685e:	80 91 d7 00 	lds	r24, 0x00D7
    6862:	80 ff       	sbrs	r24, 0
    6864:	02 c0       	rjmp	.+4      	; 0x686a <disk_ioctl+0x48>
    6866:	23 e0       	ldi	r18, 0x03	; 3
    6868:	70 c1       	rjmp	.+736    	; 0x6b4a <disk_ioctl+0x328>
    686a:	6a 30       	cpi	r22, 0x0A	; 10
    686c:	09 f4       	brne	.+2      	; 0x6870 <disk_ioctl+0x4e>
    686e:	22 c1       	rjmp	.+580    	; 0x6ab4 <disk_ioctl+0x292>
    6870:	6b 30       	cpi	r22, 0x0B	; 11
    6872:	50 f4       	brcc	.+20     	; 0x6888 <disk_ioctl+0x66>
    6874:	61 30       	cpi	r22, 0x01	; 1
    6876:	11 f1       	breq	.+68     	; 0x68bc <disk_ioctl+0x9a>
    6878:	61 30       	cpi	r22, 0x01	; 1
    687a:	a0 f0       	brcs	.+40     	; 0x68a4 <disk_ioctl+0x82>
    687c:	62 30       	cpi	r22, 0x02	; 2
    687e:	09 f4       	brne	.+2      	; 0x6882 <disk_ioctl+0x60>
    6880:	83 c0       	rjmp	.+262    	; 0x6988 <disk_ioctl+0x166>
    6882:	63 30       	cpi	r22, 0x03	; 3
    6884:	69 f4       	brne	.+26     	; 0x68a0 <disk_ioctl+0x7e>
    6886:	86 c0       	rjmp	.+268    	; 0x6994 <disk_ioctl+0x172>
    6888:	6c 30       	cpi	r22, 0x0C	; 12
    688a:	09 f4       	brne	.+2      	; 0x688e <disk_ioctl+0x6c>
    688c:	1a c1       	rjmp	.+564    	; 0x6ac2 <disk_ioctl+0x2a0>
    688e:	6c 30       	cpi	r22, 0x0C	; 12
    6890:	08 f4       	brcc	.+2      	; 0x6894 <disk_ioctl+0x72>
    6892:	15 c1       	rjmp	.+554    	; 0x6abe <disk_ioctl+0x29c>
    6894:	6d 30       	cpi	r22, 0x0D	; 13
    6896:	09 f4       	brne	.+2      	; 0x689a <disk_ioctl+0x78>
    6898:	21 c1       	rjmp	.+578    	; 0x6adc <disk_ioctl+0x2ba>
    689a:	6e 30       	cpi	r22, 0x0E	; 14
    689c:	09 f4       	brne	.+2      	; 0x68a0 <disk_ioctl+0x7e>
    689e:	36 c1       	rjmp	.+620    	; 0x6b0c <disk_ioctl+0x2ea>
    68a0:	24 e0       	ldi	r18, 0x04	; 4
    68a2:	4b c1       	rjmp	.+662    	; 0x6b3a <disk_ioctl+0x318>
    68a4:	0e 94 94 31 	call	0x6328	; 0x6328 <select>
    68a8:	89 2b       	or	r24, r25
    68aa:	09 f4       	brne	.+2      	; 0x68ae <disk_ioctl+0x8c>
    68ac:	45 c1       	rjmp	.+650    	; 0x6b38 <disk_ioctl+0x316>
    68ae:	c4 9a       	sbi	0x18, 4	; 24
    68b0:	8f ef       	ldi	r24, 0xFF	; 255
    68b2:	8f b9       	out	0x0f, r24	; 15
    68b4:	77 9b       	sbis	0x0e, 7	; 14
    68b6:	fe cf       	rjmp	.-4      	; 0x68b4 <disk_ioctl+0x92>
    68b8:	8f b1       	in	r24, 0x0f	; 15
    68ba:	fa c0       	rjmp	.+500    	; 0x6ab0 <disk_ioctl+0x28e>
    68bc:	89 e0       	ldi	r24, 0x09	; 9
    68be:	40 e0       	ldi	r20, 0x00	; 0
    68c0:	50 e0       	ldi	r21, 0x00	; 0
    68c2:	60 e0       	ldi	r22, 0x00	; 0
    68c4:	70 e0       	ldi	r23, 0x00	; 0
    68c6:	0e 94 1f 32 	call	0x643e	; 0x643e <send_cmd>
    68ca:	88 23       	and	r24, r24
    68cc:	09 f0       	breq	.+2      	; 0x68d0 <disk_ioctl+0xae>
    68ce:	34 c1       	rjmp	.+616    	; 0x6b38 <disk_ioctl+0x316>
    68d0:	ce 01       	movw	r24, r28
    68d2:	01 96       	adiw	r24, 0x01	; 1
    68d4:	60 e1       	ldi	r22, 0x10	; 16
    68d6:	70 e0       	ldi	r23, 0x00	; 0
    68d8:	0e 94 a6 31 	call	0x634c	; 0x634c <rcvr_datablock>
    68dc:	89 2b       	or	r24, r25
    68de:	09 f4       	brne	.+2      	; 0x68e2 <disk_ioctl+0xc0>
    68e0:	2b c1       	rjmp	.+598    	; 0x6b38 <disk_ioctl+0x316>
    68e2:	89 81       	ldd	r24, Y+1	; 0x01
    68e4:	82 95       	swap	r24
    68e6:	86 95       	lsr	r24
    68e8:	86 95       	lsr	r24
    68ea:	83 70       	andi	r24, 0x03	; 3
    68ec:	7a 85       	ldd	r23, Y+10	; 0x0a
    68ee:	49 85       	ldd	r20, Y+9	; 0x09
    68f0:	81 30       	cpi	r24, 0x01	; 1
    68f2:	b1 f4       	brne	.+44     	; 0x6920 <disk_ioctl+0xfe>
    68f4:	87 2f       	mov	r24, r23
    68f6:	90 e0       	ldi	r25, 0x00	; 0
    68f8:	01 96       	adiw	r24, 0x01	; 1
    68fa:	34 2f       	mov	r19, r20
    68fc:	20 e0       	ldi	r18, 0x00	; 0
    68fe:	82 0f       	add	r24, r18
    6900:	93 1f       	adc	r25, r19
    6902:	a0 e0       	ldi	r26, 0x00	; 0
    6904:	b0 e0       	ldi	r27, 0x00	; 0
    6906:	3a e0       	ldi	r19, 0x0A	; 10
    6908:	88 0f       	add	r24, r24
    690a:	99 1f       	adc	r25, r25
    690c:	aa 1f       	adc	r26, r26
    690e:	bb 1f       	adc	r27, r27
    6910:	3a 95       	dec	r19
    6912:	d1 f7       	brne	.-12     	; 0x6908 <disk_ioctl+0xe6>
    6914:	f8 01       	movw	r30, r16
    6916:	80 83       	st	Z, r24
    6918:	91 83       	std	Z+1, r25	; 0x01
    691a:	a2 83       	std	Z+2, r26	; 0x02
    691c:	b3 83       	std	Z+3, r27	; 0x03
    691e:	0d c1       	rjmp	.+538    	; 0x6b3a <disk_ioctl+0x318>
    6920:	42 95       	swap	r20
    6922:	46 95       	lsr	r20
    6924:	46 95       	lsr	r20
    6926:	43 70       	andi	r20, 0x03	; 3
    6928:	28 85       	ldd	r18, Y+8	; 0x08
    692a:	30 e0       	ldi	r19, 0x00	; 0
    692c:	22 0f       	add	r18, r18
    692e:	33 1f       	adc	r19, r19
    6930:	22 0f       	add	r18, r18
    6932:	33 1f       	adc	r19, r19
    6934:	24 0f       	add	r18, r20
    6936:	31 1d       	adc	r19, r1
    6938:	2f 5f       	subi	r18, 0xFF	; 255
    693a:	3f 4f       	sbci	r19, 0xFF	; 255
    693c:	8f 81       	ldd	r24, Y+7	; 0x07
    693e:	90 e0       	ldi	r25, 0x00	; 0
    6940:	83 70       	andi	r24, 0x03	; 3
    6942:	90 70       	andi	r25, 0x00	; 0
    6944:	98 2f       	mov	r25, r24
    6946:	88 27       	eor	r24, r24
    6948:	99 0f       	add	r25, r25
    694a:	99 0f       	add	r25, r25
    694c:	28 0f       	add	r18, r24
    694e:	39 1f       	adc	r19, r25
    6950:	40 e0       	ldi	r20, 0x00	; 0
    6952:	50 e0       	ldi	r21, 0x00	; 0
    6954:	8e 81       	ldd	r24, Y+6	; 0x06
    6956:	8f 70       	andi	r24, 0x0F	; 15
    6958:	6b 85       	ldd	r22, Y+11	; 0x0b
    695a:	66 1f       	adc	r22, r22
    695c:	66 27       	eor	r22, r22
    695e:	66 1f       	adc	r22, r22
    6960:	86 0f       	add	r24, r22
    6962:	8e 5f       	subi	r24, 0xFE	; 254
    6964:	73 70       	andi	r23, 0x03	; 3
    6966:	77 0f       	add	r23, r23
    6968:	87 0f       	add	r24, r23
    696a:	90 e0       	ldi	r25, 0x00	; 0
    696c:	09 97       	sbiw	r24, 0x09	; 9
    696e:	04 c0       	rjmp	.+8      	; 0x6978 <disk_ioctl+0x156>
    6970:	22 0f       	add	r18, r18
    6972:	33 1f       	adc	r19, r19
    6974:	44 1f       	adc	r20, r20
    6976:	55 1f       	adc	r21, r21
    6978:	8a 95       	dec	r24
    697a:	d2 f7       	brpl	.-12     	; 0x6970 <disk_ioctl+0x14e>
    697c:	f8 01       	movw	r30, r16
    697e:	20 83       	st	Z, r18
    6980:	31 83       	std	Z+1, r19	; 0x01
    6982:	42 83       	std	Z+2, r20	; 0x02
    6984:	53 83       	std	Z+3, r21	; 0x03
    6986:	94 c0       	rjmp	.+296    	; 0x6ab0 <disk_ioctl+0x28e>
    6988:	80 e0       	ldi	r24, 0x00	; 0
    698a:	92 e0       	ldi	r25, 0x02	; 2
    698c:	fa 01       	movw	r30, r20
    698e:	91 83       	std	Z+1, r25	; 0x01
    6990:	80 83       	st	Z, r24
    6992:	8e c0       	rjmp	.+284    	; 0x6ab0 <disk_ioctl+0x28e>
    6994:	80 91 67 01 	lds	r24, 0x0167
    6998:	f8 2e       	mov	r15, r24
    699a:	82 ff       	sbrs	r24, 2
    699c:	2f c0       	rjmp	.+94     	; 0x69fc <disk_ioctl+0x1da>
    699e:	8d e8       	ldi	r24, 0x8D	; 141
    69a0:	40 e0       	ldi	r20, 0x00	; 0
    69a2:	50 e0       	ldi	r21, 0x00	; 0
    69a4:	60 e0       	ldi	r22, 0x00	; 0
    69a6:	70 e0       	ldi	r23, 0x00	; 0
    69a8:	0e 94 1f 32 	call	0x643e	; 0x643e <send_cmd>
    69ac:	88 23       	and	r24, r24
    69ae:	09 f0       	breq	.+2      	; 0x69b2 <disk_ioctl+0x190>
    69b0:	c3 c0       	rjmp	.+390    	; 0x6b38 <disk_ioctl+0x316>
    69b2:	8f ef       	ldi	r24, 0xFF	; 255
    69b4:	8f b9       	out	0x0f, r24	; 15
    69b6:	77 9b       	sbis	0x0e, 7	; 14
    69b8:	fe cf       	rjmp	.-4      	; 0x69b6 <disk_ioctl+0x194>
    69ba:	8f b1       	in	r24, 0x0f	; 15
    69bc:	ce 01       	movw	r24, r28
    69be:	01 96       	adiw	r24, 0x01	; 1
    69c0:	60 e1       	ldi	r22, 0x10	; 16
    69c2:	70 e0       	ldi	r23, 0x00	; 0
    69c4:	0e 94 a6 31 	call	0x634c	; 0x634c <rcvr_datablock>
    69c8:	89 2b       	or	r24, r25
    69ca:	09 f4       	brne	.+2      	; 0x69ce <disk_ioctl+0x1ac>
    69cc:	b5 c0       	rjmp	.+362    	; 0x6b38 <disk_ioctl+0x316>
    69ce:	80 e3       	ldi	r24, 0x30	; 48
    69d0:	9f ef       	ldi	r25, 0xFF	; 255
    69d2:	9f b9       	out	0x0f, r25	; 15
    69d4:	77 9b       	sbis	0x0e, 7	; 14
    69d6:	fe cf       	rjmp	.-4      	; 0x69d4 <disk_ioctl+0x1b2>
    69d8:	2f b1       	in	r18, 0x0f	; 15
    69da:	81 50       	subi	r24, 0x01	; 1
    69dc:	d1 f7       	brne	.-12     	; 0x69d2 <disk_ioctl+0x1b0>
    69de:	2b 85       	ldd	r18, Y+11	; 0x0b
    69e0:	22 95       	swap	r18
    69e2:	2f 70       	andi	r18, 0x0F	; 15
    69e4:	80 e1       	ldi	r24, 0x10	; 16
    69e6:	90 e0       	ldi	r25, 0x00	; 0
    69e8:	a0 e0       	ldi	r26, 0x00	; 0
    69ea:	b0 e0       	ldi	r27, 0x00	; 0
    69ec:	04 c0       	rjmp	.+8      	; 0x69f6 <disk_ioctl+0x1d4>
    69ee:	88 0f       	add	r24, r24
    69f0:	99 1f       	adc	r25, r25
    69f2:	aa 1f       	adc	r26, r26
    69f4:	bb 1f       	adc	r27, r27
    69f6:	2a 95       	dec	r18
    69f8:	d2 f7       	brpl	.-12     	; 0x69ee <disk_ioctl+0x1cc>
    69fa:	55 c0       	rjmp	.+170    	; 0x6aa6 <disk_ioctl+0x284>
    69fc:	89 e0       	ldi	r24, 0x09	; 9
    69fe:	40 e0       	ldi	r20, 0x00	; 0
    6a00:	50 e0       	ldi	r21, 0x00	; 0
    6a02:	60 e0       	ldi	r22, 0x00	; 0
    6a04:	70 e0       	ldi	r23, 0x00	; 0
    6a06:	0e 94 1f 32 	call	0x643e	; 0x643e <send_cmd>
    6a0a:	88 23       	and	r24, r24
    6a0c:	09 f0       	breq	.+2      	; 0x6a10 <disk_ioctl+0x1ee>
    6a0e:	94 c0       	rjmp	.+296    	; 0x6b38 <disk_ioctl+0x316>
    6a10:	ce 01       	movw	r24, r28
    6a12:	01 96       	adiw	r24, 0x01	; 1
    6a14:	60 e1       	ldi	r22, 0x10	; 16
    6a16:	70 e0       	ldi	r23, 0x00	; 0
    6a18:	0e 94 a6 31 	call	0x634c	; 0x634c <rcvr_datablock>
    6a1c:	89 2b       	or	r24, r25
    6a1e:	09 f4       	brne	.+2      	; 0x6a22 <disk_ioctl+0x200>
    6a20:	8b c0       	rjmp	.+278    	; 0x6b38 <disk_ioctl+0x316>
    6a22:	4b 85       	ldd	r20, Y+11	; 0x0b
    6a24:	8c 85       	ldd	r24, Y+12	; 0x0c
    6a26:	f1 fe       	sbrs	r15, 1
    6a28:	1b c0       	rjmp	.+54     	; 0x6a60 <disk_ioctl+0x23e>
    6a2a:	88 1f       	adc	r24, r24
    6a2c:	88 27       	eor	r24, r24
    6a2e:	88 1f       	adc	r24, r24
    6a30:	90 e0       	ldi	r25, 0x00	; 0
    6a32:	01 96       	adiw	r24, 0x01	; 1
    6a34:	24 2f       	mov	r18, r20
    6a36:	30 e0       	ldi	r19, 0x00	; 0
    6a38:	2f 73       	andi	r18, 0x3F	; 63
    6a3a:	30 70       	andi	r19, 0x00	; 0
    6a3c:	22 0f       	add	r18, r18
    6a3e:	33 1f       	adc	r19, r19
    6a40:	82 0f       	add	r24, r18
    6a42:	93 1f       	adc	r25, r19
    6a44:	2e 85       	ldd	r18, Y+14	; 0x0e
    6a46:	22 95       	swap	r18
    6a48:	26 95       	lsr	r18
    6a4a:	26 95       	lsr	r18
    6a4c:	23 70       	andi	r18, 0x03	; 3
    6a4e:	30 e0       	ldi	r19, 0x00	; 0
    6a50:	21 50       	subi	r18, 0x01	; 1
    6a52:	30 40       	sbci	r19, 0x00	; 0
    6a54:	02 c0       	rjmp	.+4      	; 0x6a5a <disk_ioctl+0x238>
    6a56:	88 0f       	add	r24, r24
    6a58:	99 1f       	adc	r25, r25
    6a5a:	2a 95       	dec	r18
    6a5c:	e2 f7       	brpl	.-8      	; 0x6a56 <disk_ioctl+0x234>
    6a5e:	21 c0       	rjmp	.+66     	; 0x6aa2 <disk_ioctl+0x280>
    6a60:	28 2f       	mov	r18, r24
    6a62:	30 e0       	ldi	r19, 0x00	; 0
    6a64:	23 70       	andi	r18, 0x03	; 3
    6a66:	30 70       	andi	r19, 0x00	; 0
    6a68:	f3 e0       	ldi	r31, 0x03	; 3
    6a6a:	22 0f       	add	r18, r18
    6a6c:	33 1f       	adc	r19, r19
    6a6e:	fa 95       	dec	r31
    6a70:	e1 f7       	brne	.-8      	; 0x6a6a <disk_ioctl+0x248>
    6a72:	82 95       	swap	r24
    6a74:	86 95       	lsr	r24
    6a76:	87 70       	andi	r24, 0x07	; 7
    6a78:	28 0f       	add	r18, r24
    6a7a:	31 1d       	adc	r19, r1
    6a7c:	2f 5f       	subi	r18, 0xFF	; 255
    6a7e:	3f 4f       	sbci	r19, 0xFF	; 255
    6a80:	84 2f       	mov	r24, r20
    6a82:	90 e0       	ldi	r25, 0x00	; 0
    6a84:	8c 77       	andi	r24, 0x7C	; 124
    6a86:	90 70       	andi	r25, 0x00	; 0
    6a88:	95 95       	asr	r25
    6a8a:	87 95       	ror	r24
    6a8c:	95 95       	asr	r25
    6a8e:	87 95       	ror	r24
    6a90:	01 96       	adiw	r24, 0x01	; 1
    6a92:	ac 01       	movw	r20, r24
    6a94:	24 9f       	mul	r18, r20
    6a96:	c0 01       	movw	r24, r0
    6a98:	25 9f       	mul	r18, r21
    6a9a:	90 0d       	add	r25, r0
    6a9c:	34 9f       	mul	r19, r20
    6a9e:	90 0d       	add	r25, r0
    6aa0:	11 24       	eor	r1, r1
    6aa2:	a0 e0       	ldi	r26, 0x00	; 0
    6aa4:	b0 e0       	ldi	r27, 0x00	; 0
    6aa6:	f8 01       	movw	r30, r16
    6aa8:	80 83       	st	Z, r24
    6aaa:	91 83       	std	Z+1, r25	; 0x01
    6aac:	a2 83       	std	Z+2, r26	; 0x02
    6aae:	b3 83       	std	Z+3, r27	; 0x03
    6ab0:	20 e0       	ldi	r18, 0x00	; 0
    6ab2:	43 c0       	rjmp	.+134    	; 0x6b3a <disk_ioctl+0x318>
    6ab4:	80 91 67 01 	lds	r24, 0x0167
    6ab8:	fa 01       	movw	r30, r20
    6aba:	80 83       	st	Z, r24
    6abc:	f9 cf       	rjmp	.-14     	; 0x6ab0 <disk_ioctl+0x28e>
    6abe:	89 e0       	ldi	r24, 0x09	; 9
    6ac0:	01 c0       	rjmp	.+2      	; 0x6ac4 <disk_ioctl+0x2a2>
    6ac2:	8a e0       	ldi	r24, 0x0A	; 10
    6ac4:	40 e0       	ldi	r20, 0x00	; 0
    6ac6:	50 e0       	ldi	r21, 0x00	; 0
    6ac8:	60 e0       	ldi	r22, 0x00	; 0
    6aca:	70 e0       	ldi	r23, 0x00	; 0
    6acc:	0e 94 1f 32 	call	0x643e	; 0x643e <send_cmd>
    6ad0:	88 23       	and	r24, r24
    6ad2:	91 f5       	brne	.+100    	; 0x6b38 <disk_ioctl+0x316>
    6ad4:	c8 01       	movw	r24, r16
    6ad6:	60 e1       	ldi	r22, 0x10	; 16
    6ad8:	70 e0       	ldi	r23, 0x00	; 0
    6ada:	29 c0       	rjmp	.+82     	; 0x6b2e <disk_ioctl+0x30c>
    6adc:	8a e3       	ldi	r24, 0x3A	; 58
    6ade:	40 e0       	ldi	r20, 0x00	; 0
    6ae0:	50 e0       	ldi	r21, 0x00	; 0
    6ae2:	60 e0       	ldi	r22, 0x00	; 0
    6ae4:	70 e0       	ldi	r23, 0x00	; 0
    6ae6:	0e 94 1f 32 	call	0x643e	; 0x643e <send_cmd>
    6aea:	88 23       	and	r24, r24
    6aec:	29 f5       	brne	.+74     	; 0x6b38 <disk_ioctl+0x316>
    6aee:	f8 01       	movw	r30, r16
    6af0:	9f ef       	ldi	r25, 0xFF	; 255
    6af2:	98 01       	movw	r18, r16
    6af4:	2d 5f       	subi	r18, 0xFD	; 253
    6af6:	3f 4f       	sbci	r19, 0xFF	; 255
    6af8:	9f b9       	out	0x0f, r25	; 15
    6afa:	77 9b       	sbis	0x0e, 7	; 14
    6afc:	fe cf       	rjmp	.-4      	; 0x6afa <disk_ioctl+0x2d8>
    6afe:	8f b1       	in	r24, 0x0f	; 15
    6b00:	80 83       	st	Z, r24
    6b02:	e2 17       	cp	r30, r18
    6b04:	f3 07       	cpc	r31, r19
    6b06:	a1 f2       	breq	.-88     	; 0x6ab0 <disk_ioctl+0x28e>
    6b08:	31 96       	adiw	r30, 0x01	; 1
    6b0a:	f6 cf       	rjmp	.-20     	; 0x6af8 <disk_ioctl+0x2d6>
    6b0c:	8d e8       	ldi	r24, 0x8D	; 141
    6b0e:	40 e0       	ldi	r20, 0x00	; 0
    6b10:	50 e0       	ldi	r21, 0x00	; 0
    6b12:	60 e0       	ldi	r22, 0x00	; 0
    6b14:	70 e0       	ldi	r23, 0x00	; 0
    6b16:	0e 94 1f 32 	call	0x643e	; 0x643e <send_cmd>
    6b1a:	88 23       	and	r24, r24
    6b1c:	69 f4       	brne	.+26     	; 0x6b38 <disk_ioctl+0x316>
    6b1e:	8f ef       	ldi	r24, 0xFF	; 255
    6b20:	8f b9       	out	0x0f, r24	; 15
    6b22:	77 9b       	sbis	0x0e, 7	; 14
    6b24:	fe cf       	rjmp	.-4      	; 0x6b22 <disk_ioctl+0x300>
    6b26:	8f b1       	in	r24, 0x0f	; 15
    6b28:	c8 01       	movw	r24, r16
    6b2a:	60 e4       	ldi	r22, 0x40	; 64
    6b2c:	70 e0       	ldi	r23, 0x00	; 0
    6b2e:	0e 94 a6 31 	call	0x634c	; 0x634c <rcvr_datablock>
    6b32:	20 e0       	ldi	r18, 0x00	; 0
    6b34:	89 2b       	or	r24, r25
    6b36:	09 f4       	brne	.+2      	; 0x6b3a <disk_ioctl+0x318>
    6b38:	21 e0       	ldi	r18, 0x01	; 1
    6b3a:	c4 9a       	sbi	0x18, 4	; 24
    6b3c:	8f ef       	ldi	r24, 0xFF	; 255
    6b3e:	8f b9       	out	0x0f, r24	; 15
    6b40:	77 9b       	sbis	0x0e, 7	; 14
    6b42:	fe cf       	rjmp	.-4      	; 0x6b40 <disk_ioctl+0x31e>
    6b44:	8f b1       	in	r24, 0x0f	; 15
    6b46:	01 c0       	rjmp	.+2      	; 0x6b4a <disk_ioctl+0x328>
    6b48:	24 e0       	ldi	r18, 0x04	; 4
    6b4a:	82 2f       	mov	r24, r18
    6b4c:	60 96       	adiw	r28, 0x10	; 16
    6b4e:	0f b6       	in	r0, 0x3f	; 63
    6b50:	f8 94       	cli
    6b52:	de bf       	out	0x3e, r29	; 62
    6b54:	0f be       	out	0x3f, r0	; 63
    6b56:	cd bf       	out	0x3d, r28	; 61
    6b58:	cf 91       	pop	r28
    6b5a:	df 91       	pop	r29
    6b5c:	1f 91       	pop	r17
    6b5e:	0f 91       	pop	r16
    6b60:	ff 90       	pop	r15
    6b62:	08 95       	ret

00006b64 <disk_timerproc>:
    6b64:	80 91 65 01 	lds	r24, 0x0165
    6b68:	88 23       	and	r24, r24
    6b6a:	19 f0       	breq	.+6      	; 0x6b72 <disk_timerproc+0xe>
    6b6c:	81 50       	subi	r24, 0x01	; 1
    6b6e:	80 93 65 01 	sts	0x0165, r24
    6b72:	80 91 66 01 	lds	r24, 0x0166
    6b76:	88 23       	and	r24, r24
    6b78:	19 f0       	breq	.+6      	; 0x6b80 <disk_timerproc+0x1c>
    6b7a:	81 50       	subi	r24, 0x01	; 1
    6b7c:	80 93 66 01 	sts	0x0166, r24
    6b80:	80 91 d7 00 	lds	r24, 0x00D7
    6b84:	9b 9b       	sbis	0x13, 3	; 19
    6b86:	02 c0       	rjmp	.+4      	; 0x6b8c <disk_timerproc+0x28>
    6b88:	84 60       	ori	r24, 0x04	; 4
    6b8a:	01 c0       	rjmp	.+2      	; 0x6b8e <disk_timerproc+0x2a>
    6b8c:	8b 7f       	andi	r24, 0xFB	; 251
    6b8e:	9a 99       	sbic	0x13, 2	; 19
    6b90:	02 c0       	rjmp	.+4      	; 0x6b96 <disk_timerproc+0x32>
    6b92:	8d 7f       	andi	r24, 0xFD	; 253
    6b94:	01 c0       	rjmp	.+2      	; 0x6b98 <disk_timerproc+0x34>
    6b96:	83 60       	ori	r24, 0x03	; 3
    6b98:	80 93 d7 00 	sts	0x00D7, r24
    6b9c:	08 95       	ret

00006b9e <__mulsi3>:
    6b9e:	62 9f       	mul	r22, r18
    6ba0:	d0 01       	movw	r26, r0
    6ba2:	73 9f       	mul	r23, r19
    6ba4:	f0 01       	movw	r30, r0
    6ba6:	82 9f       	mul	r24, r18
    6ba8:	e0 0d       	add	r30, r0
    6baa:	f1 1d       	adc	r31, r1
    6bac:	64 9f       	mul	r22, r20
    6bae:	e0 0d       	add	r30, r0
    6bb0:	f1 1d       	adc	r31, r1
    6bb2:	92 9f       	mul	r25, r18
    6bb4:	f0 0d       	add	r31, r0
    6bb6:	83 9f       	mul	r24, r19
    6bb8:	f0 0d       	add	r31, r0
    6bba:	74 9f       	mul	r23, r20
    6bbc:	f0 0d       	add	r31, r0
    6bbe:	65 9f       	mul	r22, r21
    6bc0:	f0 0d       	add	r31, r0
    6bc2:	99 27       	eor	r25, r25
    6bc4:	72 9f       	mul	r23, r18
    6bc6:	b0 0d       	add	r27, r0
    6bc8:	e1 1d       	adc	r30, r1
    6bca:	f9 1f       	adc	r31, r25
    6bcc:	63 9f       	mul	r22, r19
    6bce:	b0 0d       	add	r27, r0
    6bd0:	e1 1d       	adc	r30, r1
    6bd2:	f9 1f       	adc	r31, r25
    6bd4:	bd 01       	movw	r22, r26
    6bd6:	cf 01       	movw	r24, r30
    6bd8:	11 24       	eor	r1, r1
    6bda:	08 95       	ret

00006bdc <__udivmodsi4>:
    6bdc:	a1 e2       	ldi	r26, 0x21	; 33
    6bde:	1a 2e       	mov	r1, r26
    6be0:	aa 1b       	sub	r26, r26
    6be2:	bb 1b       	sub	r27, r27
    6be4:	fd 01       	movw	r30, r26
    6be6:	0d c0       	rjmp	.+26     	; 0x6c02 <__udivmodsi4_ep>

00006be8 <__udivmodsi4_loop>:
    6be8:	aa 1f       	adc	r26, r26
    6bea:	bb 1f       	adc	r27, r27
    6bec:	ee 1f       	adc	r30, r30
    6bee:	ff 1f       	adc	r31, r31
    6bf0:	a2 17       	cp	r26, r18
    6bf2:	b3 07       	cpc	r27, r19
    6bf4:	e4 07       	cpc	r30, r20
    6bf6:	f5 07       	cpc	r31, r21
    6bf8:	20 f0       	brcs	.+8      	; 0x6c02 <__udivmodsi4_ep>
    6bfa:	a2 1b       	sub	r26, r18
    6bfc:	b3 0b       	sbc	r27, r19
    6bfe:	e4 0b       	sbc	r30, r20
    6c00:	f5 0b       	sbc	r31, r21

00006c02 <__udivmodsi4_ep>:
    6c02:	66 1f       	adc	r22, r22
    6c04:	77 1f       	adc	r23, r23
    6c06:	88 1f       	adc	r24, r24
    6c08:	99 1f       	adc	r25, r25
    6c0a:	1a 94       	dec	r1
    6c0c:	69 f7       	brne	.-38     	; 0x6be8 <__udivmodsi4_loop>
    6c0e:	60 95       	com	r22
    6c10:	70 95       	com	r23
    6c12:	80 95       	com	r24
    6c14:	90 95       	com	r25
    6c16:	9b 01       	movw	r18, r22
    6c18:	ac 01       	movw	r20, r24
    6c1a:	bd 01       	movw	r22, r26
    6c1c:	cf 01       	movw	r24, r30
    6c1e:	08 95       	ret

00006c20 <__divmodsi4>:
    6c20:	97 fb       	bst	r25, 7
    6c22:	09 2e       	mov	r0, r25
    6c24:	05 26       	eor	r0, r21
    6c26:	0e d0       	rcall	.+28     	; 0x6c44 <__divmodsi4_neg1>
    6c28:	57 fd       	sbrc	r21, 7
    6c2a:	04 d0       	rcall	.+8      	; 0x6c34 <__divmodsi4_neg2>
    6c2c:	d7 df       	rcall	.-82     	; 0x6bdc <__udivmodsi4>
    6c2e:	0a d0       	rcall	.+20     	; 0x6c44 <__divmodsi4_neg1>
    6c30:	00 1c       	adc	r0, r0
    6c32:	38 f4       	brcc	.+14     	; 0x6c42 <__divmodsi4_exit>

00006c34 <__divmodsi4_neg2>:
    6c34:	50 95       	com	r21
    6c36:	40 95       	com	r20
    6c38:	30 95       	com	r19
    6c3a:	21 95       	neg	r18
    6c3c:	3f 4f       	sbci	r19, 0xFF	; 255
    6c3e:	4f 4f       	sbci	r20, 0xFF	; 255
    6c40:	5f 4f       	sbci	r21, 0xFF	; 255

00006c42 <__divmodsi4_exit>:
    6c42:	08 95       	ret

00006c44 <__divmodsi4_neg1>:
    6c44:	f6 f7       	brtc	.-4      	; 0x6c42 <__divmodsi4_exit>
    6c46:	90 95       	com	r25
    6c48:	80 95       	com	r24
    6c4a:	70 95       	com	r23
    6c4c:	61 95       	neg	r22
    6c4e:	7f 4f       	sbci	r23, 0xFF	; 255
    6c50:	8f 4f       	sbci	r24, 0xFF	; 255
    6c52:	9f 4f       	sbci	r25, 0xFF	; 255
    6c54:	08 95       	ret

00006c56 <memset>:
    6c56:	dc 01       	movw	r26, r24
    6c58:	01 c0       	rjmp	.+2      	; 0x6c5c <memset+0x6>
    6c5a:	6d 93       	st	X+, r22
    6c5c:	41 50       	subi	r20, 0x01	; 1
    6c5e:	50 40       	sbci	r21, 0x00	; 0
    6c60:	e0 f7       	brcc	.-8      	; 0x6c5a <memset+0x4>
    6c62:	08 95       	ret

00006c64 <strchr>:
    6c64:	fc 01       	movw	r30, r24
    6c66:	81 91       	ld	r24, Z+
    6c68:	86 17       	cp	r24, r22
    6c6a:	21 f0       	breq	.+8      	; 0x6c74 <strchr+0x10>
    6c6c:	88 23       	and	r24, r24
    6c6e:	d9 f7       	brne	.-10     	; 0x6c66 <strchr+0x2>
    6c70:	99 27       	eor	r25, r25
    6c72:	08 95       	ret
    6c74:	31 97       	sbiw	r30, 0x01	; 1
    6c76:	cf 01       	movw	r24, r30
    6c78:	08 95       	ret

00006c7a <strcpy>:
    6c7a:	fb 01       	movw	r30, r22
    6c7c:	dc 01       	movw	r26, r24
    6c7e:	01 90       	ld	r0, Z+
    6c80:	0d 92       	st	X+, r0
    6c82:	00 20       	and	r0, r0
    6c84:	e1 f7       	brne	.-8      	; 0x6c7e <strcpy+0x4>
    6c86:	08 95       	ret

00006c88 <_exit>:
    6c88:	f8 94       	cli

00006c8a <__stop_program>:
    6c8a:	ff cf       	rjmp	.-2      	; 0x6c8a <__stop_program>
